
firmware:     file format elf32-avr


Disassembly of section .data:

00800200 <__data_start>:
  800200:	00 02       	muls	r16, r16
  800202:	00 02       	muls	r16, r16

00800204 <finallist>:
  800204:	04 02       	muls	r16, r20
  800206:	04 02       	muls	r16, r20

00800208 <schedee_list>:
  800208:	08 02       	muls	r16, r24
  80020a:	08 02       	muls	r16, r24

0080020c <_ZN5genos7ns_listE>:
  80020c:	0c 02       	muls	r16, r28
  80020e:	0c 02       	muls	r16, r28

00800210 <system_frequency>:
  800210:	01 00       	.word	0x0001	; ????
	...

00800214 <jiffies_to_millis>:
  800214:	01 00       	.word	0x0001	; ????
	...

00800218 <lopart_to_micros>:
  800218:	01 00       	.word	0x0001	; ????
  80021a:	00 00       	nop
  80021c:	49 52       	subi	r20, 0x29	; 41
  80021e:	51 5f       	subi	r21, 0xF1	; 241
  800220:	53 54       	subi	r21, 0x43	; 67
  800222:	55 42       	sbci	r21, 0x25	; 37
  800224:	5f 00       	.word	0x005f	; ????
  800226:	5f 5f       	subi	r21, 0xFF	; 255
  800228:	69 72       	andi	r22, 0x29	; 41
  80022a:	71 74       	andi	r23, 0x41	; 65
  80022c:	61 62       	ori	r22, 0x21	; 33
  80022e:	6c 65       	ori	r22, 0x5C	; 92
  800230:	3a 00       	.word	0x003a	; ????
  800232:	3a 20       	and	r3, r10
  800234:	00 20       	and	r0, r0
  800236:	00 69       	ori	r16, 0x90	; 144
  800238:	72 71       	andi	r23, 0x12	; 18
  80023a:	74 61       	ori	r23, 0x14	; 20
  80023c:	62 6c       	ori	r22, 0xC2	; 194
  80023e:	65 00       	.word	0x0065	; ????
  800240:	2f 68       	ori	r18, 0x8F	; 143
  800242:	6f 6d       	ori	r22, 0xDF	; 223
  800244:	65 2f       	mov	r22, r21
  800246:	6d 69       	ori	r22, 0x9D	; 157
  800248:	72 6d       	ori	r23, 0xD2	; 210
  80024a:	69 6b       	ori	r22, 0xB9	; 185
  80024c:	2f 70       	andi	r18, 0x0F	; 15
  80024e:	72 6f       	ori	r23, 0xF2	; 242
  800250:	6a 65       	ori	r22, 0x5A	; 90
  800252:	63 74       	andi	r22, 0x43	; 67
  800254:	2f 67       	ori	r18, 0x7F	; 127
  800256:	65 6e       	ori	r22, 0xE5	; 229
  800258:	6f 73       	andi	r22, 0x3F	; 63
  80025a:	2f 73       	andi	r18, 0x3F	; 63
  80025c:	72 63       	ori	r23, 0x32	; 50
  80025e:	2f 67       	ori	r18, 0x7F	; 127
  800260:	65 6e       	ori	r22, 0xE5	; 229
  800262:	6f 73       	andi	r22, 0x3F	; 63
  800264:	2f 61       	ori	r18, 0x1F	; 31
  800266:	70 69       	ori	r23, 0x90	; 144
  800268:	74 69       	ori	r23, 0x94	; 148
  80026a:	6d 65       	ori	r22, 0x5D	; 93
  80026c:	2e 63       	ori	r18, 0x3E	; 62
  80026e:	70 70       	andi	r23, 0x00	; 0
  800270:	00 0f       	add	r16, r16
  800272:	00 40       	sbci	r16, 0x00	; 0
  800274:	02 45       	sbci	r16, 0x52	; 82
  800276:	45 66       	ori	r20, 0x65	; 101
  800278:	69 6c       	ori	r22, 0xC9	; 201
  80027a:	65 3a       	cpi	r22, 0xA5	; 165
  80027c:	20 00       	.word	0x0020	; ????
  80027e:	66 75       	andi	r22, 0x56	; 86
  800280:	6e 63       	ori	r22, 0x3E	; 62
  800282:	3a 20       	and	r3, r10
  800284:	00 6c       	ori	r16, 0xC0	; 192
  800286:	69 6e       	ori	r22, 0xE9	; 233
  800288:	65 3a       	cpi	r22, 0xA5	; 165
  80028a:	20 00       	.word	0x0020	; ????
  80028c:	2f 68       	ori	r18, 0x8F	; 143
  80028e:	6f 6d       	ori	r22, 0xDF	; 223
  800290:	65 2f       	mov	r22, r21
  800292:	6d 69       	ori	r22, 0x9D	; 157
  800294:	72 6d       	ori	r23, 0xD2	; 210
  800296:	69 6b       	ori	r22, 0xB9	; 185
  800298:	2f 70       	andi	r18, 0x0F	; 15
  80029a:	72 6f       	ori	r23, 0xF2	; 242
  80029c:	6a 65       	ori	r22, 0x5A	; 90
  80029e:	63 74       	andi	r22, 0x43	; 67
  8002a0:	2f 67       	ori	r18, 0x7F	; 127
  8002a2:	65 6e       	ori	r22, 0xE5	; 229
  8002a4:	6f 73       	andi	r22, 0x3F	; 63
  8002a6:	2f 73       	andi	r18, 0x3F	; 63
  8002a8:	72 63       	ori	r23, 0x32	; 50
  8002aa:	2f 67       	ori	r18, 0x7F	; 127
  8002ac:	65 6e       	ori	r22, 0xE5	; 229
  8002ae:	6f 73       	andi	r22, 0x3F	; 63
  8002b0:	2f 73       	andi	r18, 0x3F	; 63
  8002b2:	63 68       	ori	r22, 0x83	; 131
  8002b4:	65 64       	ori	r22, 0x45	; 69
  8002b6:	65 65       	ori	r22, 0x55	; 85
  8002b8:	2f 61       	ori	r18, 0x1F	; 31
  8002ba:	75 74       	andi	r23, 0x45	; 69
  8002bc:	6f 6d       	ori	r22, 0xDF	; 223
  8002be:	2e 63       	ori	r18, 0x3E	; 62
  8002c0:	70 70       	andi	r23, 0x00	; 0
  8002c2:	00 23       	and	r16, r16
  8002c4:	00 8c       	ldd	r0, Z+24	; 0x18
  8002c6:	02 4c       	sbci	r16, 0xC2	; 194
  8002c8:	45 2f       	mov	r20, r21
  8002ca:	68 6f       	ori	r22, 0xF8	; 248
  8002cc:	6d 65       	ori	r22, 0x5D	; 93
  8002ce:	2f 6d       	ori	r18, 0xDF	; 223
  8002d0:	69 72       	andi	r22, 0x29	; 41
  8002d2:	6d 69       	ori	r22, 0x9D	; 157
  8002d4:	6b 2f       	mov	r22, r27
  8002d6:	70 72       	andi	r23, 0x20	; 32
  8002d8:	6f 6a       	ori	r22, 0xAF	; 175
  8002da:	65 63       	ori	r22, 0x35	; 53
  8002dc:	74 2f       	mov	r23, r20
  8002de:	67 65       	ori	r22, 0x57	; 87
  8002e0:	6e 6f       	ori	r22, 0xFE	; 254
  8002e2:	73 2f       	mov	r23, r19
  8002e4:	73 72       	andi	r23, 0x23	; 35
  8002e6:	63 2f       	mov	r22, r19
  8002e8:	67 65       	ori	r22, 0x57	; 87
  8002ea:	6e 6f       	ori	r22, 0xFE	; 254
  8002ec:	73 2f       	mov	r23, r19
  8002ee:	73 63       	ori	r23, 0x33	; 51
  8002f0:	68 65       	ori	r22, 0x58	; 88
  8002f2:	64 65       	ori	r22, 0x54	; 84
  8002f4:	65 2f       	mov	r22, r21
  8002f6:	63 6f       	ori	r22, 0xF3	; 243
  8002f8:	6f 70       	andi	r22, 0x0F	; 15
  8002fa:	2e 63       	ori	r18, 0x3E	; 62
  8002fc:	70 70       	andi	r23, 0x00	; 0
  8002fe:	00 3d       	cpi	r16, 0xD0	; 208
  800300:	00 c9       	rjmp	.-3584   	; 0x7ff502 <_sidata+0x7faf4a>
  800302:	02 61       	ori	r16, 0x12	; 18
  800304:	45 41       	sbci	r20, 0x15	; 21
  800306:	00 c9       	rjmp	.-3584   	; 0x7ff508 <_sidata+0x7faf50>
  800308:	02 61       	ori	r16, 0x12	; 18
  80030a:	45 74       	andi	r20, 0x45	; 69
  80030c:	69 6d       	ori	r22, 0xD9	; 217
  80030e:	65 72       	andi	r22, 0x25	; 37
  800310:	00 0d       	add	r16, r0
  800312:	0a 00       	.word	0x000a	; ????
  800314:	63 64       	ori	r22, 0x43	; 67
  800316:	00 6c       	ori	r16, 0xC0	; 192
  800318:	73 00       	.word	0x0073	; ????
  80031a:	2f 64       	ori	r18, 0x4F	; 79
  80031c:	65 76       	andi	r22, 0x65	; 101
  80031e:	00 5f       	subi	r16, 0xF0	; 240
  800320:	5f 63       	ori	r21, 0x3F	; 63
  800322:	78 61       	ori	r23, 0x18	; 24
  800324:	5f 70       	andi	r21, 0x0F	; 15
  800326:	75 72       	andi	r23, 0x25	; 37
  800328:	65 5f       	subi	r22, 0xF5	; 245
  80032a:	76 69       	ori	r23, 0x96	; 150
  80032c:	72 74       	andi	r23, 0x42	; 66
  80032e:	75 61       	ori	r23, 0x15	; 21
  800330:	6c 00       	.word	0x006c	; ????
  800332:	5f 5f       	subi	r21, 0xFF	; 255
  800334:	64 73       	andi	r22, 0x34	; 52
  800336:	6f 5f       	subi	r22, 0xFF	; 255
  800338:	68 61       	ori	r22, 0x18	; 24
  80033a:	6e 64       	ori	r22, 0x4E	; 78
  80033c:	6c 65       	ori	r22, 0x5C	; 92
  80033e:	00 66       	ori	r16, 0x60	; 96
  800340:	69 6c       	ori	r22, 0xC9	; 201
  800342:	65 3a       	cpi	r22, 0xA5	; 165
  800344:	20 00       	.word	0x0020	; ????
  800346:	66 75       	andi	r22, 0x56	; 86
  800348:	6e 63       	ori	r22, 0x3E	; 62
  80034a:	3a 20       	and	r3, r10
  80034c:	00 6c       	ori	r16, 0xC0	; 192
  80034e:	69 6e       	ori	r22, 0xE9	; 233
  800350:	65 3a       	cpi	r22, 0xA5	; 165
  800352:	20 00       	.word	0x0020	; ????
  800354:	52 55       	subi	r21, 0x52	; 82
  800356:	4e 00       	.word	0x004e	; ????
  800358:	53 54       	subi	r21, 0x43	; 67
  80035a:	4f 50       	subi	r20, 0x0F	; 15
  80035c:	00 57       	subi	r16, 0x70	; 112
  80035e:	41 49       	sbci	r20, 0x91	; 145
  800360:	54 00       	.word	0x0054	; ????
  800362:	57 41       	sbci	r21, 0x17	; 23
  800364:	49 54       	subi	r20, 0x49	; 73
  800366:	53 43       	sbci	r21, 0x33	; 51
  800368:	48 00       	.word	0x0048	; ????
  80036a:	46 49       	sbci	r20, 0x96	; 150
  80036c:	4e 41       	sbci	r20, 0x1E	; 30
  80036e:	4c 00       	.word	0x004c	; ????
  800370:	5a 4f       	sbci	r21, 0xFA	; 250
  800372:	4d 42       	sbci	r20, 0x2D	; 45
  800374:	00 00       	nop
  800376:	75 6e       	ori	r23, 0xE5	; 229
  800378:	6e 61       	ori	r22, 0x1E	; 30
  80037a:	6d 65       	ori	r22, 0x5D	; 93
  80037c:	64 00       	.word	0x0064	; ????
  80037e:	20 70       	andi	r18, 0x00	; 0
  800380:	69 64       	ori	r22, 0x49	; 73
  800382:	3a 00       	.word	0x003a	; ????
  800384:	20 67       	ori	r18, 0x70	; 112
  800386:	69 64       	ori	r22, 0x49	; 73
  800388:	3a 00       	.word	0x003a	; ????
  80038a:	20 65       	ori	r18, 0x50	; 80
  80038c:	78 65       	ori	r23, 0x58	; 88
  80038e:	63 3a       	cpi	r22, 0xA3	; 163
  800390:	00 20       	and	r0, r0
  800392:	64 69       	ori	r22, 0x94	; 148
  800394:	73 70       	andi	r23, 0x03	; 3
  800396:	3a 00       	.word	0x003a	; ????
  800398:	20 73       	andi	r18, 0x30	; 48
  80039a:	74 61       	ori	r23, 0x14	; 20
  80039c:	74 65       	ori	r23, 0x54	; 84
  80039e:	3a 00       	.word	0x003a	; ????
  8003a0:	70 72       	andi	r23, 0x20	; 32
  8003a2:	69 6f       	ori	r22, 0xF9	; 249
  8003a4:	6c 76       	andi	r22, 0x6C	; 108
  8003a6:	6c 3a       	cpi	r22, 0xAC	; 172
  8003a8:	00 09       	sbc	r16, r0
  8003aa:	00 75       	andi	r16, 0x50	; 80
  8003ac:	73 61       	ori	r23, 0x13	; 19
  8003ae:	67 65       	ori	r22, 0x57	; 87
  8003b0:	3a 20       	and	r3, r10
  8003b2:	70 72       	andi	r23, 0x20	; 32
  8003b4:	6f 63       	ori	r22, 0x3F	; 63
  8003b6:	63 74       	andi	r22, 0x43	; 67
  8003b8:	72 20       	and	r7, r2
  8003ba:	43 4d       	sbci	r20, 0xD3	; 211
  8003bc:	44 3d       	cpi	r20, 0xD4	; 212
  8003be:	72 75       	andi	r23, 0x52	; 82
  8003c0:	6e 7c       	andi	r22, 0xCE	; 206
  8003c2:	73 74       	andi	r23, 0x43	; 67
  8003c4:	6f 70       	andi	r22, 0x0F	; 15
  8003c6:	20 4d       	sbci	r18, 0xD0	; 208
  8003c8:	4e 45       	sbci	r20, 0x5E	; 94
  8003ca:	4d 4f       	sbci	r20, 0xFD	; 253
  8003cc:	0d 00       	.word	0x000d	; ????
  8003ce:	75 6e       	ori	r23, 0xE5	; 229
  8003d0:	6b 6e       	ori	r22, 0xEB	; 235
  8003d2:	6f 77       	andi	r22, 0x7F	; 127
  8003d4:	6e 20       	and	r6, r14
  8003d6:	73 63       	ori	r23, 0x33	; 51
  8003d8:	68 65       	ori	r22, 0x58	; 88
  8003da:	64 65       	ori	r22, 0x54	; 84
  8003dc:	65 0d       	add	r22, r5
  8003de:	00 73       	andi	r16, 0x30	; 48
  8003e0:	74 61       	ori	r23, 0x14	; 20
  8003e2:	72 74       	andi	r23, 0x42	; 66
  8003e4:	00 73       	andi	r16, 0x30	; 48
  8003e6:	74 6f       	ori	r23, 0xF4	; 244
  8003e8:	70 00       	.word	0x0070	; ????
  8003ea:	2f 68       	ori	r18, 0x8F	; 143
  8003ec:	6f 6d       	ori	r22, 0xDF	; 223
  8003ee:	65 2f       	mov	r22, r21
  8003f0:	6d 69       	ori	r22, 0x9D	; 157
  8003f2:	72 6d       	ori	r23, 0xD2	; 210
  8003f4:	69 6b       	ori	r22, 0xB9	; 185
  8003f6:	2f 70       	andi	r18, 0x0F	; 15
  8003f8:	72 6f       	ori	r23, 0xF2	; 242
  8003fa:	6a 65       	ori	r22, 0x5A	; 90
  8003fc:	63 74       	andi	r22, 0x43	; 67
  8003fe:	2f 67       	ori	r18, 0x7F	; 127
  800400:	65 6e       	ori	r22, 0xE5	; 229
  800402:	6f 73       	andi	r22, 0x3F	; 63
  800404:	2f 73       	andi	r18, 0x3F	; 63
  800406:	72 63       	ori	r23, 0x32	; 50
  800408:	2f 67       	ori	r18, 0x7F	; 127
  80040a:	65 6e       	ori	r22, 0xE5	; 229
  80040c:	6f 73       	andi	r22, 0x3F	; 63
  80040e:	2f 73       	andi	r18, 0x3F	; 63
  800410:	63 68       	ori	r22, 0x83	; 131
  800412:	65 64       	ori	r22, 0x45	; 69
  800414:	2e 63       	ori	r18, 0x3E	; 62
  800416:	70 70       	andi	r23, 0x00	; 0
  800418:	00 37       	cpi	r16, 0x70	; 112
  80041a:	01 ea       	ldi	r16, 0xA1	; 161
  80041c:	03 2c       	mov	r0, r3
  80041e:	45 0d       	add	r20, r5
  800420:	0a 00       	.word	0x000a	; ????
  800422:	70 73       	andi	r23, 0x30	; 48
  800424:	00 70       	andi	r16, 0x00	; 0
  800426:	72 6f       	ori	r23, 0xF2	; 242
  800428:	63 63       	ori	r22, 0x33	; 51
  80042a:	74 72       	andi	r23, 0x24	; 36
  80042c:	00 20       	and	r0, r0
  80042e:	65 78       	andi	r22, 0x85	; 133
  800430:	65 63       	ori	r22, 0x35	; 53
  800432:	63 6f       	ori	r22, 0xF3	; 243
  800434:	75 6e       	ori	r23, 0xE5	; 229
  800436:	74 65       	ori	r23, 0x54	; 84
  800438:	72 3a       	cpi	r23, 0xA2	; 162
  80043a:	00 20       	and	r0, r0
  80043c:	64 69       	ori	r22, 0x94	; 148
  80043e:	73 70       	andi	r23, 0x03	; 3
  800440:	63 6f       	ori	r22, 0xF3	; 243
  800442:	75 6e       	ori	r23, 0xE5	; 229
  800444:	74 65       	ori	r23, 0x54	; 84
  800446:	72 3a       	cpi	r23, 0xA2	; 162
  800448:	00 20       	and	r0, r0
  80044a:	70 72       	andi	r23, 0x20	; 32
  80044c:	69 6f       	ori	r22, 0xF9	; 249
  80044e:	3a 00       	.word	0x003a	; ????
  800450:	20 73       	andi	r18, 0x30	; 48
  800452:	63 68       	ori	r22, 0x83	; 131
  800454:	5f 73       	andi	r21, 0x3F	; 63
  800456:	74 61       	ori	r23, 0x14	; 20
  800458:	74 65       	ori	r23, 0x54	; 84
  80045a:	00 55       	subi	r16, 0x50	; 80
  80045c:	4e 48       	sbci	r20, 0x8E	; 142
  80045e:	53 49       	sbci	r21, 0x93	; 147
  800460:	47 3a       	cpi	r20, 0xA7	; 167
  800462:	00 61       	ori	r16, 0x10	; 16
  800464:	72 63       	ori	r23, 0x32	; 50
  800466:	68 5f       	subi	r22, 0xF8	; 248
  800468:	73 68       	ori	r23, 0x83	; 131
  80046a:	75 74       	andi	r23, 0x45	; 69
  80046c:	64 6f       	ori	r22, 0xF4	; 244
  80046e:	77 6e       	ori	r23, 0xE7	; 231
  800470:	0a 00       	.word	0x000a	; ????
  800472:	66 69       	ori	r22, 0x96	; 150
  800474:	6c 65       	ori	r22, 0x5C	; 92
  800476:	3a 20       	and	r3, r10
  800478:	00 66       	ori	r16, 0x60	; 96
  80047a:	75 6e       	ori	r23, 0xE5	; 229
  80047c:	63 3a       	cpi	r22, 0xA3	; 163
  80047e:	20 00       	.word	0x0020	; ????
  800480:	6c 69       	ori	r22, 0x9C	; 156
  800482:	6e 65       	ori	r22, 0x5E	; 94
  800484:	3a 20       	and	r3, r10
  800486:	00 2f       	mov	r16, r16
  800488:	68 6f       	ori	r22, 0xF8	; 248
  80048a:	6d 65       	ori	r22, 0x5D	; 93
  80048c:	2f 6d       	ori	r18, 0xDF	; 223
  80048e:	69 72       	andi	r22, 0x29	; 41
  800490:	6d 69       	ori	r22, 0x9D	; 157
  800492:	6b 2f       	mov	r22, r27
  800494:	70 72       	andi	r23, 0x20	; 32
  800496:	6f 6a       	ori	r22, 0xAF	; 175
  800498:	65 63       	ori	r22, 0x35	; 53
  80049a:	74 2f       	mov	r23, r20
  80049c:	67 65       	ori	r22, 0x57	; 87
  80049e:	6e 6f       	ori	r22, 0xFE	; 254
  8004a0:	73 2f       	mov	r23, r19
  8004a2:	61 72       	andi	r22, 0x21	; 33
  8004a4:	63 68       	ori	r22, 0x83	; 131
  8004a6:	2f 61       	ori	r18, 0x1F	; 31
  8004a8:	76 72       	andi	r23, 0x26	; 38
  8004aa:	2f 73       	andi	r18, 0x3F	; 63
  8004ac:	72 63       	ori	r23, 0x32	; 50
  8004ae:	2f 61       	ori	r18, 0x1F	; 31
  8004b0:	76 72       	andi	r23, 0x26	; 38
  8004b2:	5f 67       	ori	r21, 0x7F	; 127
  8004b4:	70 69       	ori	r23, 0x90	; 144
  8004b6:	6f 2e       	mov	r6, r31
  8004b8:	63 00       	.word	0x0063	; ????
  8004ba:	27 00       	.word	0x0027	; ????
  8004bc:	87 04       	cpc	r8, r7
  8004be:	a6 44       	sbci	r26, 0x46	; 70
  8004c0:	2c 00       	.word	0x002c	; ????
  8004c2:	87 04       	cpc	r8, r7
  8004c4:	a6 44       	sbci	r26, 0x46	; 70
  8004c6:	31 00       	.word	0x0031	; ????
  8004c8:	87 04       	cpc	r8, r7
  8004ca:	a6 44       	sbci	r26, 0x46	; 70
  8004cc:	36 00       	.word	0x0036	; ????
  8004ce:	87 04       	cpc	r8, r7
  8004d0:	a6 44       	sbci	r26, 0x46	; 70
  8004d2:	2f 68       	ori	r18, 0x8F	; 143
  8004d4:	6f 6d       	ori	r22, 0xDF	; 223
  8004d6:	65 2f       	mov	r22, r21
  8004d8:	6d 69       	ori	r22, 0x9D	; 157
  8004da:	72 6d       	ori	r23, 0xD2	; 210
  8004dc:	69 6b       	ori	r22, 0xB9	; 185
  8004de:	2f 70       	andi	r18, 0x0F	; 15
  8004e0:	72 6f       	ori	r23, 0xF2	; 242
  8004e2:	6a 65       	ori	r22, 0x5A	; 90
  8004e4:	63 74       	andi	r22, 0x43	; 67
  8004e6:	2f 67       	ori	r18, 0x7F	; 127
  8004e8:	65 6e       	ori	r22, 0xE5	; 229
  8004ea:	6f 73       	andi	r22, 0x3F	; 63
  8004ec:	2f 61       	ori	r18, 0x1F	; 31
  8004ee:	72 63       	ori	r23, 0x32	; 50
  8004f0:	68 2f       	mov	r22, r24
  8004f2:	61 76       	andi	r22, 0x61	; 97
  8004f4:	72 2f       	mov	r23, r18
  8004f6:	73 72       	andi	r23, 0x23	; 35
  8004f8:	63 2f       	mov	r22, r19
  8004fa:	61 76       	andi	r22, 0x61	; 97
  8004fc:	72 5f       	subi	r23, 0xF2	; 242
  8004fe:	74 69       	ori	r23, 0x94	; 148
  800500:	6d 65       	ori	r22, 0x5D	; 93
  800502:	72 2e       	mov	r7, r18
  800504:	63 00       	.word	0x0063	; ????
  800506:	38 00       	.word	0x0038	; ????
  800508:	d2 04       	cpc	r13, r2
  80050a:	b5 44       	sbci	r27, 0x45	; 69
  80050c:	61 62       	ori	r22, 0x21	; 33
  80050e:	6f 72       	andi	r22, 0x2F	; 47
  800510:	74 00       	.word	0x0074	; ????
	...

Disassembly of section .text:

00000000 <_stext>:
       0:	0c 94 72 00 	jmp	0xe4	; 0xe4 <__start>
       4:	0c 94 a7 01 	jmp	0x34e	; 0x34e <atmega_int0>
       8:	0c 94 aa 01 	jmp	0x354	; 0x354 <atmega_int1>
       c:	0c 94 ad 01 	jmp	0x35a	; 0x35a <atmega_int2>
      10:	0c 94 b0 01 	jmp	0x360	; 0x360 <atmega_int3>
      14:	0c 94 b3 01 	jmp	0x366	; 0x366 <atmega_int4>
      18:	0c 94 b6 01 	jmp	0x36c	; 0x36c <atmega_int5>
      1c:	0c 94 b9 01 	jmp	0x372	; 0x372 <atmega_int6>
      20:	0c 94 bc 01 	jmp	0x378	; 0x378 <atmega_int7>
      24:	0c 94 bf 01 	jmp	0x37e	; 0x37e <atmega_pcint0>
      28:	0c 94 c2 01 	jmp	0x384	; 0x384 <atmega_pcint1>
      2c:	0c 94 c5 01 	jmp	0x38a	; 0x38a <atmega_pcint2>
      30:	0c 94 c8 01 	jmp	0x390	; 0x390 <atmega_wdt>
      34:	0c 94 cb 01 	jmp	0x396	; 0x396 <atmega_tim2_compa>
      38:	0c 94 ce 01 	jmp	0x39c	; 0x39c <atmega_tim2_compb>
      3c:	0c 94 d1 01 	jmp	0x3a2	; 0x3a2 <atmega_tim2_ovf>
      40:	0c 94 d4 01 	jmp	0x3a8	; 0x3a8 <atmega_tim1_capt>
      44:	0c 94 d7 01 	jmp	0x3ae	; 0x3ae <atmega_tim1_compa>
      48:	0c 94 da 01 	jmp	0x3b4	; 0x3b4 <atmega_tim1_compb>
      4c:	0c 94 dd 01 	jmp	0x3ba	; 0x3ba <atmega_tim1_compc>
      50:	0c 94 e0 01 	jmp	0x3c0	; 0x3c0 <atmega_tim1_ovf>
      54:	0c 94 e3 01 	jmp	0x3c6	; 0x3c6 <atmega_tim0_compa>
      58:	0c 94 e6 01 	jmp	0x3cc	; 0x3cc <atmega_tim0_compb>
      5c:	0c 94 e9 01 	jmp	0x3d2	; 0x3d2 <atmega_tim0_ovf>
      60:	0c 94 ec 01 	jmp	0x3d8	; 0x3d8 <atmega_spi_stc>
      64:	0c 94 ef 01 	jmp	0x3de	; 0x3de <atmega_u0rx>
      68:	0c 94 f2 01 	jmp	0x3e4	; 0x3e4 <atmega_u0dre>
      6c:	0c 94 f5 01 	jmp	0x3ea	; 0x3ea <atmega_u0tx>
      70:	0c 94 f8 01 	jmp	0x3f0	; 0x3f0 <atmega_ana_comp>
      74:	0c 94 fb 01 	jmp	0x3f6	; 0x3f6 <atmega_adc>
      78:	0c 94 fe 01 	jmp	0x3fc	; 0x3fc <atmega_ee_rdy>
      7c:	0c 94 01 02 	jmp	0x402	; 0x402 <atmega_tim3_capt>
      80:	0c 94 04 02 	jmp	0x408	; 0x408 <atmega_tim3_compa>
      84:	0c 94 07 02 	jmp	0x40e	; 0x40e <atmega_tim3_compb>
      88:	0c 94 0a 02 	jmp	0x414	; 0x414 <atmega_tim3_compc>
      8c:	0c 94 0d 02 	jmp	0x41a	; 0x41a <atmega_tim3_ovf>
      90:	0c 94 10 02 	jmp	0x420	; 0x420 <atmega_u1rx>
      94:	0c 94 13 02 	jmp	0x426	; 0x426 <atmega_u1dre>
      98:	0c 94 16 02 	jmp	0x42c	; 0x42c <atmega_u1tx>
      9c:	0c 94 19 02 	jmp	0x432	; 0x432 <atmega_twi>
      a0:	0c 94 1c 02 	jmp	0x438	; 0x438 <atmega_spm_rdy>
      a4:	0c 94 1f 02 	jmp	0x43e	; 0x43e <atmega_tim4_capt>
      a8:	0c 94 22 02 	jmp	0x444	; 0x444 <atmega_tim4_compa>
      ac:	0c 94 25 02 	jmp	0x44a	; 0x44a <atmega_tim4_compb>
      b0:	0c 94 28 02 	jmp	0x450	; 0x450 <atmega_tim4_compc>
      b4:	0c 94 2b 02 	jmp	0x456	; 0x456 <atmega_tim4_ovf>
      b8:	0c 94 2e 02 	jmp	0x45c	; 0x45c <atmega_tim5_capt>
      bc:	0c 94 31 02 	jmp	0x462	; 0x462 <atmega_tim5_compa>
      c0:	0c 94 34 02 	jmp	0x468	; 0x468 <atmega_tim5_compb>
      c4:	0c 94 37 02 	jmp	0x46e	; 0x46e <atmega_tim5_compc>
      c8:	0c 94 3a 02 	jmp	0x474	; 0x474 <atmega_tim5_ovf>
      cc:	0c 94 3d 02 	jmp	0x47a	; 0x47a <atmega_u2rx>
      d0:	0c 94 40 02 	jmp	0x480	; 0x480 <atmega_u2dre>
      d4:	0c 94 43 02 	jmp	0x486	; 0x486 <atmega_u2tx>
      d8:	0c 94 46 02 	jmp	0x48c	; 0x48c <atmega_u3rx>
      dc:	0c 94 49 02 	jmp	0x492	; 0x492 <atmega_u3dre>
      e0:	0c 94 4c 02 	jmp	0x498	; 0x498 <atmega_u3tx>

000000e4 <__start>:
      e4:	0f ef       	ldi	r16, 0xFF	; 255
      e6:	04 bd       	out	0x24, r16	; 36
      e8:	00 e0       	ldi	r16, 0x00	; 0
      ea:	05 bd       	out	0x25, r16	; 37
      ec:	fb cf       	rjmp	.-10     	; 0xe4 <__start>
      ee:	11 27       	eor	r17, r17
      f0:	00 e2       	ldi	r16, 0x20	; 32
      f2:	04 bd       	out	0x24, r16	; 36

000000f4 <start>:
      f4:	10 27       	eor	r17, r16
      f6:	15 bd       	out	0x25, r17	; 37
      f8:	27 e4       	ldi	r18, 0x47	; 71

000000fa <oLoop>:
      fa:	8f ef       	ldi	r24, 0xFF	; 255
      fc:	9f e0       	ldi	r25, 0x0F	; 15

000000fe <iLoop>:
      fe:	01 97       	sbiw	r24, 0x01	; 1
     100:	f1 f7       	brne	.-4      	; 0xfe <iLoop>
     102:	2a 95       	dec	r18
     104:	d1 f7       	brne	.-12     	; 0xfa <oLoop>
     106:	f6 cf       	rjmp	.-20     	; 0xf4 <start>
     108:	f8 94       	cli
     10a:	00 24       	eor	r0, r0
     10c:	11 24       	eor	r1, r1
     10e:	22 24       	eor	r2, r2
     110:	33 24       	eor	r3, r3
     112:	44 24       	eor	r4, r4
     114:	55 24       	eor	r5, r5
     116:	66 24       	eor	r6, r6
     118:	77 24       	eor	r7, r7
     11a:	88 24       	eor	r8, r8
     11c:	99 24       	eor	r9, r9
     11e:	aa 24       	eor	r10, r10
     120:	bb 24       	eor	r11, r11
     122:	cc 24       	eor	r12, r12
     124:	dd 24       	eor	r13, r13
     126:	ee 24       	eor	r14, r14
     128:	ff 24       	eor	r15, r15
     12a:	00 27       	eor	r16, r16
     12c:	11 27       	eor	r17, r17
     12e:	22 27       	eor	r18, r18
     130:	33 27       	eor	r19, r19
     132:	44 27       	eor	r20, r20
     134:	55 27       	eor	r21, r21
     136:	66 27       	eor	r22, r22
     138:	88 27       	eor	r24, r24
     13a:	99 27       	eor	r25, r25
     13c:	aa 27       	eor	r26, r26
     13e:	bb 27       	eor	r27, r27
     140:	cc 27       	eor	r28, r28
     142:	dd 27       	eor	r29, r29
     144:	ee 27       	eor	r30, r30
     146:	ff 27       	eor	r31, r31
     148:	00 e0       	ldi	r16, 0x00	; 0
     14a:	0c bf       	out	0x3c, r16	; 60
     14c:	00 e0       	ldi	r16, 0x00	; 0
     14e:	0b bf       	out	0x3b, r16	; 59
     150:	11 24       	eor	r1, r1
     152:	1f be       	out	0x3f, r1	; 63
     154:	cf ef       	ldi	r28, 0xFF	; 255
     156:	d1 e2       	ldi	r29, 0x21	; 33
     158:	de bf       	out	0x3e, r29	; 62
     15a:	cd bf       	out	0x3d, r28	; 61

0000015c <__do_copy_data>:
     15c:	15 e0       	ldi	r17, 0x05	; 5
     15e:	a0 e0       	ldi	r26, 0x00	; 0
     160:	b2 e0       	ldi	r27, 0x02	; 2
     162:	e8 e7       	ldi	r30, 0x78	; 120
     164:	f4 e4       	ldi	r31, 0x44	; 68
     166:	00 e0       	ldi	r16, 0x00	; 0
     168:	0b bf       	out	0x3b, r16	; 59
     16a:	02 c0       	rjmp	.+4      	; 0x170 <__do_copy_data+0x14>
     16c:	07 90       	elpm	r0, Z+
     16e:	0d 92       	st	X+, r0
     170:	a4 31       	cpi	r26, 0x14	; 20
     172:	b1 07       	cpc	r27, r17
     174:	d9 f7       	brne	.-10     	; 0x16c <__do_copy_data+0x10>

00000176 <__do_clear_bss>:
     176:	17 e0       	ldi	r17, 0x07	; 7
     178:	a4 e1       	ldi	r26, 0x14	; 20
     17a:	b5 e0       	ldi	r27, 0x05	; 5
     17c:	01 c0       	rjmp	.+2      	; 0x180 <__do_clear_bss+0xa>
     17e:	1d 92       	st	X+, r1
     180:	ac 35       	cpi	r26, 0x5C	; 92
     182:	b1 07       	cpc	r27, r17
     184:	e1 f7       	brne	.-8      	; 0x17e <__do_clear_bss+0x8>

00000186 <__do_global_constructors>:
     186:	ec e2       	ldi	r30, 0x2C	; 44
     188:	f5 e0       	ldi	r31, 0x05	; 5
     18a:	25 e0       	ldi	r18, 0x05	; 5
     18c:	00 e0       	ldi	r16, 0x00	; 0
     18e:	0b bf       	out	0x3b, r16	; 59
     190:	0f c0       	rjmp	.+30     	; 0x1b0 <__do_global_constructors+0x2a>
     192:	07 91       	elpm	r16, Z+
     194:	17 91       	elpm	r17, Z+
     196:	ef 93       	push	r30
     198:	ff 93       	push	r31
     19a:	e0 2f       	mov	r30, r16
     19c:	f1 2f       	mov	r31, r17
     19e:	0f 93       	push	r16
     1a0:	1f 93       	push	r17
     1a2:	2f 93       	push	r18
     1a4:	09 95       	icall
     1a6:	2f 91       	pop	r18
     1a8:	1f 91       	pop	r17
     1aa:	0f 91       	pop	r16
     1ac:	ff 91       	pop	r31
     1ae:	ef 91       	pop	r30
     1b0:	ea 33       	cpi	r30, 0x3A	; 58
     1b2:	f2 07       	cpc	r31, r18
     1b4:	71 f7       	brne	.-36     	; 0x192 <__do_global_constructors+0xc>
     1b6:	0e 94 1d 1d 	call	0x3a3a	; 0x3a3a <main>
     1ba:	0c 94 95 1e 	jmp	0x3d2a	; 0x3d2a <end_of_programm>
     1be:	0c 94 bf 0c 	jmp	0x197e	; 0x197e <_ZN5genos9directory7iterateEPcjPNS_7openresE>
     1c2:	0c 94 95 1c 	jmp	0x392a	; 0x392a <_ZN12avr_gpio_pin6toggleEv>
     1c6:	0c 94 52 13 	jmp	0x26a4	; 0x26a4 <_ZN5genos7schedee14signal_handlerEi>
     1ca:	0c 94 33 0c 	jmp	0x1866	; 0x1866 <_GLOBAL__sub_I__Z16change_directoryiPPc>
     1ce:	0c 94 d0 1d 	jmp	0x3ba0	; 0x3ba0 <_ZN12avr_gpio_pin3getEv>
     1d2:	0c 94 f3 0c 	jmp	0x19e6	; 0x19e6 <_ZN5genos9directory6rmnodeEPKcPNS_7openresE>
     1d6:	0c 94 f9 18 	jmp	0x31f2	; 0x31f2 <_ZN5genos3avr5timerIhP11timer8_regsE11set_divcodeEh>
     1da:	0c 94 1c 19 	jmp	0x3238	; 0x3238 <_ZN5genos3avr5timerIhP11timer8_regsE14irq_ovf_enableEb>
     1de:	0c 94 79 18 	jmp	0x30f2	; 0x30f2 <_ZN5genos3avr5timerIjP12timer16_regsE15set_ovf_handlerEPFvPvES5_>
     1e2:	0c 94 e8 07 	jmp	0xfd0	; 0xfd0 <system_tick>
     1e6:	0c 94 aa 14 	jmp	0x2954	; 0x2954 <_ZN16avr_usart_device8recvbyteEv>
     1ea:	0c 94 09 0a 	jmp	0x1412	; 0x1412 <_ZN5genos11coopschedee7executeEv>
     1ee:	0c 94 d1 0b 	jmp	0x17a2	; 0x17a2 <_Z16change_directoryiPPc>
     1f2:	0c 94 49 12 	jmp	0x2492	; 0x2492 <_ZL7procctriPPc>
     1f6:	0c 94 3d 19 	jmp	0x327a	; 0x327a <_ZN5genos3avr5timerIhP11timer8_regsE15set_ovf_handlerEPFvPvES5_>
     1fa:	0c 94 32 06 	jmp	0xc64	; 0xc64 <irqtable_stub>
     1fe:	0c 94 28 15 	jmp	0x2a50	; 0x2a50 <_ZL12_dre_handlerPv>
     202:	0c 94 1b 0a 	jmp	0x1436	; 0x1436 <_ZN5genos11coopschedee8displaceEv>
     206:	0c 94 8a 08 	jmp	0x1114	; 0x1114 <_GLOBAL__sub_I_utildata>
     20a:	0c 94 5f 19 	jmp	0x32be	; 0x32be <_ZN5genos3avr5timerIhP11timer8_regsE4typeEv>
     20e:	0c 94 70 0d 	jmp	0x1ae0	; 0x1ae0 <_ZN5genos7resmngr5mkdirEPKc>
     212:	0c 94 9b 18 	jmp	0x3136	; 0x3136 <_ZN5genos3avr5timerIjP12timer16_regsE4typeEv>
     216:	0c 94 3b 14 	jmp	0x2876	; 0x2876 <_ZN16avr_usart_device7ctrirqsEh>
     21a:	0c 94 29 1c 	jmp	0x3852	; 0x3852 <usart0_diag_putchar>
     21e:	0c 94 d8 14 	jmp	0x29b0	; 0x29b0 <_ZN16avr_usart_device5cantxEv>
     222:	0c 94 6f 1e 	jmp	0x3cde	; 0x3cde <_GLOBAL__sub_I_board_sysled>
     226:	0c 94 84 1d 	jmp	0x3b08	; 0x3b08 <_ZN12avr_gpio_pin5setupEm>
     22a:	0c 94 c7 06 	jmp	0xd8e	; 0xd8e <_Z22print_irqtable_commandiPPc>
     22e:	0c 94 b7 05 	jmp	0xb6e	; 0xb6e <_GLOBAL__sub_I__ZN5genos7devmngrE>
     232:	0c 94 fd 17 	jmp	0x2ffa	; 0x2ffa <_ZN5genos3avr5timerIjP12timer16_regsE11set_dividerEj>
     236:	0c 94 05 13 	jmp	0x260a	; 0x260a <_GLOBAL__sub_I_runlist>
     23a:	0c 94 9d 0c 	jmp	0x193a	; 0x193a <_ZN5genos8resource4openEPNS_7openresE>
     23e:	0c 94 b0 0c 	jmp	0x1960	; 0x1960 <_ZN5genos8resource7gettypeEv>
     242:	0c 94 ac 18 	jmp	0x3158	; 0x3158 <_ZN5genos3avr5timerIjP12timer16_regsE7value16Ev>
     246:	0c 94 8e 0c 	jmp	0x191c	; 0x191c <_ZN5genos8resource7releaseEv>
     24a:	0c 94 8b 11 	jmp	0x2316	; 0x2316 <_ZL10ps_commandv>
     24e:	0c 94 83 0d 	jmp	0x1b06	; 0x1b06 <_ZN5genos7resmngr5rmdirEPKc>
     252:	0c 94 70 19 	jmp	0x32e0	; 0x32e0 <_ZN5genos3avr5timerIhP11timer8_regsE7value16Ev>
     256:	0c 94 50 15 	jmp	0x2aa0	; 0x2aa0 <_ZL11_tx_handlerPv>
     25a:	0c 94 5d 05 	jmp	0xaba	; 0xaba <diag_write_common>
     25e:	0c 94 58 18 	jmp	0x30b0	; 0x30b0 <_ZN5genos3avr5timerIjP12timer16_regsE14irq_ovf_enableEb>
     262:	0c 94 35 18 	jmp	0x306a	; 0x306a <_ZN5genos3avr5timerIjP12timer16_regsE11set_divcodeEh>
     266:	0c 94 0d 0f 	jmp	0x1e1a	; 0x1e1a <__cxa_pure_virtual>
     26a:	0c 94 be 14 	jmp	0x297c	; 0x297c <_ZN16avr_usart_device8sendbyteEi>
     26e:	0c 94 32 1d 	jmp	0x3a64	; 0x3a64 <_ZN8gpio_pin9alternateEh>
     272:	0c 94 ec 14 	jmp	0x29d8	; 0x29d8 <_ZN16avr_usart_device5hasrxEv>
     276:	0c 94 b0 15 	jmp	0x2b60	; 0x2b60 <_ZN16avr_usart_device5setupElchh>
     27a:	0c 94 c1 18 	jmp	0x3182	; 0x3182 <_ZN5genos3avr5timerIhP11timer8_regsE11set_dividerEj>
     27e:	0c 94 9c 07 	jmp	0xf38	; 0xf38 <_GLOBAL__sub_I___interrupt_context>
     282:	0c 94 2d 0d 	jmp	0x1a5a	; 0x1a5a <_ZN5genos15named_node_list7iterateEPcjPNS_7openresE>
     286:	0c 94 00 15 	jmp	0x2a00	; 0x2a00 <_ZL11_rx_handlerPv>
     28a:	0c 94 0f 0e 	jmp	0x1c1e	; 0x1c1e <_ZN5genos14device_manager4openEPKcPNS_7openresE>
     28e:	0c 94 86 19 	jmp	0x330c	; 0x330c <_GLOBAL__sub_I__ZN5genos3avr6timer0E>
     292:	0c 94 dc 0c 	jmp	0x19b8	; 0x19b8 <_ZN5genos9directory6mknodeEPKcPNS_7openresE>
     296:	0c 94 e4 0b 	jmp	0x17c8	; 0x17c8 <_Z14list_directoryiPPc>
     29a:	0c 94 b4 1d 	jmp	0x3b68	; 0x3b68 <_ZN12avr_gpio_pin3setEh>
     29e:	0c 94 0a 0d 	jmp	0x1a14	; 0x1a14 <_ZN5genos9directory7gettypeEv>
     2a2:	0c 94 36 0a 	jmp	0x146c	; 0x146c <_ZN5genos11coopschedee8finalizeEv>
     2a6:	0c 94 ee 13 	jmp	0x27dc	; 0x27dc <_ZN16avr_usart_device6enableEi>

000002aa <do_irq>:
     2aa:	cf 93       	push	r28
     2ac:	df 93       	push	r29
     2ae:	1f 92       	push	r1
     2b0:	cd b7       	in	r28, 0x3d	; 61
     2b2:	de b7       	in	r29, 0x3e	; 62
     2b4:	89 83       	std	Y+1, r24	; 0x01
     2b6:	80 91 97 05 	lds	r24, 0x0597	; 0x800597 <__interrupt_context>
     2ba:	8f 5f       	subi	r24, 0xFF	; 255
     2bc:	80 93 97 05 	sts	0x0597, r24	; 0x800597 <__interrupt_context>
     2c0:	89 81       	ldd	r24, Y+1	; 0x01
     2c2:	28 2f       	mov	r18, r24
     2c4:	30 e0       	ldi	r19, 0x00	; 0
     2c6:	c9 01       	movw	r24, r18
     2c8:	88 0f       	add	r24, r24
     2ca:	99 1f       	adc	r25, r25
     2cc:	82 0f       	add	r24, r18
     2ce:	93 1f       	adc	r25, r19
     2d0:	88 0f       	add	r24, r24
     2d2:	99 1f       	adc	r25, r25
     2d4:	84 56       	subi	r24, 0x64	; 100
     2d6:	9a 4f       	sbci	r25, 0xFA	; 250
     2d8:	fc 01       	movw	r30, r24
     2da:	80 81       	ld	r24, Z
     2dc:	91 81       	ldd	r25, Z+1	; 0x01
     2de:	ac 01       	movw	r20, r24
     2e0:	4f 5f       	subi	r20, 0xFF	; 255
     2e2:	5f 4f       	sbci	r21, 0xFF	; 255
     2e4:	c9 01       	movw	r24, r18
     2e6:	88 0f       	add	r24, r24
     2e8:	99 1f       	adc	r25, r25
     2ea:	82 0f       	add	r24, r18
     2ec:	93 1f       	adc	r25, r19
     2ee:	88 0f       	add	r24, r24
     2f0:	99 1f       	adc	r25, r25
     2f2:	84 56       	subi	r24, 0x64	; 100
     2f4:	9a 4f       	sbci	r25, 0xFA	; 250
     2f6:	fc 01       	movw	r30, r24
     2f8:	51 83       	std	Z+1, r21	; 0x01
     2fa:	40 83       	st	Z, r20
     2fc:	89 81       	ldd	r24, Y+1	; 0x01
     2fe:	28 2f       	mov	r18, r24
     300:	30 e0       	ldi	r19, 0x00	; 0
     302:	c9 01       	movw	r24, r18
     304:	88 0f       	add	r24, r24
     306:	99 1f       	adc	r25, r25
     308:	82 0f       	add	r24, r18
     30a:	93 1f       	adc	r25, r19
     30c:	88 0f       	add	r24, r24
     30e:	99 1f       	adc	r25, r25
     310:	88 56       	subi	r24, 0x68	; 104
     312:	9a 4f       	sbci	r25, 0xFA	; 250
     314:	fc 01       	movw	r30, r24
     316:	40 81       	ld	r20, Z
     318:	51 81       	ldd	r21, Z+1	; 0x01
     31a:	89 81       	ldd	r24, Y+1	; 0x01
     31c:	28 2f       	mov	r18, r24
     31e:	30 e0       	ldi	r19, 0x00	; 0
     320:	c9 01       	movw	r24, r18
     322:	88 0f       	add	r24, r24
     324:	99 1f       	adc	r25, r25
     326:	82 0f       	add	r24, r18
     328:	93 1f       	adc	r25, r19
     32a:	88 0f       	add	r24, r24
     32c:	99 1f       	adc	r25, r25
     32e:	86 56       	subi	r24, 0x66	; 102
     330:	9a 4f       	sbci	r25, 0xFA	; 250
     332:	fc 01       	movw	r30, r24
     334:	80 81       	ld	r24, Z
     336:	91 81       	ldd	r25, Z+1	; 0x01
     338:	fa 01       	movw	r30, r20
     33a:	19 95       	eicall
     33c:	80 91 97 05 	lds	r24, 0x0597	; 0x800597 <__interrupt_context>
     340:	81 50       	subi	r24, 0x01	; 1
     342:	80 93 97 05 	sts	0x0597, r24	; 0x800597 <__interrupt_context>
     346:	0f 90       	pop	r0
     348:	df 91       	pop	r29
     34a:	cf 91       	pop	r28
     34c:	08 95       	ret

0000034e <atmega_int0>:
     34e:	8f 93       	push	r24
     350:	80 e0       	ldi	r24, 0x00	; 0
     352:	a5 c0       	rjmp	.+330    	; 0x49e <excpt_common>

00000354 <atmega_int1>:
     354:	8f 93       	push	r24
     356:	81 e0       	ldi	r24, 0x01	; 1
     358:	a2 c0       	rjmp	.+324    	; 0x49e <excpt_common>

0000035a <atmega_int2>:
     35a:	8f 93       	push	r24
     35c:	82 e0       	ldi	r24, 0x02	; 2
     35e:	9f c0       	rjmp	.+318    	; 0x49e <excpt_common>

00000360 <atmega_int3>:
     360:	8f 93       	push	r24
     362:	83 e0       	ldi	r24, 0x03	; 3
     364:	9c c0       	rjmp	.+312    	; 0x49e <excpt_common>

00000366 <atmega_int4>:
     366:	8f 93       	push	r24
     368:	84 e0       	ldi	r24, 0x04	; 4
     36a:	99 c0       	rjmp	.+306    	; 0x49e <excpt_common>

0000036c <atmega_int5>:
     36c:	8f 93       	push	r24
     36e:	85 e0       	ldi	r24, 0x05	; 5
     370:	96 c0       	rjmp	.+300    	; 0x49e <excpt_common>

00000372 <atmega_int6>:
     372:	8f 93       	push	r24
     374:	86 e0       	ldi	r24, 0x06	; 6
     376:	93 c0       	rjmp	.+294    	; 0x49e <excpt_common>

00000378 <atmega_int7>:
     378:	8f 93       	push	r24
     37a:	87 e0       	ldi	r24, 0x07	; 7
     37c:	90 c0       	rjmp	.+288    	; 0x49e <excpt_common>

0000037e <atmega_pcint0>:
     37e:	8f 93       	push	r24
     380:	88 e0       	ldi	r24, 0x08	; 8
     382:	8d c0       	rjmp	.+282    	; 0x49e <excpt_common>

00000384 <atmega_pcint1>:
     384:	8f 93       	push	r24
     386:	89 e0       	ldi	r24, 0x09	; 9
     388:	8a c0       	rjmp	.+276    	; 0x49e <excpt_common>

0000038a <atmega_pcint2>:
     38a:	8f 93       	push	r24
     38c:	8a e0       	ldi	r24, 0x0A	; 10
     38e:	87 c0       	rjmp	.+270    	; 0x49e <excpt_common>

00000390 <atmega_wdt>:
     390:	8f 93       	push	r24
     392:	8b e0       	ldi	r24, 0x0B	; 11
     394:	84 c0       	rjmp	.+264    	; 0x49e <excpt_common>

00000396 <atmega_tim2_compa>:
     396:	8f 93       	push	r24
     398:	8c e0       	ldi	r24, 0x0C	; 12
     39a:	81 c0       	rjmp	.+258    	; 0x49e <excpt_common>

0000039c <atmega_tim2_compb>:
     39c:	8f 93       	push	r24
     39e:	8d e0       	ldi	r24, 0x0D	; 13
     3a0:	7e c0       	rjmp	.+252    	; 0x49e <excpt_common>

000003a2 <atmega_tim2_ovf>:
     3a2:	8f 93       	push	r24
     3a4:	8e e0       	ldi	r24, 0x0E	; 14
     3a6:	7b c0       	rjmp	.+246    	; 0x49e <excpt_common>

000003a8 <atmega_tim1_capt>:
     3a8:	8f 93       	push	r24
     3aa:	8f e0       	ldi	r24, 0x0F	; 15
     3ac:	78 c0       	rjmp	.+240    	; 0x49e <excpt_common>

000003ae <atmega_tim1_compa>:
     3ae:	8f 93       	push	r24
     3b0:	80 e1       	ldi	r24, 0x10	; 16
     3b2:	75 c0       	rjmp	.+234    	; 0x49e <excpt_common>

000003b4 <atmega_tim1_compb>:
     3b4:	8f 93       	push	r24
     3b6:	81 e1       	ldi	r24, 0x11	; 17
     3b8:	72 c0       	rjmp	.+228    	; 0x49e <excpt_common>

000003ba <atmega_tim1_compc>:
     3ba:	8f 93       	push	r24
     3bc:	82 e1       	ldi	r24, 0x12	; 18
     3be:	6f c0       	rjmp	.+222    	; 0x49e <excpt_common>

000003c0 <atmega_tim1_ovf>:
     3c0:	8f 93       	push	r24
     3c2:	83 e1       	ldi	r24, 0x13	; 19
     3c4:	6c c0       	rjmp	.+216    	; 0x49e <excpt_common>

000003c6 <atmega_tim0_compa>:
     3c6:	8f 93       	push	r24
     3c8:	84 e1       	ldi	r24, 0x14	; 20
     3ca:	69 c0       	rjmp	.+210    	; 0x49e <excpt_common>

000003cc <atmega_tim0_compb>:
     3cc:	8f 93       	push	r24
     3ce:	85 e1       	ldi	r24, 0x15	; 21
     3d0:	66 c0       	rjmp	.+204    	; 0x49e <excpt_common>

000003d2 <atmega_tim0_ovf>:
     3d2:	8f 93       	push	r24
     3d4:	86 e1       	ldi	r24, 0x16	; 22
     3d6:	63 c0       	rjmp	.+198    	; 0x49e <excpt_common>

000003d8 <atmega_spi_stc>:
     3d8:	8f 93       	push	r24
     3da:	87 e1       	ldi	r24, 0x17	; 23
     3dc:	60 c0       	rjmp	.+192    	; 0x49e <excpt_common>

000003de <atmega_u0rx>:
     3de:	8f 93       	push	r24
     3e0:	88 e1       	ldi	r24, 0x18	; 24
     3e2:	5d c0       	rjmp	.+186    	; 0x49e <excpt_common>

000003e4 <atmega_u0dre>:
     3e4:	8f 93       	push	r24
     3e6:	89 e1       	ldi	r24, 0x19	; 25
     3e8:	5a c0       	rjmp	.+180    	; 0x49e <excpt_common>

000003ea <atmega_u0tx>:
     3ea:	8f 93       	push	r24
     3ec:	8a e1       	ldi	r24, 0x1A	; 26
     3ee:	57 c0       	rjmp	.+174    	; 0x49e <excpt_common>

000003f0 <atmega_ana_comp>:
     3f0:	8f 93       	push	r24
     3f2:	8b e1       	ldi	r24, 0x1B	; 27
     3f4:	54 c0       	rjmp	.+168    	; 0x49e <excpt_common>

000003f6 <atmega_adc>:
     3f6:	8f 93       	push	r24
     3f8:	8c e1       	ldi	r24, 0x1C	; 28
     3fa:	51 c0       	rjmp	.+162    	; 0x49e <excpt_common>

000003fc <atmega_ee_rdy>:
     3fc:	8f 93       	push	r24
     3fe:	8d e1       	ldi	r24, 0x1D	; 29
     400:	4e c0       	rjmp	.+156    	; 0x49e <excpt_common>

00000402 <atmega_tim3_capt>:
     402:	8f 93       	push	r24
     404:	8e e1       	ldi	r24, 0x1E	; 30
     406:	4b c0       	rjmp	.+150    	; 0x49e <excpt_common>

00000408 <atmega_tim3_compa>:
     408:	8f 93       	push	r24
     40a:	8f e1       	ldi	r24, 0x1F	; 31
     40c:	48 c0       	rjmp	.+144    	; 0x49e <excpt_common>

0000040e <atmega_tim3_compb>:
     40e:	8f 93       	push	r24
     410:	80 e2       	ldi	r24, 0x20	; 32
     412:	45 c0       	rjmp	.+138    	; 0x49e <excpt_common>

00000414 <atmega_tim3_compc>:
     414:	8f 93       	push	r24
     416:	81 e2       	ldi	r24, 0x21	; 33
     418:	42 c0       	rjmp	.+132    	; 0x49e <excpt_common>

0000041a <atmega_tim3_ovf>:
     41a:	8f 93       	push	r24
     41c:	82 e2       	ldi	r24, 0x22	; 34
     41e:	3f c0       	rjmp	.+126    	; 0x49e <excpt_common>

00000420 <atmega_u1rx>:
     420:	8f 93       	push	r24
     422:	83 e2       	ldi	r24, 0x23	; 35
     424:	3c c0       	rjmp	.+120    	; 0x49e <excpt_common>

00000426 <atmega_u1dre>:
     426:	8f 93       	push	r24
     428:	84 e2       	ldi	r24, 0x24	; 36
     42a:	39 c0       	rjmp	.+114    	; 0x49e <excpt_common>

0000042c <atmega_u1tx>:
     42c:	8f 93       	push	r24
     42e:	85 e2       	ldi	r24, 0x25	; 37
     430:	36 c0       	rjmp	.+108    	; 0x49e <excpt_common>

00000432 <atmega_twi>:
     432:	8f 93       	push	r24
     434:	86 e2       	ldi	r24, 0x26	; 38
     436:	33 c0       	rjmp	.+102    	; 0x49e <excpt_common>

00000438 <atmega_spm_rdy>:
     438:	8f 93       	push	r24
     43a:	87 e2       	ldi	r24, 0x27	; 39
     43c:	30 c0       	rjmp	.+96     	; 0x49e <excpt_common>

0000043e <atmega_tim4_capt>:
     43e:	8f 93       	push	r24
     440:	88 e2       	ldi	r24, 0x28	; 40
     442:	2d c0       	rjmp	.+90     	; 0x49e <excpt_common>

00000444 <atmega_tim4_compa>:
     444:	8f 93       	push	r24
     446:	89 e2       	ldi	r24, 0x29	; 41
     448:	2a c0       	rjmp	.+84     	; 0x49e <excpt_common>

0000044a <atmega_tim4_compb>:
     44a:	8f 93       	push	r24
     44c:	8a e2       	ldi	r24, 0x2A	; 42
     44e:	27 c0       	rjmp	.+78     	; 0x49e <excpt_common>

00000450 <atmega_tim4_compc>:
     450:	8f 93       	push	r24
     452:	8b e2       	ldi	r24, 0x2B	; 43
     454:	24 c0       	rjmp	.+72     	; 0x49e <excpt_common>

00000456 <atmega_tim4_ovf>:
     456:	8f 93       	push	r24
     458:	8c e2       	ldi	r24, 0x2C	; 44
     45a:	21 c0       	rjmp	.+66     	; 0x49e <excpt_common>

0000045c <atmega_tim5_capt>:
     45c:	8f 93       	push	r24
     45e:	8d e2       	ldi	r24, 0x2D	; 45
     460:	1e c0       	rjmp	.+60     	; 0x49e <excpt_common>

00000462 <atmega_tim5_compa>:
     462:	8f 93       	push	r24
     464:	8e e2       	ldi	r24, 0x2E	; 46
     466:	1b c0       	rjmp	.+54     	; 0x49e <excpt_common>

00000468 <atmega_tim5_compb>:
     468:	8f 93       	push	r24
     46a:	8f e2       	ldi	r24, 0x2F	; 47
     46c:	18 c0       	rjmp	.+48     	; 0x49e <excpt_common>

0000046e <atmega_tim5_compc>:
     46e:	8f 93       	push	r24
     470:	80 e3       	ldi	r24, 0x30	; 48
     472:	15 c0       	rjmp	.+42     	; 0x49e <excpt_common>

00000474 <atmega_tim5_ovf>:
     474:	8f 93       	push	r24
     476:	81 e3       	ldi	r24, 0x31	; 49
     478:	12 c0       	rjmp	.+36     	; 0x49e <excpt_common>

0000047a <atmega_u2rx>:
     47a:	8f 93       	push	r24
     47c:	82 e3       	ldi	r24, 0x32	; 50
     47e:	0f c0       	rjmp	.+30     	; 0x49e <excpt_common>

00000480 <atmega_u2dre>:
     480:	8f 93       	push	r24
     482:	83 e3       	ldi	r24, 0x33	; 51
     484:	0c c0       	rjmp	.+24     	; 0x49e <excpt_common>

00000486 <atmega_u2tx>:
     486:	8f 93       	push	r24
     488:	84 e3       	ldi	r24, 0x34	; 52
     48a:	09 c0       	rjmp	.+18     	; 0x49e <excpt_common>

0000048c <atmega_u3rx>:
     48c:	8f 93       	push	r24
     48e:	85 e3       	ldi	r24, 0x35	; 53
     490:	06 c0       	rjmp	.+12     	; 0x49e <excpt_common>

00000492 <atmega_u3dre>:
     492:	8f 93       	push	r24
     494:	86 e3       	ldi	r24, 0x36	; 54
     496:	03 c0       	rjmp	.+6      	; 0x49e <excpt_common>

00000498 <atmega_u3tx>:
     498:	8f 93       	push	r24
     49a:	87 e3       	ldi	r24, 0x37	; 55
     49c:	00 c0       	rjmp	.+0      	; 0x49e <excpt_common>

0000049e <excpt_common>:
     49e:	9f 93       	push	r25
     4a0:	9f b7       	in	r25, 0x3f	; 63
     4a2:	9f 93       	push	r25
     4a4:	0f 92       	push	r0
     4a6:	1f 92       	push	r1
     4a8:	11 24       	eor	r1, r1
     4aa:	2f 92       	push	r2
     4ac:	3f 92       	push	r3
     4ae:	4f 92       	push	r4
     4b0:	5f 92       	push	r5
     4b2:	6f 92       	push	r6
     4b4:	7f 92       	push	r7
     4b6:	8f 92       	push	r8
     4b8:	9f 92       	push	r9
     4ba:	af 92       	push	r10
     4bc:	bf 92       	push	r11
     4be:	cf 92       	push	r12
     4c0:	df 92       	push	r13
     4c2:	ef 92       	push	r14
     4c4:	ff 92       	push	r15
     4c6:	0f 93       	push	r16
     4c8:	1f 93       	push	r17
     4ca:	2f 93       	push	r18
     4cc:	3f 93       	push	r19
     4ce:	4f 93       	push	r20
     4d0:	5f 93       	push	r21
     4d2:	6f 93       	push	r22
     4d4:	7f 93       	push	r23
     4d6:	cf 93       	push	r28
     4d8:	df 93       	push	r29
     4da:	ef 93       	push	r30
     4dc:	ff 93       	push	r31
     4de:	af 93       	push	r26
     4e0:	bf 93       	push	r27
     4e2:	e3 de       	rcall	.-570    	; 0x2aa <do_irq>
     4e4:	bf 91       	pop	r27
     4e6:	af 91       	pop	r26
     4e8:	ff 91       	pop	r31
     4ea:	ef 91       	pop	r30
     4ec:	df 91       	pop	r29
     4ee:	cf 91       	pop	r28
     4f0:	7f 91       	pop	r23
     4f2:	6f 91       	pop	r22
     4f4:	5f 91       	pop	r21
     4f6:	4f 91       	pop	r20
     4f8:	3f 91       	pop	r19
     4fa:	2f 91       	pop	r18
     4fc:	1f 91       	pop	r17
     4fe:	0f 91       	pop	r16
     500:	ff 90       	pop	r15
     502:	ef 90       	pop	r14
     504:	df 90       	pop	r13
     506:	cf 90       	pop	r12
     508:	bf 90       	pop	r11
     50a:	af 90       	pop	r10
     50c:	9f 90       	pop	r9
     50e:	8f 90       	pop	r8
     510:	7f 90       	pop	r7
     512:	6f 90       	pop	r6
     514:	5f 90       	pop	r5
     516:	4f 90       	pop	r4
     518:	3f 90       	pop	r3
     51a:	2f 90       	pop	r2
     51c:	1f 90       	pop	r1
     51e:	0f 90       	pop	r0
     520:	8f 91       	pop	r24
     522:	8f 77       	andi	r24, 0x7F	; 127
     524:	8f bf       	out	0x3f, r24	; 63
     526:	9f 91       	pop	r25
     528:	8f 91       	pop	r24
     52a:	18 95       	reti

0000052c <__ctors_start>:
     52c:	b7 05       	cpc	r27, r7
     52e:	9c 07       	cpc	r25, r28
     530:	8a 08       	sbc	r8, r10
     532:	33 0c       	add	r3, r3
     534:	05 13       	cpse	r16, r21
     536:	86 19       	sub	r24, r6
     538:	6f 1e       	adc	r6, r31

0000053a <__ctors_end>:
     53a:	cf 93       	push	r28
     53c:	df 93       	push	r29
     53e:	d9 2f       	mov	r29, r25
     540:	c8 2f       	mov	r28, r24
     542:	09 92       	st	Y+, r0
     544:	19 92       	st	Y+, r1
     546:	29 92       	st	Y+, r2
     548:	39 92       	st	Y+, r3
     54a:	49 92       	st	Y+, r4
     54c:	59 92       	st	Y+, r5
     54e:	69 92       	st	Y+, r6
     550:	79 92       	st	Y+, r7
     552:	89 92       	st	Y+, r8
     554:	99 92       	st	Y+, r9
     556:	a9 92       	st	Y+, r10
     558:	b9 92       	st	Y+, r11
     55a:	c9 92       	st	Y+, r12
     55c:	d9 92       	st	Y+, r13
     55e:	e9 92       	st	Y+, r14
     560:	f9 92       	st	Y+, r15
     562:	09 93       	st	Y+, r16
     564:	19 93       	st	Y+, r17
     566:	29 93       	st	Y+, r18
     568:	39 93       	st	Y+, r19
     56a:	49 93       	st	Y+, r20
     56c:	59 93       	st	Y+, r21
     56e:	69 93       	st	Y+, r22
     570:	79 93       	st	Y+, r23
     572:	89 93       	st	Y+, r24
     574:	99 93       	st	Y+, r25
     576:	a9 93       	st	Y+, r26
     578:	b9 93       	st	Y+, r27
     57a:	bf 91       	pop	r27
     57c:	af 91       	pop	r26
     57e:	a9 93       	st	Y+, r26
     580:	b9 93       	st	Y+, r27
     582:	e9 93       	st	Y+, r30
     584:	f9 93       	st	Y+, r31
     586:	0f 90       	pop	r0
     588:	0f 91       	pop	r16
     58a:	0f 90       	pop	r0
     58c:	09 92       	st	Y+, r0
     58e:	09 93       	st	Y+, r16
     590:	0d b6       	in	r0, 0x3d	; 61
     592:	09 92       	st	Y+, r0
     594:	0e b6       	in	r0, 0x3e	; 62
     596:	09 92       	st	Y+, r0
     598:	0f b6       	in	r0, 0x3f	; 63
     59a:	09 92       	st	Y+, r0
     59c:	d7 2f       	mov	r29, r23
     59e:	c6 2f       	mov	r28, r22
     5a0:	0c a0       	ldd	r0, Y+36	; 0x24
     5a2:	0f be       	out	0x3f, r0	; 63
     5a4:	0a a0       	ldd	r0, Y+34	; 0x22
     5a6:	0d be       	out	0x3d, r0	; 61
     5a8:	0b a0       	ldd	r0, Y+35	; 0x23
     5aa:	0e be       	out	0x3e, r0	; 62
     5ac:	08 a0       	ldd	r0, Y+32	; 0x20
     5ae:	0f 92       	push	r0
     5b0:	09 a0       	ldd	r0, Y+33	; 0x21
     5b2:	0f 92       	push	r0
     5b4:	00 e0       	ldi	r16, 0x00	; 0
     5b6:	0f 93       	push	r16
     5b8:	09 90       	ld	r0, Y+
     5ba:	19 90       	ld	r1, Y+
     5bc:	29 90       	ld	r2, Y+
     5be:	39 90       	ld	r3, Y+
     5c0:	49 90       	ld	r4, Y+
     5c2:	59 90       	ld	r5, Y+
     5c4:	69 90       	ld	r6, Y+
     5c6:	79 90       	ld	r7, Y+
     5c8:	89 90       	ld	r8, Y+
     5ca:	99 90       	ld	r9, Y+
     5cc:	a9 90       	ld	r10, Y+
     5ce:	b9 90       	ld	r11, Y+
     5d0:	c9 90       	ld	r12, Y+
     5d2:	d9 90       	ld	r13, Y+
     5d4:	e9 90       	ld	r14, Y+
     5d6:	f9 90       	ld	r15, Y+
     5d8:	09 91       	ld	r16, Y+
     5da:	19 91       	ld	r17, Y+
     5dc:	29 91       	ld	r18, Y+
     5de:	39 91       	ld	r19, Y+
     5e0:	49 91       	ld	r20, Y+
     5e2:	59 91       	ld	r21, Y+
     5e4:	69 91       	ld	r22, Y+
     5e6:	79 91       	ld	r23, Y+
     5e8:	89 91       	ld	r24, Y+
     5ea:	99 91       	ld	r25, Y+
     5ec:	a9 91       	ld	r26, Y+
     5ee:	b9 91       	ld	r27, Y+
     5f0:	af 93       	push	r26
     5f2:	bf 93       	push	r27
     5f4:	a9 91       	ld	r26, Y+
     5f6:	b9 91       	ld	r27, Y+
     5f8:	e9 91       	ld	r30, Y+
     5fa:	f9 91       	ld	r31, Y+
     5fc:	ca 2f       	mov	r28, r26
     5fe:	db 2f       	mov	r29, r27
     600:	bf 91       	pop	r27
     602:	af 91       	pop	r26
     604:	08 95       	ret

00000606 <context_load>:
     606:	d9 2f       	mov	r29, r25
     608:	c8 2f       	mov	r28, r24
     60a:	0c a0       	ldd	r0, Y+36	; 0x24
     60c:	0f be       	out	0x3f, r0	; 63
     60e:	0a a0       	ldd	r0, Y+34	; 0x22
     610:	0d be       	out	0x3d, r0	; 61
     612:	0b a0       	ldd	r0, Y+35	; 0x23
     614:	0e be       	out	0x3e, r0	; 62
     616:	08 a0       	ldd	r0, Y+32	; 0x20
     618:	0f 92       	push	r0
     61a:	09 a0       	ldd	r0, Y+33	; 0x21
     61c:	0f 92       	push	r0
     61e:	00 e0       	ldi	r16, 0x00	; 0
     620:	0f 93       	push	r16
     622:	09 90       	ld	r0, Y+
     624:	19 90       	ld	r1, Y+
     626:	29 90       	ld	r2, Y+
     628:	39 90       	ld	r3, Y+
     62a:	49 90       	ld	r4, Y+
     62c:	59 90       	ld	r5, Y+
     62e:	69 90       	ld	r6, Y+
     630:	79 90       	ld	r7, Y+
     632:	89 90       	ld	r8, Y+
     634:	99 90       	ld	r9, Y+
     636:	a9 90       	ld	r10, Y+
     638:	b9 90       	ld	r11, Y+
     63a:	c9 90       	ld	r12, Y+
     63c:	d9 90       	ld	r13, Y+
     63e:	e9 90       	ld	r14, Y+
     640:	f9 90       	ld	r15, Y+
     642:	09 91       	ld	r16, Y+
     644:	19 91       	ld	r17, Y+
     646:	29 91       	ld	r18, Y+
     648:	39 91       	ld	r19, Y+
     64a:	49 91       	ld	r20, Y+
     64c:	59 91       	ld	r21, Y+
     64e:	69 91       	ld	r22, Y+
     650:	79 91       	ld	r23, Y+
     652:	89 91       	ld	r24, Y+
     654:	99 91       	ld	r25, Y+
     656:	a9 91       	ld	r26, Y+
     658:	b9 91       	ld	r27, Y+
     65a:	af 93       	push	r26
     65c:	bf 93       	push	r27
     65e:	a9 91       	ld	r26, Y+
     660:	b9 91       	ld	r27, Y+
     662:	e9 91       	ld	r30, Y+
     664:	f9 91       	ld	r31, Y+
     666:	ca 2f       	mov	r28, r26
     668:	db 2f       	mov	r29, r27
     66a:	bf 91       	pop	r27
     66c:	af 91       	pop	r26
     66e:	08 95       	ret

00000670 <context_save_and_displace>:
     670:	cf 93       	push	r28
     672:	df 93       	push	r29
     674:	d9 2f       	mov	r29, r25
     676:	c8 2f       	mov	r28, r24
     678:	09 92       	st	Y+, r0
     67a:	19 92       	st	Y+, r1
     67c:	29 92       	st	Y+, r2
     67e:	39 92       	st	Y+, r3
     680:	49 92       	st	Y+, r4
     682:	59 92       	st	Y+, r5
     684:	69 92       	st	Y+, r6
     686:	79 92       	st	Y+, r7
     688:	89 92       	st	Y+, r8
     68a:	99 92       	st	Y+, r9
     68c:	a9 92       	st	Y+, r10
     68e:	b9 92       	st	Y+, r11
     690:	c9 92       	st	Y+, r12
     692:	d9 92       	st	Y+, r13
     694:	e9 92       	st	Y+, r14
     696:	f9 92       	st	Y+, r15
     698:	09 93       	st	Y+, r16
     69a:	19 93       	st	Y+, r17
     69c:	29 93       	st	Y+, r18
     69e:	39 93       	st	Y+, r19
     6a0:	49 93       	st	Y+, r20
     6a2:	59 93       	st	Y+, r21
     6a4:	69 93       	st	Y+, r22
     6a6:	79 93       	st	Y+, r23
     6a8:	89 93       	st	Y+, r24
     6aa:	99 93       	st	Y+, r25
     6ac:	a9 93       	st	Y+, r26
     6ae:	b9 93       	st	Y+, r27
     6b0:	bf 91       	pop	r27
     6b2:	af 91       	pop	r26
     6b4:	a9 93       	st	Y+, r26
     6b6:	b9 93       	st	Y+, r27
     6b8:	e9 93       	st	Y+, r30
     6ba:	f9 93       	st	Y+, r31
     6bc:	0f 90       	pop	r0
     6be:	0f 91       	pop	r16
     6c0:	0f 90       	pop	r0
     6c2:	09 92       	st	Y+, r0
     6c4:	09 93       	st	Y+, r16
     6c6:	0d b6       	in	r0, 0x3d	; 61
     6c8:	09 92       	st	Y+, r0
     6ca:	0e b6       	in	r0, 0x3e	; 62
     6cc:	09 92       	st	Y+, r0
     6ce:	0f b6       	in	r0, 0x3f	; 63
     6d0:	09 92       	st	Y+, r0
     6d2:	0c 94 fa 11 	jmp	0x23f4	; 0x23f4 <__context_displace_vector__>

000006d6 <debug_writehex_reversed>:
     6d6:	cf 93       	push	r28
     6d8:	df 93       	push	r29
     6da:	00 d0       	rcall	.+0      	; 0x6dc <debug_writehex_reversed+0x6>
     6dc:	00 d0       	rcall	.+0      	; 0x6de <debug_writehex_reversed+0x8>
     6de:	cd b7       	in	r28, 0x3d	; 61
     6e0:	de b7       	in	r29, 0x3e	; 62
     6e2:	9c 83       	std	Y+4, r25	; 0x04
     6e4:	8b 83       	std	Y+3, r24	; 0x03
     6e6:	7e 83       	std	Y+6, r23	; 0x06
     6e8:	6d 83       	std	Y+5, r22	; 0x05
     6ea:	2b 81       	ldd	r18, Y+3	; 0x03
     6ec:	3c 81       	ldd	r19, Y+4	; 0x04
     6ee:	8d 81       	ldd	r24, Y+5	; 0x05
     6f0:	9e 81       	ldd	r25, Y+6	; 0x06
     6f2:	82 0f       	add	r24, r18
     6f4:	93 1f       	adc	r25, r19
     6f6:	9a 83       	std	Y+2, r25	; 0x02
     6f8:	89 83       	std	Y+1, r24	; 0x01
     6fa:	0b c0       	rjmp	.+22     	; 0x712 <debug_writehex_reversed+0x3c>
     6fc:	89 81       	ldd	r24, Y+1	; 0x01
     6fe:	9a 81       	ldd	r25, Y+2	; 0x02
     700:	01 97       	sbiw	r24, 0x01	; 1
     702:	9a 83       	std	Y+2, r25	; 0x02
     704:	89 83       	std	Y+1, r24	; 0x01
     706:	89 81       	ldd	r24, Y+1	; 0x01
     708:	9a 81       	ldd	r25, Y+2	; 0x02
     70a:	fc 01       	movw	r30, r24
     70c:	80 81       	ld	r24, Z
     70e:	0e 94 b6 09 	call	0x136c	; 0x136c <debug_printhex_uint8>
     712:	8d 81       	ldd	r24, Y+5	; 0x05
     714:	9e 81       	ldd	r25, Y+6	; 0x06
     716:	9c 01       	movw	r18, r24
     718:	21 50       	subi	r18, 0x01	; 1
     71a:	31 09       	sbc	r19, r1
     71c:	3e 83       	std	Y+6, r19	; 0x06
     71e:	2d 83       	std	Y+5, r18	; 0x05
     720:	89 2b       	or	r24, r25
     722:	61 f7       	brne	.-40     	; 0x6fc <debug_writehex_reversed+0x26>
     724:	26 96       	adiw	r28, 0x06	; 6
     726:	0f b6       	in	r0, 0x3f	; 63
     728:	f8 94       	cli
     72a:	de bf       	out	0x3e, r29	; 62
     72c:	0f be       	out	0x3f, r0	; 63
     72e:	cd bf       	out	0x3d, r28	; 61
     730:	df 91       	pop	r29
     732:	cf 91       	pop	r28
     734:	08 95       	ret

00000736 <debug_printhex_ptr>:
     736:	cf 93       	push	r28
     738:	df 93       	push	r29
     73a:	1f 92       	push	r1
     73c:	1f 92       	push	r1
     73e:	cd b7       	in	r28, 0x3d	; 61
     740:	de b7       	in	r29, 0x3e	; 62
     742:	9a 83       	std	Y+2, r25	; 0x02
     744:	89 83       	std	Y+1, r24	; 0x01
     746:	62 e0       	ldi	r22, 0x02	; 2
     748:	70 e0       	ldi	r23, 0x00	; 0
     74a:	ce 01       	movw	r24, r28
     74c:	01 96       	adiw	r24, 0x01	; 1
     74e:	0e 94 6b 03 	call	0x6d6	; 0x6d6 <debug_writehex_reversed>
     752:	0f 90       	pop	r0
     754:	0f 90       	pop	r0
     756:	df 91       	pop	r29
     758:	cf 91       	pop	r28
     75a:	08 95       	ret

0000075c <debug_print>:
     75c:	cf 93       	push	r28
     75e:	df 93       	push	r29
     760:	1f 92       	push	r1
     762:	1f 92       	push	r1
     764:	cd b7       	in	r28, 0x3d	; 61
     766:	de b7       	in	r29, 0x3e	; 62
     768:	9a 83       	std	Y+2, r25	; 0x02
     76a:	89 83       	std	Y+1, r24	; 0x01
     76c:	89 81       	ldd	r24, Y+1	; 0x01
     76e:	9a 81       	ldd	r25, Y+2	; 0x02
     770:	89 2b       	or	r24, r25
     772:	69 f4       	brne	.+26     	; 0x78e <debug_print+0x32>
     774:	8e e4       	ldi	r24, 0x4E	; 78
     776:	0e 94 71 0e 	call	0x1ce2	; 0x1ce2 <debug_putchar>
     77a:	85 e5       	ldi	r24, 0x55	; 85
     77c:	0e 94 71 0e 	call	0x1ce2	; 0x1ce2 <debug_putchar>
     780:	8c e4       	ldi	r24, 0x4C	; 76
     782:	0e 94 71 0e 	call	0x1ce2	; 0x1ce2 <debug_putchar>
     786:	8c e4       	ldi	r24, 0x4C	; 76
     788:	0e 94 71 0e 	call	0x1ce2	; 0x1ce2 <debug_putchar>
     78c:	0a c0       	rjmp	.+20     	; 0x7a2 <debug_print+0x46>
     78e:	89 81       	ldd	r24, Y+1	; 0x01
     790:	9a 81       	ldd	r25, Y+2	; 0x02
     792:	0e 94 97 08 	call	0x112e	; 0x112e <debug_strlen.lto_priv.2>
     796:	9c 01       	movw	r18, r24
     798:	89 81       	ldd	r24, Y+1	; 0x01
     79a:	9a 81       	ldd	r25, Y+2	; 0x02
     79c:	b9 01       	movw	r22, r18
     79e:	0e 94 7e 0e 	call	0x1cfc	; 0x1cfc <debug_write>
     7a2:	0f 90       	pop	r0
     7a4:	0f 90       	pop	r0
     7a6:	df 91       	pop	r29
     7a8:	cf 91       	pop	r28
     7aa:	08 95       	ret

000007ac <debug_printdec_signed_int>:
     7ac:	af 92       	push	r10
     7ae:	bf 92       	push	r11
     7b0:	cf 92       	push	r12
     7b2:	df 92       	push	r13
     7b4:	ef 92       	push	r14
     7b6:	ff 92       	push	r15
     7b8:	0f 93       	push	r16
     7ba:	1f 93       	push	r17
     7bc:	cf 93       	push	r28
     7be:	df 93       	push	r29
     7c0:	1f 92       	push	r1
     7c2:	1f 92       	push	r1
     7c4:	cd b7       	in	r28, 0x3d	; 61
     7c6:	de b7       	in	r29, 0x3e	; 62
     7c8:	9a 83       	std	Y+2, r25	; 0x02
     7ca:	89 83       	std	Y+1, r24	; 0x01
     7cc:	89 81       	ldd	r24, Y+1	; 0x01
     7ce:	9a 81       	ldd	r25, Y+2	; 0x02
     7d0:	5c 01       	movw	r10, r24
     7d2:	89 2f       	mov	r24, r25
     7d4:	88 0f       	add	r24, r24
     7d6:	88 0b       	sbc	r24, r24
     7d8:	c8 2e       	mov	r12, r24
     7da:	d8 2e       	mov	r13, r24
     7dc:	e8 2e       	mov	r14, r24
     7de:	f8 2e       	mov	r15, r24
     7e0:	08 2f       	mov	r16, r24
     7e2:	18 2f       	mov	r17, r24
     7e4:	2a 2d       	mov	r18, r10
     7e6:	3b 2d       	mov	r19, r11
     7e8:	4c 2d       	mov	r20, r12
     7ea:	5d 2d       	mov	r21, r13
     7ec:	6e 2d       	mov	r22, r14
     7ee:	7f 2d       	mov	r23, r15
     7f0:	80 2f       	mov	r24, r16
     7f2:	91 2f       	mov	r25, r17
     7f4:	0e 94 09 04 	call	0x812	; 0x812 <debug_printdec_signed_long_long>
     7f8:	0f 90       	pop	r0
     7fa:	0f 90       	pop	r0
     7fc:	df 91       	pop	r29
     7fe:	cf 91       	pop	r28
     800:	1f 91       	pop	r17
     802:	0f 91       	pop	r16
     804:	ff 90       	pop	r15
     806:	ef 90       	pop	r14
     808:	df 90       	pop	r13
     80a:	cf 90       	pop	r12
     80c:	bf 90       	pop	r11
     80e:	af 90       	pop	r10
     810:	08 95       	ret

00000812 <debug_printdec_signed_long_long>:
     812:	af 92       	push	r10
     814:	bf 92       	push	r11
     816:	cf 92       	push	r12
     818:	df 92       	push	r13
     81a:	ef 92       	push	r14
     81c:	ff 92       	push	r15
     81e:	0f 93       	push	r16
     820:	1f 93       	push	r17
     822:	cf 93       	push	r28
     824:	df 93       	push	r29
     826:	cd b7       	in	r28, 0x3d	; 61
     828:	de b7       	in	r29, 0x3e	; 62
     82a:	28 97       	sbiw	r28, 0x08	; 8
     82c:	0f b6       	in	r0, 0x3f	; 63
     82e:	f8 94       	cli
     830:	de bf       	out	0x3e, r29	; 62
     832:	0f be       	out	0x3f, r0	; 63
     834:	cd bf       	out	0x3d, r28	; 61
     836:	29 83       	std	Y+1, r18	; 0x01
     838:	3a 83       	std	Y+2, r19	; 0x02
     83a:	4b 83       	std	Y+3, r20	; 0x03
     83c:	5c 83       	std	Y+4, r21	; 0x04
     83e:	6d 83       	std	Y+5, r22	; 0x05
     840:	7e 83       	std	Y+6, r23	; 0x06
     842:	8f 83       	std	Y+7, r24	; 0x07
     844:	98 87       	std	Y+8, r25	; 0x08
     846:	a9 80       	ldd	r10, Y+1	; 0x01
     848:	ba 80       	ldd	r11, Y+2	; 0x02
     84a:	cb 80       	ldd	r12, Y+3	; 0x03
     84c:	dc 80       	ldd	r13, Y+4	; 0x04
     84e:	ed 80       	ldd	r14, Y+5	; 0x05
     850:	fe 80       	ldd	r15, Y+6	; 0x06
     852:	0f 81       	ldd	r16, Y+7	; 0x07
     854:	18 85       	ldd	r17, Y+8	; 0x08
     856:	2a 2d       	mov	r18, r10
     858:	3b 2d       	mov	r19, r11
     85a:	4c 2d       	mov	r20, r12
     85c:	5d 2d       	mov	r21, r13
     85e:	6e 2d       	mov	r22, r14
     860:	7f 2d       	mov	r23, r15
     862:	80 2f       	mov	r24, r16
     864:	91 2f       	mov	r25, r17
     866:	a0 e0       	ldi	r26, 0x00	; 0
     868:	0e 94 30 22 	call	0x4460	; 0x4460 <__cmpdi2_s8>
     86c:	ec f4       	brge	.+58     	; 0x8a8 <debug_printdec_signed_long_long+0x96>
     86e:	29 81       	ldd	r18, Y+1	; 0x01
     870:	3a 81       	ldd	r19, Y+2	; 0x02
     872:	4b 81       	ldd	r20, Y+3	; 0x03
     874:	5c 81       	ldd	r21, Y+4	; 0x04
     876:	6d 81       	ldd	r22, Y+5	; 0x05
     878:	7e 81       	ldd	r23, Y+6	; 0x06
     87a:	8f 81       	ldd	r24, Y+7	; 0x07
     87c:	98 85       	ldd	r25, Y+8	; 0x08
     87e:	0e 94 14 22 	call	0x4428	; 0x4428 <__negdi2>
     882:	a2 2e       	mov	r10, r18
     884:	b3 2e       	mov	r11, r19
     886:	c4 2e       	mov	r12, r20
     888:	d5 2e       	mov	r13, r21
     88a:	e6 2e       	mov	r14, r22
     88c:	f7 2e       	mov	r15, r23
     88e:	08 2f       	mov	r16, r24
     890:	19 2f       	mov	r17, r25
     892:	a9 82       	std	Y+1, r10	; 0x01
     894:	ba 82       	std	Y+2, r11	; 0x02
     896:	cb 82       	std	Y+3, r12	; 0x03
     898:	dc 82       	std	Y+4, r13	; 0x04
     89a:	ed 82       	std	Y+5, r14	; 0x05
     89c:	fe 82       	std	Y+6, r15	; 0x06
     89e:	0f 83       	std	Y+7, r16	; 0x07
     8a0:	18 87       	std	Y+8, r17	; 0x08
     8a2:	8d e2       	ldi	r24, 0x2D	; 45
     8a4:	0e 94 71 0e 	call	0x1ce2	; 0x1ce2 <debug_putchar>
     8a8:	a9 80       	ldd	r10, Y+1	; 0x01
     8aa:	ba 80       	ldd	r11, Y+2	; 0x02
     8ac:	cb 80       	ldd	r12, Y+3	; 0x03
     8ae:	dc 80       	ldd	r13, Y+4	; 0x04
     8b0:	ed 80       	ldd	r14, Y+5	; 0x05
     8b2:	fe 80       	ldd	r15, Y+6	; 0x06
     8b4:	0f 81       	ldd	r16, Y+7	; 0x07
     8b6:	18 85       	ldd	r17, Y+8	; 0x08
     8b8:	2a 2d       	mov	r18, r10
     8ba:	3b 2d       	mov	r19, r11
     8bc:	4c 2d       	mov	r20, r12
     8be:	5d 2d       	mov	r21, r13
     8c0:	6e 2d       	mov	r22, r14
     8c2:	7f 2d       	mov	r23, r15
     8c4:	80 2f       	mov	r24, r16
     8c6:	91 2f       	mov	r25, r17
     8c8:	0e 94 ba 08 	call	0x1174	; 0x1174 <debug_printdec_uint64>
     8cc:	28 96       	adiw	r28, 0x08	; 8
     8ce:	0f b6       	in	r0, 0x3f	; 63
     8d0:	f8 94       	cli
     8d2:	de bf       	out	0x3e, r29	; 62
     8d4:	0f be       	out	0x3f, r0	; 63
     8d6:	cd bf       	out	0x3d, r28	; 61
     8d8:	df 91       	pop	r29
     8da:	cf 91       	pop	r28
     8dc:	1f 91       	pop	r17
     8de:	0f 91       	pop	r16
     8e0:	ff 90       	pop	r15
     8e2:	ef 90       	pop	r14
     8e4:	df 90       	pop	r13
     8e6:	cf 90       	pop	r12
     8e8:	bf 90       	pop	r11
     8ea:	af 90       	pop	r10
     8ec:	08 95       	ret

000008ee <debug_printdec_unsigned_int>:
     8ee:	af 92       	push	r10
     8f0:	bf 92       	push	r11
     8f2:	cf 92       	push	r12
     8f4:	df 92       	push	r13
     8f6:	ef 92       	push	r14
     8f8:	ff 92       	push	r15
     8fa:	0f 93       	push	r16
     8fc:	1f 93       	push	r17
     8fe:	cf 93       	push	r28
     900:	df 93       	push	r29
     902:	1f 92       	push	r1
     904:	1f 92       	push	r1
     906:	cd b7       	in	r28, 0x3d	; 61
     908:	de b7       	in	r29, 0x3e	; 62
     90a:	9a 83       	std	Y+2, r25	; 0x02
     90c:	89 83       	std	Y+1, r24	; 0x01
     90e:	89 81       	ldd	r24, Y+1	; 0x01
     910:	9a 81       	ldd	r25, Y+2	; 0x02
     912:	5c 01       	movw	r10, r24
     914:	c1 2c       	mov	r12, r1
     916:	d1 2c       	mov	r13, r1
     918:	e1 2c       	mov	r14, r1
     91a:	f1 2c       	mov	r15, r1
     91c:	87 01       	movw	r16, r14
     91e:	2a 2d       	mov	r18, r10
     920:	3b 2d       	mov	r19, r11
     922:	4c 2d       	mov	r20, r12
     924:	5d 2d       	mov	r21, r13
     926:	6e 2d       	mov	r22, r14
     928:	7f 2d       	mov	r23, r15
     92a:	80 2f       	mov	r24, r16
     92c:	91 2f       	mov	r25, r17
     92e:	0e 94 a6 04 	call	0x94c	; 0x94c <debug_printdec_unsigned_long_long>
     932:	0f 90       	pop	r0
     934:	0f 90       	pop	r0
     936:	df 91       	pop	r29
     938:	cf 91       	pop	r28
     93a:	1f 91       	pop	r17
     93c:	0f 91       	pop	r16
     93e:	ff 90       	pop	r15
     940:	ef 90       	pop	r14
     942:	df 90       	pop	r13
     944:	cf 90       	pop	r12
     946:	bf 90       	pop	r11
     948:	af 90       	pop	r10
     94a:	08 95       	ret

0000094c <debug_printdec_unsigned_long_long>:
     94c:	af 92       	push	r10
     94e:	bf 92       	push	r11
     950:	cf 92       	push	r12
     952:	df 92       	push	r13
     954:	ef 92       	push	r14
     956:	ff 92       	push	r15
     958:	0f 93       	push	r16
     95a:	1f 93       	push	r17
     95c:	cf 93       	push	r28
     95e:	df 93       	push	r29
     960:	cd b7       	in	r28, 0x3d	; 61
     962:	de b7       	in	r29, 0x3e	; 62
     964:	28 97       	sbiw	r28, 0x08	; 8
     966:	0f b6       	in	r0, 0x3f	; 63
     968:	f8 94       	cli
     96a:	de bf       	out	0x3e, r29	; 62
     96c:	0f be       	out	0x3f, r0	; 63
     96e:	cd bf       	out	0x3d, r28	; 61
     970:	29 83       	std	Y+1, r18	; 0x01
     972:	3a 83       	std	Y+2, r19	; 0x02
     974:	4b 83       	std	Y+3, r20	; 0x03
     976:	5c 83       	std	Y+4, r21	; 0x04
     978:	6d 83       	std	Y+5, r22	; 0x05
     97a:	7e 83       	std	Y+6, r23	; 0x06
     97c:	8f 83       	std	Y+7, r24	; 0x07
     97e:	98 87       	std	Y+8, r25	; 0x08
     980:	a9 80       	ldd	r10, Y+1	; 0x01
     982:	ba 80       	ldd	r11, Y+2	; 0x02
     984:	cb 80       	ldd	r12, Y+3	; 0x03
     986:	dc 80       	ldd	r13, Y+4	; 0x04
     988:	ed 80       	ldd	r14, Y+5	; 0x05
     98a:	fe 80       	ldd	r15, Y+6	; 0x06
     98c:	0f 81       	ldd	r16, Y+7	; 0x07
     98e:	18 85       	ldd	r17, Y+8	; 0x08
     990:	2a 2d       	mov	r18, r10
     992:	3b 2d       	mov	r19, r11
     994:	4c 2d       	mov	r20, r12
     996:	5d 2d       	mov	r21, r13
     998:	6e 2d       	mov	r22, r14
     99a:	7f 2d       	mov	r23, r15
     99c:	80 2f       	mov	r24, r16
     99e:	91 2f       	mov	r25, r17
     9a0:	0e 94 ba 08 	call	0x1174	; 0x1174 <debug_printdec_uint64>
     9a4:	28 96       	adiw	r28, 0x08	; 8
     9a6:	0f b6       	in	r0, 0x3f	; 63
     9a8:	f8 94       	cli
     9aa:	de bf       	out	0x3e, r29	; 62
     9ac:	0f be       	out	0x3f, r0	; 63
     9ae:	cd bf       	out	0x3d, r28	; 61
     9b0:	df 91       	pop	r29
     9b2:	cf 91       	pop	r28
     9b4:	1f 91       	pop	r17
     9b6:	0f 91       	pop	r16
     9b8:	ff 90       	pop	r15
     9ba:	ef 90       	pop	r14
     9bc:	df 90       	pop	r13
     9be:	cf 90       	pop	r12
     9c0:	bf 90       	pop	r11
     9c2:	af 90       	pop	r10
     9c4:	08 95       	ret

000009c6 <dprptr>:
     9c6:	cf 93       	push	r28
     9c8:	df 93       	push	r29
     9ca:	1f 92       	push	r1
     9cc:	1f 92       	push	r1
     9ce:	cd b7       	in	r28, 0x3d	; 61
     9d0:	de b7       	in	r29, 0x3e	; 62
     9d2:	9a 83       	std	Y+2, r25	; 0x02
     9d4:	89 83       	std	Y+1, r24	; 0x01
     9d6:	89 81       	ldd	r24, Y+1	; 0x01
     9d8:	9a 81       	ldd	r25, Y+2	; 0x02
     9da:	0e 94 9b 03 	call	0x736	; 0x736 <debug_printhex_ptr>
     9de:	0f 90       	pop	r0
     9e0:	0f 90       	pop	r0
     9e2:	df 91       	pop	r29
     9e4:	cf 91       	pop	r28
     9e6:	08 95       	ret

000009e8 <diag_setup>:
     9e8:	cf 93       	push	r28
     9ea:	df 93       	push	r29
     9ec:	00 d0       	rcall	.+0      	; 0x9ee <diag_setup+0x6>
     9ee:	1f 92       	push	r1
     9f0:	cd b7       	in	r28, 0x3d	; 61
     9f2:	de b7       	in	r29, 0x3e	; 62
     9f4:	9a 83       	std	Y+2, r25	; 0x02
     9f6:	89 83       	std	Y+1, r24	; 0x01
     9f8:	7c 83       	std	Y+4, r23	; 0x04
     9fa:	6b 83       	std	Y+3, r22	; 0x03
     9fc:	89 81       	ldd	r24, Y+1	; 0x01
     9fe:	9a 81       	ldd	r25, Y+2	; 0x02
     a00:	90 93 59 07 	sts	0x0759, r25	; 0x800759 <current_diag_ops+0x1>
     a04:	80 93 58 07 	sts	0x0758, r24	; 0x800758 <current_diag_ops>
     a08:	8b 81       	ldd	r24, Y+3	; 0x03
     a0a:	9c 81       	ldd	r25, Y+4	; 0x04
     a0c:	90 93 5b 07 	sts	0x075B, r25	; 0x80075b <current_diag_priv+0x1>
     a10:	80 93 5a 07 	sts	0x075A, r24	; 0x80075a <current_diag_priv>
     a14:	0f 90       	pop	r0
     a16:	0f 90       	pop	r0
     a18:	0f 90       	pop	r0
     a1a:	0f 90       	pop	r0
     a1c:	df 91       	pop	r29
     a1e:	cf 91       	pop	r28
     a20:	08 95       	ret

00000a22 <diag_putc>:
     a22:	cf 93       	push	r28
     a24:	df 93       	push	r29
     a26:	1f 92       	push	r1
     a28:	cd b7       	in	r28, 0x3d	; 61
     a2a:	de b7       	in	r29, 0x3e	; 62
     a2c:	89 83       	std	Y+1, r24	; 0x01
     a2e:	80 91 58 07 	lds	r24, 0x0758	; 0x800758 <current_diag_ops>
     a32:	90 91 59 07 	lds	r25, 0x0759	; 0x800759 <current_diag_ops+0x1>
     a36:	89 2b       	or	r24, r25
     a38:	19 f4       	brne	.+6      	; 0xa40 <diag_putc+0x1e>
     a3a:	80 e0       	ldi	r24, 0x00	; 0
     a3c:	90 e0       	ldi	r25, 0x00	; 0
     a3e:	0e c0       	rjmp	.+28     	; 0xa5c <diag_putc+0x3a>
     a40:	80 91 58 07 	lds	r24, 0x0758	; 0x800758 <current_diag_ops>
     a44:	90 91 59 07 	lds	r25, 0x0759	; 0x800759 <current_diag_ops+0x1>
     a48:	fc 01       	movw	r30, r24
     a4a:	20 81       	ld	r18, Z
     a4c:	31 81       	ldd	r19, Z+1	; 0x01
     a4e:	80 91 5a 07 	lds	r24, 0x075A	; 0x80075a <current_diag_priv>
     a52:	90 91 5b 07 	lds	r25, 0x075B	; 0x80075b <current_diag_priv+0x1>
     a56:	69 81       	ldd	r22, Y+1	; 0x01
     a58:	f9 01       	movw	r30, r18
     a5a:	19 95       	eicall
     a5c:	0f 90       	pop	r0
     a5e:	df 91       	pop	r29
     a60:	cf 91       	pop	r28
     a62:	08 95       	ret

00000a64 <diag_write>:
     a64:	cf 93       	push	r28
     a66:	df 93       	push	r29
     a68:	00 d0       	rcall	.+0      	; 0xa6a <diag_write+0x6>
     a6a:	1f 92       	push	r1
     a6c:	cd b7       	in	r28, 0x3d	; 61
     a6e:	de b7       	in	r29, 0x3e	; 62
     a70:	9a 83       	std	Y+2, r25	; 0x02
     a72:	89 83       	std	Y+1, r24	; 0x01
     a74:	7c 83       	std	Y+4, r23	; 0x04
     a76:	6b 83       	std	Y+3, r22	; 0x03
     a78:	80 91 58 07 	lds	r24, 0x0758	; 0x800758 <current_diag_ops>
     a7c:	90 91 59 07 	lds	r25, 0x0759	; 0x800759 <current_diag_ops+0x1>
     a80:	89 2b       	or	r24, r25
     a82:	19 f4       	brne	.+6      	; 0xa8a <diag_write+0x26>
     a84:	80 e0       	ldi	r24, 0x00	; 0
     a86:	90 e0       	ldi	r25, 0x00	; 0
     a88:	11 c0       	rjmp	.+34     	; 0xaac <diag_write+0x48>
     a8a:	80 91 58 07 	lds	r24, 0x0758	; 0x800758 <current_diag_ops>
     a8e:	90 91 59 07 	lds	r25, 0x0759	; 0x800759 <current_diag_ops+0x1>
     a92:	fc 01       	movw	r30, r24
     a94:	24 81       	ldd	r18, Z+4	; 0x04
     a96:	35 81       	ldd	r19, Z+5	; 0x05
     a98:	80 91 5a 07 	lds	r24, 0x075A	; 0x80075a <current_diag_priv>
     a9c:	90 91 5b 07 	lds	r25, 0x075B	; 0x80075b <current_diag_priv+0x1>
     aa0:	4b 81       	ldd	r20, Y+3	; 0x03
     aa2:	5c 81       	ldd	r21, Y+4	; 0x04
     aa4:	69 81       	ldd	r22, Y+1	; 0x01
     aa6:	7a 81       	ldd	r23, Y+2	; 0x02
     aa8:	f9 01       	movw	r30, r18
     aaa:	19 95       	eicall
     aac:	0f 90       	pop	r0
     aae:	0f 90       	pop	r0
     ab0:	0f 90       	pop	r0
     ab2:	0f 90       	pop	r0
     ab4:	df 91       	pop	r29
     ab6:	cf 91       	pop	r28
     ab8:	08 95       	ret

00000aba <diag_write_common>:
     aba:	cf 93       	push	r28
     abc:	df 93       	push	r29
     abe:	cd b7       	in	r28, 0x3d	; 61
     ac0:	de b7       	in	r29, 0x3e	; 62
     ac2:	28 97       	sbiw	r28, 0x08	; 8
     ac4:	0f b6       	in	r0, 0x3f	; 63
     ac6:	f8 94       	cli
     ac8:	de bf       	out	0x3e, r29	; 62
     aca:	0f be       	out	0x3f, r0	; 63
     acc:	cd bf       	out	0x3d, r28	; 61
     ace:	9c 83       	std	Y+4, r25	; 0x04
     ad0:	8b 83       	std	Y+3, r24	; 0x03
     ad2:	7e 83       	std	Y+6, r23	; 0x06
     ad4:	6d 83       	std	Y+5, r22	; 0x05
     ad6:	58 87       	std	Y+8, r21	; 0x08
     ad8:	4f 83       	std	Y+7, r20	; 0x07
     ada:	80 91 58 07 	lds	r24, 0x0758	; 0x800758 <current_diag_ops>
     ade:	90 91 59 07 	lds	r25, 0x0759	; 0x800759 <current_diag_ops+0x1>
     ae2:	89 2b       	or	r24, r25
     ae4:	19 f4       	brne	.+6      	; 0xaec <diag_write_common+0x32>
     ae6:	80 e0       	ldi	r24, 0x00	; 0
     ae8:	90 e0       	ldi	r25, 0x00	; 0
     aea:	1b c0       	rjmp	.+54     	; 0xb22 <diag_write_common+0x68>
     aec:	8d 81       	ldd	r24, Y+5	; 0x05
     aee:	9e 81       	ldd	r25, Y+6	; 0x06
     af0:	9a 83       	std	Y+2, r25	; 0x02
     af2:	89 83       	std	Y+1, r24	; 0x01
     af4:	10 c0       	rjmp	.+32     	; 0xb16 <diag_write_common+0x5c>
     af6:	89 81       	ldd	r24, Y+1	; 0x01
     af8:	9a 81       	ldd	r25, Y+2	; 0x02
     afa:	9c 01       	movw	r18, r24
     afc:	2f 5f       	subi	r18, 0xFF	; 255
     afe:	3f 4f       	sbci	r19, 0xFF	; 255
     b00:	3a 83       	std	Y+2, r19	; 0x02
     b02:	29 83       	std	Y+1, r18	; 0x01
     b04:	fc 01       	movw	r30, r24
     b06:	80 81       	ld	r24, Z
     b08:	0e 94 11 05 	call	0xa22	; 0xa22 <diag_putc>
     b0c:	8f 81       	ldd	r24, Y+7	; 0x07
     b0e:	98 85       	ldd	r25, Y+8	; 0x08
     b10:	01 97       	sbiw	r24, 0x01	; 1
     b12:	98 87       	std	Y+8, r25	; 0x08
     b14:	8f 83       	std	Y+7, r24	; 0x07
     b16:	8f 81       	ldd	r24, Y+7	; 0x07
     b18:	98 85       	ldd	r25, Y+8	; 0x08
     b1a:	89 2b       	or	r24, r25
     b1c:	61 f7       	brne	.-40     	; 0xaf6 <diag_write_common+0x3c>
     b1e:	80 e0       	ldi	r24, 0x00	; 0
     b20:	90 e0       	ldi	r25, 0x00	; 0
     b22:	28 96       	adiw	r28, 0x08	; 8
     b24:	0f b6       	in	r0, 0x3f	; 63
     b26:	f8 94       	cli
     b28:	de bf       	out	0x3e, r29	; 62
     b2a:	0f be       	out	0x3f, r0	; 63
     b2c:	cd bf       	out	0x3d, r28	; 61
     b2e:	df 91       	pop	r29
     b30:	cf 91       	pop	r28
     b32:	08 95       	ret

00000b34 <_Z41__static_initialization_and_destruction_0ii.lto_priv.3>:
     b34:	cf 93       	push	r28
     b36:	df 93       	push	r29
     b38:	00 d0       	rcall	.+0      	; 0xb3a <_Z41__static_initialization_and_destruction_0ii.lto_priv.3+0x6>
     b3a:	1f 92       	push	r1
     b3c:	cd b7       	in	r28, 0x3d	; 61
     b3e:	de b7       	in	r29, 0x3e	; 62
     b40:	9a 83       	std	Y+2, r25	; 0x02
     b42:	89 83       	std	Y+1, r24	; 0x01
     b44:	7c 83       	std	Y+4, r23	; 0x04
     b46:	6b 83       	std	Y+3, r22	; 0x03
     b48:	89 81       	ldd	r24, Y+1	; 0x01
     b4a:	9a 81       	ldd	r25, Y+2	; 0x02
     b4c:	01 97       	sbiw	r24, 0x01	; 1
     b4e:	41 f4       	brne	.+16     	; 0xb60 <_Z41__static_initialization_and_destruction_0ii.lto_priv.3+0x2c>
     b50:	8b 81       	ldd	r24, Y+3	; 0x03
     b52:	9c 81       	ldd	r25, Y+4	; 0x04
     b54:	01 96       	adiw	r24, 0x01	; 1
     b56:	21 f4       	brne	.+8      	; 0xb60 <_Z41__static_initialization_and_destruction_0ii.lto_priv.3+0x2c>
     b58:	87 e8       	ldi	r24, 0x87	; 135
     b5a:	95 e0       	ldi	r25, 0x05	; 5
     b5c:	0e 94 da 0d 	call	0x1bb4	; 0x1bb4 <_ZN5genos14device_managerC1Ev>
     b60:	0f 90       	pop	r0
     b62:	0f 90       	pop	r0
     b64:	0f 90       	pop	r0
     b66:	0f 90       	pop	r0
     b68:	df 91       	pop	r29
     b6a:	cf 91       	pop	r28
     b6c:	08 95       	ret

00000b6e <_GLOBAL__sub_I__ZN5genos7devmngrE>:
     b6e:	cf 93       	push	r28
     b70:	df 93       	push	r29
     b72:	cd b7       	in	r28, 0x3d	; 61
     b74:	de b7       	in	r29, 0x3e	; 62
     b76:	6f ef       	ldi	r22, 0xFF	; 255
     b78:	7f ef       	ldi	r23, 0xFF	; 255
     b7a:	81 e0       	ldi	r24, 0x01	; 1
     b7c:	90 e0       	ldi	r25, 0x00	; 0
     b7e:	0e 94 9a 05 	call	0xb34	; 0xb34 <_Z41__static_initialization_and_destruction_0ii.lto_priv.3>
     b82:	df 91       	pop	r29
     b84:	cf 91       	pop	r28
     b86:	08 95       	ret

00000b88 <__errno_location>:
     b88:	cf 93       	push	r28
     b8a:	df 93       	push	r29
     b8c:	cd b7       	in	r28, 0x3d	; 61
     b8e:	de b7       	in	r29, 0x3e	; 62
     b90:	0e 94 f3 10 	call	0x21e6	; 0x21e6 <current_schedee>
     b94:	21 e0       	ldi	r18, 0x01	; 1
     b96:	89 2b       	or	r24, r25
     b98:	09 f0       	breq	.+2      	; 0xb9c <__errno_location+0x14>
     b9a:	20 e0       	ldi	r18, 0x00	; 0
     b9c:	22 23       	and	r18, r18
     b9e:	19 f0       	breq	.+6      	; 0xba6 <__errno_location+0x1e>
     ba0:	85 e9       	ldi	r24, 0x95	; 149
     ba2:	95 e0       	ldi	r25, 0x05	; 5
     ba4:	03 c0       	rjmp	.+6      	; 0xbac <__errno_location+0x24>
     ba6:	0e 94 f3 10 	call	0x21e6	; 0x21e6 <current_schedee>
     baa:	85 96       	adiw	r24, 0x25	; 37
     bac:	df 91       	pop	r29
     bae:	cf 91       	pop	r28
     bb0:	08 95       	ret

00000bb2 <irqs_save>:
     bb2:	cf 93       	push	r28
     bb4:	df 93       	push	r29
     bb6:	1f 92       	push	r1
     bb8:	cd b7       	in	r28, 0x3d	; 61
     bba:	de b7       	in	r29, 0x3e	; 62
     bbc:	8f e5       	ldi	r24, 0x5F	; 95
     bbe:	90 e0       	ldi	r25, 0x00	; 0
     bc0:	fc 01       	movw	r30, r24
     bc2:	80 81       	ld	r24, Z
     bc4:	89 83       	std	Y+1, r24	; 0x01
     bc6:	f8 94       	cli
     bc8:	89 81       	ldd	r24, Y+1	; 0x01
     bca:	0f 90       	pop	r0
     bcc:	df 91       	pop	r29
     bce:	cf 91       	pop	r28
     bd0:	08 95       	ret

00000bd2 <irqs_disable>:
     bd2:	cf 93       	push	r28
     bd4:	df 93       	push	r29
     bd6:	cd b7       	in	r28, 0x3d	; 61
     bd8:	de b7       	in	r29, 0x3e	; 62
     bda:	0e 94 d9 05 	call	0xbb2	; 0xbb2 <irqs_save>
     bde:	df 91       	pop	r29
     be0:	cf 91       	pop	r28
     be2:	08 95       	ret

00000be4 <debug_print_newline>:
     be4:	cf 93       	push	r28
     be6:	df 93       	push	r29
     be8:	cd b7       	in	r28, 0x3d	; 61
     bea:	de b7       	in	r29, 0x3e	; 62
     bec:	8d e0       	ldi	r24, 0x0D	; 13
     bee:	0e 94 71 0e 	call	0x1ce2	; 0x1ce2 <debug_putchar>
     bf2:	8a e0       	ldi	r24, 0x0A	; 10
     bf4:	0e 94 71 0e 	call	0x1ce2	; 0x1ce2 <debug_putchar>
     bf8:	df 91       	pop	r29
     bfa:	cf 91       	pop	r28
     bfc:	08 95       	ret

00000bfe <_ZL3dprPKc>:
     bfe:	cf 93       	push	r28
     c00:	df 93       	push	r29
     c02:	1f 92       	push	r1
     c04:	1f 92       	push	r1
     c06:	cd b7       	in	r28, 0x3d	; 61
     c08:	de b7       	in	r29, 0x3e	; 62
     c0a:	9a 83       	std	Y+2, r25	; 0x02
     c0c:	89 83       	std	Y+1, r24	; 0x01
     c0e:	89 81       	ldd	r24, Y+1	; 0x01
     c10:	9a 81       	ldd	r25, Y+2	; 0x02
     c12:	0e 94 ae 03 	call	0x75c	; 0x75c <debug_print>
     c16:	0f 90       	pop	r0
     c18:	0f 90       	pop	r0
     c1a:	df 91       	pop	r29
     c1c:	cf 91       	pop	r28
     c1e:	08 95       	ret

00000c20 <_ZL3dprj>:
     c20:	cf 93       	push	r28
     c22:	df 93       	push	r29
     c24:	1f 92       	push	r1
     c26:	1f 92       	push	r1
     c28:	cd b7       	in	r28, 0x3d	; 61
     c2a:	de b7       	in	r29, 0x3e	; 62
     c2c:	9a 83       	std	Y+2, r25	; 0x02
     c2e:	89 83       	std	Y+1, r24	; 0x01
     c30:	89 81       	ldd	r24, Y+1	; 0x01
     c32:	9a 81       	ldd	r25, Y+2	; 0x02
     c34:	0e 94 77 04 	call	0x8ee	; 0x8ee <debug_printdec_unsigned_int>
     c38:	0f 90       	pop	r0
     c3a:	0f 90       	pop	r0
     c3c:	df 91       	pop	r29
     c3e:	cf 91       	pop	r28
     c40:	08 95       	ret

00000c42 <_ZL3dpri>:
     c42:	cf 93       	push	r28
     c44:	df 93       	push	r29
     c46:	1f 92       	push	r1
     c48:	1f 92       	push	r1
     c4a:	cd b7       	in	r28, 0x3d	; 61
     c4c:	de b7       	in	r29, 0x3e	; 62
     c4e:	9a 83       	std	Y+2, r25	; 0x02
     c50:	89 83       	std	Y+1, r24	; 0x01
     c52:	89 81       	ldd	r24, Y+1	; 0x01
     c54:	9a 81       	ldd	r25, Y+2	; 0x02
     c56:	0e 94 d6 03 	call	0x7ac	; 0x7ac <debug_printdec_signed_int>
     c5a:	0f 90       	pop	r0
     c5c:	0f 90       	pop	r0
     c5e:	df 91       	pop	r29
     c60:	cf 91       	pop	r28
     c62:	08 95       	ret

00000c64 <irqtable_stub>:
     c64:	cf 93       	push	r28
     c66:	df 93       	push	r29
     c68:	00 d0       	rcall	.+0      	; 0xc6a <irqtable_stub+0x6>
     c6a:	1f 92       	push	r1
     c6c:	cd b7       	in	r28, 0x3d	; 61
     c6e:	de b7       	in	r29, 0x3e	; 62
     c70:	9c 83       	std	Y+4, r25	; 0x04
     c72:	8b 83       	std	Y+3, r24	; 0x03
     c74:	0e 94 e9 05 	call	0xbd2	; 0xbd2 <irqs_disable>
     c78:	8c e1       	ldi	r24, 0x1C	; 28
     c7a:	92 e0       	ldi	r25, 0x02	; 2
     c7c:	0e 94 ff 05 	call	0xbfe	; 0xbfe <_ZL3dprPKc>
     c80:	8b 81       	ldd	r24, Y+3	; 0x03
     c82:	9c 81       	ldd	r25, Y+4	; 0x04
     c84:	9a 83       	std	Y+2, r25	; 0x02
     c86:	89 83       	std	Y+1, r24	; 0x01
     c88:	ce 01       	movw	r24, r28
     c8a:	01 96       	adiw	r24, 0x01	; 1
     c8c:	0e 94 2b 07 	call	0xe56	; 0xe56 <_Z5dprlnIJjEEvDpRKT_>
     c90:	ff cf       	rjmp	.-2      	; 0xc90 <irqtable_stub+0x2c>

00000c92 <irqtable_init>:
     c92:	cf 93       	push	r28
     c94:	df 93       	push	r29
     c96:	1f 92       	push	r1
     c98:	1f 92       	push	r1
     c9a:	cd b7       	in	r28, 0x3d	; 61
     c9c:	de b7       	in	r29, 0x3e	; 62
     c9e:	1a 82       	std	Y+2, r1	; 0x02
     ca0:	19 82       	std	Y+1, r1	; 0x01
     ca2:	89 81       	ldd	r24, Y+1	; 0x01
     ca4:	9a 81       	ldd	r25, Y+2	; 0x02
     ca6:	c8 97       	sbiw	r24, 0x38	; 56
     ca8:	a4 f5       	brge	.+104    	; 0xd12 <irqtable_init+0x80>
     caa:	29 81       	ldd	r18, Y+1	; 0x01
     cac:	3a 81       	ldd	r19, Y+2	; 0x02
     cae:	c9 01       	movw	r24, r18
     cb0:	88 0f       	add	r24, r24
     cb2:	99 1f       	adc	r25, r25
     cb4:	82 0f       	add	r24, r18
     cb6:	93 1f       	adc	r25, r19
     cb8:	88 0f       	add	r24, r24
     cba:	99 1f       	adc	r25, r25
     cbc:	88 56       	subi	r24, 0x68	; 104
     cbe:	9a 4f       	sbci	r25, 0xFA	; 250
     cc0:	22 e3       	ldi	r18, 0x32	; 50
     cc2:	36 e0       	ldi	r19, 0x06	; 6
     cc4:	fc 01       	movw	r30, r24
     cc6:	31 83       	std	Z+1, r19	; 0x01
     cc8:	20 83       	st	Z, r18
     cca:	49 81       	ldd	r20, Y+1	; 0x01
     ccc:	5a 81       	ldd	r21, Y+2	; 0x02
     cce:	29 81       	ldd	r18, Y+1	; 0x01
     cd0:	3a 81       	ldd	r19, Y+2	; 0x02
     cd2:	c9 01       	movw	r24, r18
     cd4:	88 0f       	add	r24, r24
     cd6:	99 1f       	adc	r25, r25
     cd8:	82 0f       	add	r24, r18
     cda:	93 1f       	adc	r25, r19
     cdc:	88 0f       	add	r24, r24
     cde:	99 1f       	adc	r25, r25
     ce0:	86 56       	subi	r24, 0x66	; 102
     ce2:	9a 4f       	sbci	r25, 0xFA	; 250
     ce4:	fc 01       	movw	r30, r24
     ce6:	51 83       	std	Z+1, r21	; 0x01
     ce8:	40 83       	st	Z, r20
     cea:	29 81       	ldd	r18, Y+1	; 0x01
     cec:	3a 81       	ldd	r19, Y+2	; 0x02
     cee:	c9 01       	movw	r24, r18
     cf0:	88 0f       	add	r24, r24
     cf2:	99 1f       	adc	r25, r25
     cf4:	82 0f       	add	r24, r18
     cf6:	93 1f       	adc	r25, r19
     cf8:	88 0f       	add	r24, r24
     cfa:	99 1f       	adc	r25, r25
     cfc:	84 56       	subi	r24, 0x64	; 100
     cfe:	9a 4f       	sbci	r25, 0xFA	; 250
     d00:	fc 01       	movw	r30, r24
     d02:	11 82       	std	Z+1, r1	; 0x01
     d04:	10 82       	st	Z, r1
     d06:	89 81       	ldd	r24, Y+1	; 0x01
     d08:	9a 81       	ldd	r25, Y+2	; 0x02
     d0a:	01 96       	adiw	r24, 0x01	; 1
     d0c:	9a 83       	std	Y+2, r25	; 0x02
     d0e:	89 83       	std	Y+1, r24	; 0x01
     d10:	c8 cf       	rjmp	.-112    	; 0xca2 <irqtable_init+0x10>
     d12:	0f 90       	pop	r0
     d14:	0f 90       	pop	r0
     d16:	df 91       	pop	r29
     d18:	cf 91       	pop	r28
     d1a:	08 95       	ret

00000d1c <irqtable_set_handler>:
     d1c:	cf 93       	push	r28
     d1e:	df 93       	push	r29
     d20:	00 d0       	rcall	.+0      	; 0xd22 <irqtable_set_handler+0x6>
     d22:	00 d0       	rcall	.+0      	; 0xd24 <irqtable_set_handler+0x8>
     d24:	cd b7       	in	r28, 0x3d	; 61
     d26:	de b7       	in	r29, 0x3e	; 62
     d28:	9a 83       	std	Y+2, r25	; 0x02
     d2a:	89 83       	std	Y+1, r24	; 0x01
     d2c:	7c 83       	std	Y+4, r23	; 0x04
     d2e:	6b 83       	std	Y+3, r22	; 0x03
     d30:	5e 83       	std	Y+6, r21	; 0x06
     d32:	4d 83       	std	Y+5, r20	; 0x05
     d34:	89 81       	ldd	r24, Y+1	; 0x01
     d36:	9a 81       	ldd	r25, Y+2	; 0x02
     d38:	9a 83       	std	Y+2, r25	; 0x02
     d3a:	89 83       	std	Y+1, r24	; 0x01
     d3c:	29 81       	ldd	r18, Y+1	; 0x01
     d3e:	3a 81       	ldd	r19, Y+2	; 0x02
     d40:	c9 01       	movw	r24, r18
     d42:	88 0f       	add	r24, r24
     d44:	99 1f       	adc	r25, r25
     d46:	82 0f       	add	r24, r18
     d48:	93 1f       	adc	r25, r19
     d4a:	88 0f       	add	r24, r24
     d4c:	99 1f       	adc	r25, r25
     d4e:	88 56       	subi	r24, 0x68	; 104
     d50:	9a 4f       	sbci	r25, 0xFA	; 250
     d52:	2b 81       	ldd	r18, Y+3	; 0x03
     d54:	3c 81       	ldd	r19, Y+4	; 0x04
     d56:	fc 01       	movw	r30, r24
     d58:	31 83       	std	Z+1, r19	; 0x01
     d5a:	20 83       	st	Z, r18
     d5c:	29 81       	ldd	r18, Y+1	; 0x01
     d5e:	3a 81       	ldd	r19, Y+2	; 0x02
     d60:	c9 01       	movw	r24, r18
     d62:	88 0f       	add	r24, r24
     d64:	99 1f       	adc	r25, r25
     d66:	82 0f       	add	r24, r18
     d68:	93 1f       	adc	r25, r19
     d6a:	88 0f       	add	r24, r24
     d6c:	99 1f       	adc	r25, r25
     d6e:	86 56       	subi	r24, 0x66	; 102
     d70:	9a 4f       	sbci	r25, 0xFA	; 250
     d72:	2d 81       	ldd	r18, Y+5	; 0x05
     d74:	3e 81       	ldd	r19, Y+6	; 0x06
     d76:	fc 01       	movw	r30, r24
     d78:	31 83       	std	Z+1, r19	; 0x01
     d7a:	20 83       	st	Z, r18
     d7c:	26 96       	adiw	r28, 0x06	; 6
     d7e:	0f b6       	in	r0, 0x3f	; 63
     d80:	f8 94       	cli
     d82:	de bf       	out	0x3e, r29	; 62
     d84:	0f be       	out	0x3f, r0	; 63
     d86:	cd bf       	out	0x3d, r28	; 61
     d88:	df 91       	pop	r29
     d8a:	cf 91       	pop	r28
     d8c:	08 95       	ret

00000d8e <_Z22print_irqtable_commandiPPc>:
     d8e:	cf 93       	push	r28
     d90:	df 93       	push	r29
     d92:	00 d0       	rcall	.+0      	; 0xd94 <_Z22print_irqtable_commandiPPc+0x6>
     d94:	00 d0       	rcall	.+0      	; 0xd96 <_Z22print_irqtable_commandiPPc+0x8>
     d96:	cd b7       	in	r28, 0x3d	; 61
     d98:	de b7       	in	r29, 0x3e	; 62
     d9a:	9c 83       	std	Y+4, r25	; 0x04
     d9c:	8b 83       	std	Y+3, r24	; 0x03
     d9e:	7e 83       	std	Y+6, r23	; 0x06
     da0:	6d 83       	std	Y+5, r22	; 0x05
     da2:	86 e2       	ldi	r24, 0x26	; 38
     da4:	92 e0       	ldi	r25, 0x02	; 2
     da6:	0e 94 41 07 	call	0xe82	; 0xe82 <_Z5dprlnIJA12_cEEvDpRKT_>
     daa:	1a 82       	std	Y+2, r1	; 0x02
     dac:	19 82       	std	Y+1, r1	; 0x01
     dae:	89 81       	ldd	r24, Y+1	; 0x01
     db0:	9a 81       	ldd	r25, Y+2	; 0x02
     db2:	c8 97       	sbiw	r24, 0x38	; 56
     db4:	0c f0       	brlt	.+2      	; 0xdb8 <_Z22print_irqtable_commandiPPc+0x2a>
     db6:	44 c0       	rjmp	.+136    	; 0xe40 <_Z22print_irqtable_commandiPPc+0xb2>
     db8:	89 81       	ldd	r24, Y+1	; 0x01
     dba:	9a 81       	ldd	r25, Y+2	; 0x02
     dbc:	0e 94 21 06 	call	0xc42	; 0xc42 <_ZL3dpri>
     dc0:	82 e3       	ldi	r24, 0x32	; 50
     dc2:	92 e0       	ldi	r25, 0x02	; 2
     dc4:	0e 94 ff 05 	call	0xbfe	; 0xbfe <_ZL3dprPKc>
     dc8:	29 81       	ldd	r18, Y+1	; 0x01
     dca:	3a 81       	ldd	r19, Y+2	; 0x02
     dcc:	c9 01       	movw	r24, r18
     dce:	88 0f       	add	r24, r24
     dd0:	99 1f       	adc	r25, r25
     dd2:	82 0f       	add	r24, r18
     dd4:	93 1f       	adc	r25, r19
     dd6:	88 0f       	add	r24, r24
     dd8:	99 1f       	adc	r25, r25
     dda:	88 56       	subi	r24, 0x68	; 104
     ddc:	9a 4f       	sbci	r25, 0xFA	; 250
     dde:	fc 01       	movw	r30, r24
     de0:	80 81       	ld	r24, Z
     de2:	91 81       	ldd	r25, Z+1	; 0x01
     de4:	0e 94 e3 04 	call	0x9c6	; 0x9c6 <dprptr>
     de8:	85 e3       	ldi	r24, 0x35	; 53
     dea:	92 e0       	ldi	r25, 0x02	; 2
     dec:	0e 94 ff 05 	call	0xbfe	; 0xbfe <_ZL3dprPKc>
     df0:	29 81       	ldd	r18, Y+1	; 0x01
     df2:	3a 81       	ldd	r19, Y+2	; 0x02
     df4:	c9 01       	movw	r24, r18
     df6:	88 0f       	add	r24, r24
     df8:	99 1f       	adc	r25, r25
     dfa:	82 0f       	add	r24, r18
     dfc:	93 1f       	adc	r25, r19
     dfe:	88 0f       	add	r24, r24
     e00:	99 1f       	adc	r25, r25
     e02:	86 56       	subi	r24, 0x66	; 102
     e04:	9a 4f       	sbci	r25, 0xFA	; 250
     e06:	fc 01       	movw	r30, r24
     e08:	80 81       	ld	r24, Z
     e0a:	91 81       	ldd	r25, Z+1	; 0x01
     e0c:	0e 94 e3 04 	call	0x9c6	; 0x9c6 <dprptr>
     e10:	85 e3       	ldi	r24, 0x35	; 53
     e12:	92 e0       	ldi	r25, 0x02	; 2
     e14:	0e 94 ff 05 	call	0xbfe	; 0xbfe <_ZL3dprPKc>
     e18:	29 81       	ldd	r18, Y+1	; 0x01
     e1a:	3a 81       	ldd	r19, Y+2	; 0x02
     e1c:	c9 01       	movw	r24, r18
     e1e:	88 0f       	add	r24, r24
     e20:	99 1f       	adc	r25, r25
     e22:	82 0f       	add	r24, r18
     e24:	93 1f       	adc	r25, r19
     e26:	88 0f       	add	r24, r24
     e28:	99 1f       	adc	r25, r25
     e2a:	04 96       	adiw	r24, 0x04	; 4
     e2c:	88 56       	subi	r24, 0x68	; 104
     e2e:	9a 4f       	sbci	r25, 0xFA	; 250
     e30:	0e 94 54 07 	call	0xea8	; 0xea8 <_Z5dprlnIJVjEEvDpRKT_>
     e34:	89 81       	ldd	r24, Y+1	; 0x01
     e36:	9a 81       	ldd	r25, Y+2	; 0x02
     e38:	01 96       	adiw	r24, 0x01	; 1
     e3a:	9a 83       	std	Y+2, r25	; 0x02
     e3c:	89 83       	std	Y+1, r24	; 0x01
     e3e:	b7 cf       	rjmp	.-146    	; 0xdae <_Z22print_irqtable_commandiPPc+0x20>
     e40:	80 e0       	ldi	r24, 0x00	; 0
     e42:	90 e0       	ldi	r25, 0x00	; 0
     e44:	26 96       	adiw	r28, 0x06	; 6
     e46:	0f b6       	in	r0, 0x3f	; 63
     e48:	f8 94       	cli
     e4a:	de bf       	out	0x3e, r29	; 62
     e4c:	0f be       	out	0x3f, r0	; 63
     e4e:	cd bf       	out	0x3d, r28	; 61
     e50:	df 91       	pop	r29
     e52:	cf 91       	pop	r28
     e54:	08 95       	ret

00000e56 <_Z5dprlnIJjEEvDpRKT_>:
     e56:	cf 93       	push	r28
     e58:	df 93       	push	r29
     e5a:	1f 92       	push	r1
     e5c:	1f 92       	push	r1
     e5e:	cd b7       	in	r28, 0x3d	; 61
     e60:	de b7       	in	r29, 0x3e	; 62
     e62:	9a 83       	std	Y+2, r25	; 0x02
     e64:	89 83       	std	Y+1, r24	; 0x01
     e66:	89 81       	ldd	r24, Y+1	; 0x01
     e68:	9a 81       	ldd	r25, Y+2	; 0x02
     e6a:	fc 01       	movw	r30, r24
     e6c:	80 81       	ld	r24, Z
     e6e:	91 81       	ldd	r25, Z+1	; 0x01
     e70:	0e 94 10 06 	call	0xc20	; 0xc20 <_ZL3dprj>
     e74:	0e 94 f2 05 	call	0xbe4	; 0xbe4 <debug_print_newline>
     e78:	0f 90       	pop	r0
     e7a:	0f 90       	pop	r0
     e7c:	df 91       	pop	r29
     e7e:	cf 91       	pop	r28
     e80:	08 95       	ret

00000e82 <_Z5dprlnIJA12_cEEvDpRKT_>:
     e82:	cf 93       	push	r28
     e84:	df 93       	push	r29
     e86:	1f 92       	push	r1
     e88:	1f 92       	push	r1
     e8a:	cd b7       	in	r28, 0x3d	; 61
     e8c:	de b7       	in	r29, 0x3e	; 62
     e8e:	9a 83       	std	Y+2, r25	; 0x02
     e90:	89 83       	std	Y+1, r24	; 0x01
     e92:	89 81       	ldd	r24, Y+1	; 0x01
     e94:	9a 81       	ldd	r25, Y+2	; 0x02
     e96:	0e 94 ff 05 	call	0xbfe	; 0xbfe <_ZL3dprPKc>
     e9a:	0e 94 f2 05 	call	0xbe4	; 0xbe4 <debug_print_newline>
     e9e:	0f 90       	pop	r0
     ea0:	0f 90       	pop	r0
     ea2:	df 91       	pop	r29
     ea4:	cf 91       	pop	r28
     ea6:	08 95       	ret

00000ea8 <_Z5dprlnIJVjEEvDpRKT_>:
     ea8:	cf 93       	push	r28
     eaa:	df 93       	push	r29
     eac:	1f 92       	push	r1
     eae:	1f 92       	push	r1
     eb0:	cd b7       	in	r28, 0x3d	; 61
     eb2:	de b7       	in	r29, 0x3e	; 62
     eb4:	9a 83       	std	Y+2, r25	; 0x02
     eb6:	89 83       	std	Y+1, r24	; 0x01
     eb8:	89 81       	ldd	r24, Y+1	; 0x01
     eba:	9a 81       	ldd	r25, Y+2	; 0x02
     ebc:	fc 01       	movw	r30, r24
     ebe:	80 81       	ld	r24, Z
     ec0:	91 81       	ldd	r25, Z+1	; 0x01
     ec2:	0e 94 10 06 	call	0xc20	; 0xc20 <_ZL3dprj>
     ec6:	0e 94 f2 05 	call	0xbe4	; 0xbe4 <debug_print_newline>
     eca:	0f 90       	pop	r0
     ecc:	0f 90       	pop	r0
     ece:	df 91       	pop	r29
     ed0:	cf 91       	pop	r28
     ed2:	08 95       	ret

00000ed4 <_Z41__static_initialization_and_destruction_0ii.lto_priv.4>:
     ed4:	0f 93       	push	r16
     ed6:	1f 93       	push	r17
     ed8:	cf 93       	push	r28
     eda:	df 93       	push	r29
     edc:	00 d0       	rcall	.+0      	; 0xede <_Z41__static_initialization_and_destruction_0ii.lto_priv.4+0xa>
     ede:	1f 92       	push	r1
     ee0:	cd b7       	in	r28, 0x3d	; 61
     ee2:	de b7       	in	r29, 0x3e	; 62
     ee4:	9a 83       	std	Y+2, r25	; 0x02
     ee6:	89 83       	std	Y+1, r24	; 0x01
     ee8:	7c 83       	std	Y+4, r23	; 0x04
     eea:	6b 83       	std	Y+3, r22	; 0x03
     eec:	89 81       	ldd	r24, Y+1	; 0x01
     eee:	9a 81       	ldd	r25, Y+2	; 0x02
     ef0:	01 97       	sbiw	r24, 0x01	; 1
     ef2:	c9 f4       	brne	.+50     	; 0xf26 <_Z41__static_initialization_and_destruction_0ii.lto_priv.4+0x52>
     ef4:	8b 81       	ldd	r24, Y+3	; 0x03
     ef6:	9c 81       	ldd	r25, Y+4	; 0x04
     ef8:	01 96       	adiw	r24, 0x01	; 1
     efa:	a9 f4       	brne	.+42     	; 0xf26 <_Z41__static_initialization_and_destruction_0ii.lto_priv.4+0x52>
     efc:	08 ee       	ldi	r16, 0xE8	; 232
     efe:	16 e0       	ldi	r17, 0x06	; 6
     f00:	20 e0       	ldi	r18, 0x00	; 0
     f02:	30 e0       	ldi	r19, 0x00	; 0
     f04:	47 ec       	ldi	r20, 0xC7	; 199
     f06:	56 e0       	ldi	r21, 0x06	; 6
     f08:	67 e3       	ldi	r22, 0x37	; 55
     f0a:	72 e0       	ldi	r23, 0x02	; 2
     f0c:	c8 01       	movw	r24, r16
     f0e:	0e 94 4f 10 	call	0x209e	; 0x209e <_ZN5igris15console_commandC1EPKcPFiiPPcES2_>
     f12:	c8 01       	movw	r24, r16
     f14:	07 96       	adiw	r24, 0x07	; 7
     f16:	20 e0       	ldi	r18, 0x00	; 0
     f18:	30 e0       	ldi	r19, 0x00	; 0
     f1a:	40 e0       	ldi	r20, 0x00	; 0
     f1c:	50 e0       	ldi	r21, 0x00	; 0
     f1e:	60 e0       	ldi	r22, 0x00	; 0
     f20:	70 e0       	ldi	r23, 0x00	; 0
     f22:	0e 94 b7 10 	call	0x216e	; 0x216e <_ZN5igris15console_commandC1EPKcPvS2_>
     f26:	0f 90       	pop	r0
     f28:	0f 90       	pop	r0
     f2a:	0f 90       	pop	r0
     f2c:	0f 90       	pop	r0
     f2e:	df 91       	pop	r29
     f30:	cf 91       	pop	r28
     f32:	1f 91       	pop	r17
     f34:	0f 91       	pop	r16
     f36:	08 95       	ret

00000f38 <_GLOBAL__sub_I___interrupt_context>:
     f38:	cf 93       	push	r28
     f3a:	df 93       	push	r29
     f3c:	cd b7       	in	r28, 0x3d	; 61
     f3e:	de b7       	in	r29, 0x3e	; 62
     f40:	6f ef       	ldi	r22, 0xFF	; 255
     f42:	7f ef       	ldi	r23, 0xFF	; 255
     f44:	81 e0       	ldi	r24, 0x01	; 1
     f46:	90 e0       	ldi	r25, 0x00	; 0
     f48:	0e 94 6a 07 	call	0xed4	; 0xed4 <_Z41__static_initialization_and_destruction_0ii.lto_priv.4>
     f4c:	df 91       	pop	r29
     f4e:	cf 91       	pop	r28
     f50:	08 95       	ret

00000f52 <systime_set_frequency>:
     f52:	cf 93       	push	r28
     f54:	df 93       	push	r29
     f56:	00 d0       	rcall	.+0      	; 0xf58 <systime_set_frequency+0x6>
     f58:	1f 92       	push	r1
     f5a:	cd b7       	in	r28, 0x3d	; 61
     f5c:	de b7       	in	r29, 0x3e	; 62
     f5e:	69 83       	std	Y+1, r22	; 0x01
     f60:	7a 83       	std	Y+2, r23	; 0x02
     f62:	8b 83       	std	Y+3, r24	; 0x03
     f64:	9c 83       	std	Y+4, r25	; 0x04
     f66:	89 81       	ldd	r24, Y+1	; 0x01
     f68:	9a 81       	ldd	r25, Y+2	; 0x02
     f6a:	ab 81       	ldd	r26, Y+3	; 0x03
     f6c:	bc 81       	ldd	r27, Y+4	; 0x04
     f6e:	80 93 10 02 	sts	0x0210, r24	; 0x800210 <system_frequency>
     f72:	90 93 11 02 	sts	0x0211, r25	; 0x800211 <system_frequency+0x1>
     f76:	a0 93 12 02 	sts	0x0212, r26	; 0x800212 <system_frequency+0x2>
     f7a:	b0 93 13 02 	sts	0x0213, r27	; 0x800213 <system_frequency+0x3>
     f7e:	80 e0       	ldi	r24, 0x00	; 0
     f80:	98 ee       	ldi	r25, 0xE8	; 232
     f82:	a3 e0       	ldi	r26, 0x03	; 3
     f84:	b0 e0       	ldi	r27, 0x00	; 0
     f86:	29 81       	ldd	r18, Y+1	; 0x01
     f88:	3a 81       	ldd	r19, Y+2	; 0x02
     f8a:	4b 81       	ldd	r20, Y+3	; 0x03
     f8c:	5c 81       	ldd	r21, Y+4	; 0x04
     f8e:	bc 01       	movw	r22, r24
     f90:	cd 01       	movw	r24, r26
     f92:	0e 94 74 21 	call	0x42e8	; 0x42e8 <__udivmodsi4>
     f96:	da 01       	movw	r26, r20
     f98:	c9 01       	movw	r24, r18
     f9a:	80 93 14 02 	sts	0x0214, r24	; 0x800214 <jiffies_to_millis>
     f9e:	90 93 15 02 	sts	0x0215, r25	; 0x800215 <jiffies_to_millis+0x1>
     fa2:	a0 93 16 02 	sts	0x0216, r26	; 0x800216 <jiffies_to_millis+0x2>
     fa6:	b0 93 17 02 	sts	0x0217, r27	; 0x800217 <jiffies_to_millis+0x3>
     faa:	80 e0       	ldi	r24, 0x00	; 0
     fac:	90 ea       	ldi	r25, 0xA0	; 160
     fae:	af e0       	ldi	r26, 0x0F	; 15
     fb0:	b0 e0       	ldi	r27, 0x00	; 0
     fb2:	80 93 18 02 	sts	0x0218, r24	; 0x800218 <lopart_to_micros>
     fb6:	90 93 19 02 	sts	0x0219, r25	; 0x800219 <lopart_to_micros+0x1>
     fba:	a0 93 1a 02 	sts	0x021A, r26	; 0x80021a <lopart_to_micros+0x2>
     fbe:	b0 93 1b 02 	sts	0x021B, r27	; 0x80021b <lopart_to_micros+0x3>
     fc2:	0f 90       	pop	r0
     fc4:	0f 90       	pop	r0
     fc6:	0f 90       	pop	r0
     fc8:	0f 90       	pop	r0
     fca:	df 91       	pop	r29
     fcc:	cf 91       	pop	r28
     fce:	08 95       	ret

00000fd0 <system_tick>:
     fd0:	af 92       	push	r10
     fd2:	bf 92       	push	r11
     fd4:	cf 92       	push	r12
     fd6:	df 92       	push	r13
     fd8:	ef 92       	push	r14
     fda:	ff 92       	push	r15
     fdc:	0f 93       	push	r16
     fde:	1f 93       	push	r17
     fe0:	cf 93       	push	r28
     fe2:	df 93       	push	r29
     fe4:	cd b7       	in	r28, 0x3d	; 61
     fe6:	de b7       	in	r29, 0x3e	; 62
     fe8:	a0 90 f6 06 	lds	r10, 0x06F6	; 0x8006f6 <__jiffies>
     fec:	b0 90 f7 06 	lds	r11, 0x06F7	; 0x8006f7 <__jiffies+0x1>
     ff0:	c0 90 f8 06 	lds	r12, 0x06F8	; 0x8006f8 <__jiffies+0x2>
     ff4:	d0 90 f9 06 	lds	r13, 0x06F9	; 0x8006f9 <__jiffies+0x3>
     ff8:	e0 90 fa 06 	lds	r14, 0x06FA	; 0x8006fa <__jiffies+0x4>
     ffc:	f0 90 fb 06 	lds	r15, 0x06FB	; 0x8006fb <__jiffies+0x5>
    1000:	00 91 fc 06 	lds	r16, 0x06FC	; 0x8006fc <__jiffies+0x6>
    1004:	10 91 fd 06 	lds	r17, 0x06FD	; 0x8006fd <__jiffies+0x7>
    1008:	2a 2d       	mov	r18, r10
    100a:	3b 2d       	mov	r19, r11
    100c:	4c 2d       	mov	r20, r12
    100e:	5d 2d       	mov	r21, r13
    1010:	6e 2d       	mov	r22, r14
    1012:	7f 2d       	mov	r23, r15
    1014:	80 2f       	mov	r24, r16
    1016:	91 2f       	mov	r25, r17
    1018:	a1 e0       	ldi	r26, 0x01	; 1
    101a:	0e 94 24 22 	call	0x4448	; 0x4448 <__adddi3_s8>
    101e:	a2 2e       	mov	r10, r18
    1020:	b3 2e       	mov	r11, r19
    1022:	c4 2e       	mov	r12, r20
    1024:	d5 2e       	mov	r13, r21
    1026:	e6 2e       	mov	r14, r22
    1028:	f7 2e       	mov	r15, r23
    102a:	08 2f       	mov	r16, r24
    102c:	19 2f       	mov	r17, r25
    102e:	a0 92 f6 06 	sts	0x06F6, r10	; 0x8006f6 <__jiffies>
    1032:	b0 92 f7 06 	sts	0x06F7, r11	; 0x8006f7 <__jiffies+0x1>
    1036:	c0 92 f8 06 	sts	0x06F8, r12	; 0x8006f8 <__jiffies+0x2>
    103a:	d0 92 f9 06 	sts	0x06F9, r13	; 0x8006f9 <__jiffies+0x3>
    103e:	e0 92 fa 06 	sts	0x06FA, r14	; 0x8006fa <__jiffies+0x4>
    1042:	f0 92 fb 06 	sts	0x06FB, r15	; 0x8006fb <__jiffies+0x5>
    1046:	00 93 fc 06 	sts	0x06FC, r16	; 0x8006fc <__jiffies+0x6>
    104a:	10 93 fd 06 	sts	0x06FD, r17	; 0x8006fd <__jiffies+0x7>
    104e:	df 91       	pop	r29
    1050:	cf 91       	pop	r28
    1052:	1f 91       	pop	r17
    1054:	0f 91       	pop	r16
    1056:	ff 90       	pop	r15
    1058:	ef 90       	pop	r14
    105a:	df 90       	pop	r13
    105c:	cf 90       	pop	r12
    105e:	bf 90       	pop	r11
    1060:	af 90       	pop	r10
    1062:	08 95       	ret

00001064 <_ZN5genos7schedeeC2Ev>:
    1064:	cf 93       	push	r28
    1066:	df 93       	push	r29
    1068:	1f 92       	push	r1
    106a:	1f 92       	push	r1
    106c:	cd b7       	in	r28, 0x3d	; 61
    106e:	de b7       	in	r29, 0x3e	; 62
    1070:	9a 83       	std	Y+2, r25	; 0x02
    1072:	89 83       	std	Y+1, r24	; 0x01
    1074:	2d e3       	ldi	r18, 0x3D	; 61
    1076:	35 e4       	ldi	r19, 0x45	; 69
    1078:	89 81       	ldd	r24, Y+1	; 0x01
    107a:	9a 81       	ldd	r25, Y+2	; 0x02
    107c:	fc 01       	movw	r30, r24
    107e:	31 83       	std	Z+1, r19	; 0x01
    1080:	20 83       	st	Z, r18
    1082:	89 81       	ldd	r24, Y+1	; 0x01
    1084:	9a 81       	ldd	r25, Y+2	; 0x02
    1086:	fc 01       	movw	r30, r24
    1088:	13 8e       	std	Z+27, r1	; 0x1b
    108a:	12 8e       	std	Z+26, r1	; 0x1a
    108c:	89 81       	ldd	r24, Y+1	; 0x01
    108e:	9a 81       	ldd	r25, Y+2	; 0x02
    1090:	fc 01       	movw	r30, r24
    1092:	10 a6       	std	Z+40, r1	; 0x28
    1094:	17 a2       	std	Z+39, r1	; 0x27
    1096:	89 81       	ldd	r24, Y+1	; 0x01
    1098:	9a 81       	ldd	r25, Y+2	; 0x02
    109a:	fc 01       	movw	r30, r24
    109c:	12 a6       	std	Z+42, r1	; 0x2a
    109e:	11 a6       	std	Z+41, r1	; 0x29
    10a0:	0f 90       	pop	r0
    10a2:	0f 90       	pop	r0
    10a4:	df 91       	pop	r29
    10a6:	cf 91       	pop	r28
    10a8:	08 95       	ret

000010aa <_ZN5genos11coopschedeeC1Ev>:
    10aa:	cf 93       	push	r28
    10ac:	df 93       	push	r29
    10ae:	1f 92       	push	r1
    10b0:	1f 92       	push	r1
    10b2:	cd b7       	in	r28, 0x3d	; 61
    10b4:	de b7       	in	r29, 0x3e	; 62
    10b6:	9a 83       	std	Y+2, r25	; 0x02
    10b8:	89 83       	std	Y+1, r24	; 0x01
    10ba:	89 81       	ldd	r24, Y+1	; 0x01
    10bc:	9a 81       	ldd	r25, Y+2	; 0x02
    10be:	0e 94 32 08 	call	0x1064	; 0x1064 <_ZN5genos7schedeeC2Ev>
    10c2:	29 e5       	ldi	r18, 0x59	; 89
    10c4:	35 e4       	ldi	r19, 0x45	; 69
    10c6:	89 81       	ldd	r24, Y+1	; 0x01
    10c8:	9a 81       	ldd	r25, Y+2	; 0x02
    10ca:	fc 01       	movw	r30, r24
    10cc:	31 83       	std	Z+1, r19	; 0x01
    10ce:	20 83       	st	Z, r18
    10d0:	0f 90       	pop	r0
    10d2:	0f 90       	pop	r0
    10d4:	df 91       	pop	r29
    10d6:	cf 91       	pop	r28
    10d8:	08 95       	ret

000010da <_Z41__static_initialization_and_destruction_0ii.lto_priv.5>:
    10da:	cf 93       	push	r28
    10dc:	df 93       	push	r29
    10de:	00 d0       	rcall	.+0      	; 0x10e0 <_Z41__static_initialization_and_destruction_0ii.lto_priv.5+0x6>
    10e0:	1f 92       	push	r1
    10e2:	cd b7       	in	r28, 0x3d	; 61
    10e4:	de b7       	in	r29, 0x3e	; 62
    10e6:	9a 83       	std	Y+2, r25	; 0x02
    10e8:	89 83       	std	Y+1, r24	; 0x01
    10ea:	7c 83       	std	Y+4, r23	; 0x04
    10ec:	6b 83       	std	Y+3, r22	; 0x03
    10ee:	89 81       	ldd	r24, Y+1	; 0x01
    10f0:	9a 81       	ldd	r25, Y+2	; 0x02
    10f2:	01 97       	sbiw	r24, 0x01	; 1
    10f4:	41 f4       	brne	.+16     	; 0x1106 <_Z41__static_initialization_and_destruction_0ii.lto_priv.5+0x2c>
    10f6:	8b 81       	ldd	r24, Y+3	; 0x03
    10f8:	9c 81       	ldd	r25, Y+4	; 0x04
    10fa:	01 96       	adiw	r24, 0x01	; 1
    10fc:	21 f4       	brne	.+8      	; 0x1106 <_Z41__static_initialization_and_destruction_0ii.lto_priv.5+0x2c>
    10fe:	8e ef       	ldi	r24, 0xFE	; 254
    1100:	96 e0       	ldi	r25, 0x06	; 6
    1102:	0e 94 55 08 	call	0x10aa	; 0x10aa <_ZN5genos11coopschedeeC1Ev>
    1106:	0f 90       	pop	r0
    1108:	0f 90       	pop	r0
    110a:	0f 90       	pop	r0
    110c:	0f 90       	pop	r0
    110e:	df 91       	pop	r29
    1110:	cf 91       	pop	r28
    1112:	08 95       	ret

00001114 <_GLOBAL__sub_I_utildata>:
    1114:	cf 93       	push	r28
    1116:	df 93       	push	r29
    1118:	cd b7       	in	r28, 0x3d	; 61
    111a:	de b7       	in	r29, 0x3e	; 62
    111c:	6f ef       	ldi	r22, 0xFF	; 255
    111e:	7f ef       	ldi	r23, 0xFF	; 255
    1120:	81 e0       	ldi	r24, 0x01	; 1
    1122:	90 e0       	ldi	r25, 0x00	; 0
    1124:	0e 94 6d 08 	call	0x10da	; 0x10da <_Z41__static_initialization_and_destruction_0ii.lto_priv.5>
    1128:	df 91       	pop	r29
    112a:	cf 91       	pop	r28
    112c:	08 95       	ret

0000112e <debug_strlen.lto_priv.2>:
    112e:	cf 93       	push	r28
    1130:	df 93       	push	r29
    1132:	00 d0       	rcall	.+0      	; 0x1134 <debug_strlen.lto_priv.2+0x6>
    1134:	1f 92       	push	r1
    1136:	cd b7       	in	r28, 0x3d	; 61
    1138:	de b7       	in	r29, 0x3e	; 62
    113a:	9c 83       	std	Y+4, r25	; 0x04
    113c:	8b 83       	std	Y+3, r24	; 0x03
    113e:	1a 82       	std	Y+2, r1	; 0x02
    1140:	19 82       	std	Y+1, r1	; 0x01
    1142:	05 c0       	rjmp	.+10     	; 0x114e <debug_strlen.lto_priv.2+0x20>
    1144:	89 81       	ldd	r24, Y+1	; 0x01
    1146:	9a 81       	ldd	r25, Y+2	; 0x02
    1148:	01 96       	adiw	r24, 0x01	; 1
    114a:	9a 83       	std	Y+2, r25	; 0x02
    114c:	89 83       	std	Y+1, r24	; 0x01
    114e:	89 81       	ldd	r24, Y+1	; 0x01
    1150:	9a 81       	ldd	r25, Y+2	; 0x02
    1152:	2b 81       	ldd	r18, Y+3	; 0x03
    1154:	3c 81       	ldd	r19, Y+4	; 0x04
    1156:	82 0f       	add	r24, r18
    1158:	93 1f       	adc	r25, r19
    115a:	fc 01       	movw	r30, r24
    115c:	80 81       	ld	r24, Z
    115e:	88 23       	and	r24, r24
    1160:	89 f7       	brne	.-30     	; 0x1144 <debug_strlen.lto_priv.2+0x16>
    1162:	89 81       	ldd	r24, Y+1	; 0x01
    1164:	9a 81       	ldd	r25, Y+2	; 0x02
    1166:	0f 90       	pop	r0
    1168:	0f 90       	pop	r0
    116a:	0f 90       	pop	r0
    116c:	0f 90       	pop	r0
    116e:	df 91       	pop	r29
    1170:	cf 91       	pop	r28
    1172:	08 95       	ret

00001174 <debug_printdec_uint64>:
    1174:	2f 92       	push	r2
    1176:	3f 92       	push	r3
    1178:	4f 92       	push	r4
    117a:	5f 92       	push	r5
    117c:	6f 92       	push	r6
    117e:	7f 92       	push	r7
    1180:	8f 92       	push	r8
    1182:	9f 92       	push	r9
    1184:	af 92       	push	r10
    1186:	bf 92       	push	r11
    1188:	cf 92       	push	r12
    118a:	df 92       	push	r13
    118c:	ef 92       	push	r14
    118e:	ff 92       	push	r15
    1190:	0f 93       	push	r16
    1192:	1f 93       	push	r17
    1194:	cf 93       	push	r28
    1196:	df 93       	push	r29
    1198:	cd b7       	in	r28, 0x3d	; 61
    119a:	de b7       	in	r29, 0x3e	; 62
    119c:	a4 97       	sbiw	r28, 0x24	; 36
    119e:	0f b6       	in	r0, 0x3f	; 63
    11a0:	f8 94       	cli
    11a2:	de bf       	out	0x3e, r29	; 62
    11a4:	0f be       	out	0x3f, r0	; 63
    11a6:	cd bf       	out	0x3d, r28	; 61
    11a8:	2d 8f       	std	Y+29, r18	; 0x1d
    11aa:	3e 8f       	std	Y+30, r19	; 0x1e
    11ac:	4f 8f       	std	Y+31, r20	; 0x1f
    11ae:	58 a3       	std	Y+32, r21	; 0x20
    11b0:	69 a3       	std	Y+33, r22	; 0x21
    11b2:	7a a3       	std	Y+34, r23	; 0x22
    11b4:	8b a3       	std	Y+35, r24	; 0x23
    11b6:	9c a3       	std	Y+36, r25	; 0x24
    11b8:	ce 01       	movw	r24, r28
    11ba:	05 96       	adiw	r24, 0x05	; 5
    11bc:	48 96       	adiw	r24, 0x18	; 24
    11be:	9c 83       	std	Y+4, r25	; 0x04
    11c0:	8b 83       	std	Y+3, r24	; 0x03
    11c2:	8b 81       	ldd	r24, Y+3	; 0x03
    11c4:	9c 81       	ldd	r25, Y+4	; 0x04
    11c6:	9a 83       	std	Y+2, r25	; 0x02
    11c8:	89 83       	std	Y+1, r24	; 0x01
    11ca:	ad 8c       	ldd	r10, Y+29	; 0x1d
    11cc:	be 8c       	ldd	r11, Y+30	; 0x1e
    11ce:	cf 8c       	ldd	r12, Y+31	; 0x1f
    11d0:	d8 a0       	ldd	r13, Y+32	; 0x20
    11d2:	e9 a0       	ldd	r14, Y+33	; 0x21
    11d4:	fa a0       	ldd	r15, Y+34	; 0x22
    11d6:	0b a1       	ldd	r16, Y+35	; 0x23
    11d8:	1c a1       	ldd	r17, Y+36	; 0x24
    11da:	2a 2d       	mov	r18, r10
    11dc:	3b 2d       	mov	r19, r11
    11de:	4c 2d       	mov	r20, r12
    11e0:	5d 2d       	mov	r21, r13
    11e2:	6e 2d       	mov	r22, r14
    11e4:	7f 2d       	mov	r23, r15
    11e6:	80 2f       	mov	r24, r16
    11e8:	91 2f       	mov	r25, r17
    11ea:	a0 e0       	ldi	r26, 0x00	; 0
    11ec:	0e 94 30 22 	call	0x4460	; 0x4460 <__cmpdi2_s8>
    11f0:	19 f4       	brne	.+6      	; 0x11f8 <debug_printdec_uint64+0x84>
    11f2:	80 e3       	ldi	r24, 0x30	; 48
    11f4:	0e 94 71 0e 	call	0x1ce2	; 0x1ce2 <debug_putchar>
    11f8:	89 81       	ldd	r24, Y+1	; 0x01
    11fa:	9a 81       	ldd	r25, Y+2	; 0x02
    11fc:	01 97       	sbiw	r24, 0x01	; 1
    11fe:	9a 83       	std	Y+2, r25	; 0x02
    1200:	89 83       	std	Y+1, r24	; 0x01
    1202:	89 81       	ldd	r24, Y+1	; 0x01
    1204:	9a 81       	ldd	r25, Y+2	; 0x02
    1206:	fc 01       	movw	r30, r24
    1208:	10 82       	st	Z, r1
    120a:	66 c0       	rjmp	.+204    	; 0x12d8 <debug_printdec_uint64+0x164>
    120c:	89 81       	ldd	r24, Y+1	; 0x01
    120e:	9a 81       	ldd	r25, Y+2	; 0x02
    1210:	01 97       	sbiw	r24, 0x01	; 1
    1212:	9a 83       	std	Y+2, r25	; 0x02
    1214:	89 83       	std	Y+1, r24	; 0x01
    1216:	2d 8c       	ldd	r2, Y+29	; 0x1d
    1218:	3e 8c       	ldd	r3, Y+30	; 0x1e
    121a:	4f 8c       	ldd	r4, Y+31	; 0x1f
    121c:	58 a0       	ldd	r5, Y+32	; 0x20
    121e:	69 a0       	ldd	r6, Y+33	; 0x21
    1220:	7a a0       	ldd	r7, Y+34	; 0x22
    1222:	8b a0       	ldd	r8, Y+35	; 0x23
    1224:	9c a0       	ldd	r9, Y+36	; 0x24
    1226:	0f 2e       	mov	r0, r31
    1228:	fa e0       	ldi	r31, 0x0A	; 10
    122a:	af 2e       	mov	r10, r31
    122c:	f0 2d       	mov	r31, r0
    122e:	b1 2c       	mov	r11, r1
    1230:	c1 2c       	mov	r12, r1
    1232:	d1 2c       	mov	r13, r1
    1234:	e1 2c       	mov	r14, r1
    1236:	f1 2c       	mov	r15, r1
    1238:	00 e0       	ldi	r16, 0x00	; 0
    123a:	10 e0       	ldi	r17, 0x00	; 0
    123c:	22 2d       	mov	r18, r2
    123e:	33 2d       	mov	r19, r3
    1240:	44 2d       	mov	r20, r4
    1242:	55 2d       	mov	r21, r5
    1244:	66 2d       	mov	r22, r6
    1246:	77 2d       	mov	r23, r7
    1248:	88 2d       	mov	r24, r8
    124a:	99 2d       	mov	r25, r9
    124c:	0e 94 b5 21 	call	0x436a	; 0x436a <__umoddi3>
    1250:	a2 2e       	mov	r10, r18
    1252:	b3 2e       	mov	r11, r19
    1254:	c4 2e       	mov	r12, r20
    1256:	d5 2e       	mov	r13, r21
    1258:	e6 2e       	mov	r14, r22
    125a:	f7 2e       	mov	r15, r23
    125c:	08 2f       	mov	r16, r24
    125e:	19 2f       	mov	r17, r25
    1260:	2a 2d       	mov	r18, r10
    1262:	3b 2d       	mov	r19, r11
    1264:	4c 2d       	mov	r20, r12
    1266:	5d 2d       	mov	r21, r13
    1268:	6e 2d       	mov	r22, r14
    126a:	7f 2d       	mov	r23, r15
    126c:	80 2f       	mov	r24, r16
    126e:	91 2f       	mov	r25, r17
    1270:	82 2f       	mov	r24, r18
    1272:	80 5d       	subi	r24, 0xD0	; 208
    1274:	28 2f       	mov	r18, r24
    1276:	89 81       	ldd	r24, Y+1	; 0x01
    1278:	9a 81       	ldd	r25, Y+2	; 0x02
    127a:	fc 01       	movw	r30, r24
    127c:	20 83       	st	Z, r18
    127e:	2d 8c       	ldd	r2, Y+29	; 0x1d
    1280:	3e 8c       	ldd	r3, Y+30	; 0x1e
    1282:	4f 8c       	ldd	r4, Y+31	; 0x1f
    1284:	58 a0       	ldd	r5, Y+32	; 0x20
    1286:	69 a0       	ldd	r6, Y+33	; 0x21
    1288:	7a a0       	ldd	r7, Y+34	; 0x22
    128a:	8b a0       	ldd	r8, Y+35	; 0x23
    128c:	9c a0       	ldd	r9, Y+36	; 0x24
    128e:	0f 2e       	mov	r0, r31
    1290:	fa e0       	ldi	r31, 0x0A	; 10
    1292:	af 2e       	mov	r10, r31
    1294:	f0 2d       	mov	r31, r0
    1296:	b1 2c       	mov	r11, r1
    1298:	c1 2c       	mov	r12, r1
    129a:	d1 2c       	mov	r13, r1
    129c:	e1 2c       	mov	r14, r1
    129e:	f1 2c       	mov	r15, r1
    12a0:	00 e0       	ldi	r16, 0x00	; 0
    12a2:	10 e0       	ldi	r17, 0x00	; 0
    12a4:	22 2d       	mov	r18, r2
    12a6:	33 2d       	mov	r19, r3
    12a8:	44 2d       	mov	r20, r4
    12aa:	55 2d       	mov	r21, r5
    12ac:	66 2d       	mov	r22, r6
    12ae:	77 2d       	mov	r23, r7
    12b0:	88 2d       	mov	r24, r8
    12b2:	99 2d       	mov	r25, r9
    12b4:	0e 94 b7 21 	call	0x436e	; 0x436e <__udivdi3>
    12b8:	a2 2e       	mov	r10, r18
    12ba:	b3 2e       	mov	r11, r19
    12bc:	c4 2e       	mov	r12, r20
    12be:	d5 2e       	mov	r13, r21
    12c0:	e6 2e       	mov	r14, r22
    12c2:	f7 2e       	mov	r15, r23
    12c4:	08 2f       	mov	r16, r24
    12c6:	19 2f       	mov	r17, r25
    12c8:	ad 8e       	std	Y+29, r10	; 0x1d
    12ca:	be 8e       	std	Y+30, r11	; 0x1e
    12cc:	cf 8e       	std	Y+31, r12	; 0x1f
    12ce:	d8 a2       	std	Y+32, r13	; 0x20
    12d0:	e9 a2       	std	Y+33, r14	; 0x21
    12d2:	fa a2       	std	Y+34, r15	; 0x22
    12d4:	0b a3       	std	Y+35, r16	; 0x23
    12d6:	1c a3       	std	Y+36, r17	; 0x24
    12d8:	ad 8c       	ldd	r10, Y+29	; 0x1d
    12da:	be 8c       	ldd	r11, Y+30	; 0x1e
    12dc:	cf 8c       	ldd	r12, Y+31	; 0x1f
    12de:	d8 a0       	ldd	r13, Y+32	; 0x20
    12e0:	e9 a0       	ldd	r14, Y+33	; 0x21
    12e2:	fa a0       	ldd	r15, Y+34	; 0x22
    12e4:	0b a1       	ldd	r16, Y+35	; 0x23
    12e6:	1c a1       	ldd	r17, Y+36	; 0x24
    12e8:	2a 2d       	mov	r18, r10
    12ea:	3b 2d       	mov	r19, r11
    12ec:	4c 2d       	mov	r20, r12
    12ee:	5d 2d       	mov	r21, r13
    12f0:	6e 2d       	mov	r22, r14
    12f2:	7f 2d       	mov	r23, r15
    12f4:	80 2f       	mov	r24, r16
    12f6:	91 2f       	mov	r25, r17
    12f8:	a0 e0       	ldi	r26, 0x00	; 0
    12fa:	0e 94 30 22 	call	0x4460	; 0x4460 <__cmpdi2_s8>
    12fe:	09 f0       	breq	.+2      	; 0x1302 <debug_printdec_uint64+0x18e>
    1300:	85 cf       	rjmp	.-246    	; 0x120c <debug_printdec_uint64+0x98>
    1302:	89 81       	ldd	r24, Y+1	; 0x01
    1304:	9a 81       	ldd	r25, Y+2	; 0x02
    1306:	0e 94 ae 03 	call	0x75c	; 0x75c <debug_print>
    130a:	a4 96       	adiw	r28, 0x24	; 36
    130c:	0f b6       	in	r0, 0x3f	; 63
    130e:	f8 94       	cli
    1310:	de bf       	out	0x3e, r29	; 62
    1312:	0f be       	out	0x3f, r0	; 63
    1314:	cd bf       	out	0x3d, r28	; 61
    1316:	df 91       	pop	r29
    1318:	cf 91       	pop	r28
    131a:	1f 91       	pop	r17
    131c:	0f 91       	pop	r16
    131e:	ff 90       	pop	r15
    1320:	ef 90       	pop	r14
    1322:	df 90       	pop	r13
    1324:	cf 90       	pop	r12
    1326:	bf 90       	pop	r11
    1328:	af 90       	pop	r10
    132a:	9f 90       	pop	r9
    132c:	8f 90       	pop	r8
    132e:	7f 90       	pop	r7
    1330:	6f 90       	pop	r6
    1332:	5f 90       	pop	r5
    1334:	4f 90       	pop	r4
    1336:	3f 90       	pop	r3
    1338:	2f 90       	pop	r2
    133a:	08 95       	ret

0000133c <debug_printhex_uint4>:
    133c:	cf 93       	push	r28
    133e:	df 93       	push	r29
    1340:	1f 92       	push	r1
    1342:	1f 92       	push	r1
    1344:	cd b7       	in	r28, 0x3d	; 61
    1346:	de b7       	in	r29, 0x3e	; 62
    1348:	8a 83       	std	Y+2, r24	; 0x02
    134a:	8a 81       	ldd	r24, Y+2	; 0x02
    134c:	8a 30       	cpi	r24, 0x0A	; 10
    134e:	18 f4       	brcc	.+6      	; 0x1356 <debug_printhex_uint4+0x1a>
    1350:	8a 81       	ldd	r24, Y+2	; 0x02
    1352:	80 5d       	subi	r24, 0xD0	; 208
    1354:	02 c0       	rjmp	.+4      	; 0x135a <debug_printhex_uint4+0x1e>
    1356:	8a 81       	ldd	r24, Y+2	; 0x02
    1358:	89 5c       	subi	r24, 0xC9	; 201
    135a:	89 83       	std	Y+1, r24	; 0x01
    135c:	89 81       	ldd	r24, Y+1	; 0x01
    135e:	0e 94 71 0e 	call	0x1ce2	; 0x1ce2 <debug_putchar>
    1362:	0f 90       	pop	r0
    1364:	0f 90       	pop	r0
    1366:	df 91       	pop	r29
    1368:	cf 91       	pop	r28
    136a:	08 95       	ret

0000136c <debug_printhex_uint8>:
    136c:	cf 93       	push	r28
    136e:	df 93       	push	r29
    1370:	1f 92       	push	r1
    1372:	cd b7       	in	r28, 0x3d	; 61
    1374:	de b7       	in	r29, 0x3e	; 62
    1376:	89 83       	std	Y+1, r24	; 0x01
    1378:	89 81       	ldd	r24, Y+1	; 0x01
    137a:	82 95       	swap	r24
    137c:	8f 70       	andi	r24, 0x0F	; 15
    137e:	0e 94 9e 09 	call	0x133c	; 0x133c <debug_printhex_uint4>
    1382:	89 81       	ldd	r24, Y+1	; 0x01
    1384:	8f 70       	andi	r24, 0x0F	; 15
    1386:	0e 94 9e 09 	call	0x133c	; 0x133c <debug_printhex_uint4>
    138a:	0f 90       	pop	r0
    138c:	df 91       	pop	r29
    138e:	cf 91       	pop	r28
    1390:	08 95       	ret

00001392 <debug_print_newline.lto_priv.32>:
    1392:	cf 93       	push	r28
    1394:	df 93       	push	r29
    1396:	cd b7       	in	r28, 0x3d	; 61
    1398:	de b7       	in	r29, 0x3e	; 62
    139a:	8d e0       	ldi	r24, 0x0D	; 13
    139c:	0e 94 71 0e 	call	0x1ce2	; 0x1ce2 <debug_putchar>
    13a0:	8a e0       	ldi	r24, 0x0A	; 10
    13a2:	0e 94 71 0e 	call	0x1ce2	; 0x1ce2 <debug_putchar>
    13a6:	df 91       	pop	r29
    13a8:	cf 91       	pop	r28
    13aa:	08 95       	ret

000013ac <debug_print_location.lto_priv.39>:
    13ac:	cf 93       	push	r28
    13ae:	df 93       	push	r29
    13b0:	00 d0       	rcall	.+0      	; 0x13b2 <debug_print_location.lto_priv.39+0x6>
    13b2:	00 d0       	rcall	.+0      	; 0x13b4 <debug_print_location.lto_priv.39+0x8>
    13b4:	cd b7       	in	r28, 0x3d	; 61
    13b6:	de b7       	in	r29, 0x3e	; 62
    13b8:	49 83       	std	Y+1, r20	; 0x01
    13ba:	5a 83       	std	Y+2, r21	; 0x02
    13bc:	6b 83       	std	Y+3, r22	; 0x03
    13be:	7c 83       	std	Y+4, r23	; 0x04
    13c0:	8d 83       	std	Y+5, r24	; 0x05
    13c2:	9e 83       	std	Y+6, r25	; 0x06
    13c4:	87 e7       	ldi	r24, 0x77	; 119
    13c6:	92 e0       	ldi	r25, 0x02	; 2
    13c8:	0e 94 ae 03 	call	0x75c	; 0x75c <debug_print>
    13cc:	8b 81       	ldd	r24, Y+3	; 0x03
    13ce:	9c 81       	ldd	r25, Y+4	; 0x04
    13d0:	0e 94 ae 03 	call	0x75c	; 0x75c <debug_print>
    13d4:	0e 94 c9 09 	call	0x1392	; 0x1392 <debug_print_newline.lto_priv.32>
    13d8:	8e e7       	ldi	r24, 0x7E	; 126
    13da:	92 e0       	ldi	r25, 0x02	; 2
    13dc:	0e 94 ae 03 	call	0x75c	; 0x75c <debug_print>
    13e0:	8d 81       	ldd	r24, Y+5	; 0x05
    13e2:	9e 81       	ldd	r25, Y+6	; 0x06
    13e4:	0e 94 ae 03 	call	0x75c	; 0x75c <debug_print>
    13e8:	0e 94 c9 09 	call	0x1392	; 0x1392 <debug_print_newline.lto_priv.32>
    13ec:	85 e8       	ldi	r24, 0x85	; 133
    13ee:	92 e0       	ldi	r25, 0x02	; 2
    13f0:	0e 94 ae 03 	call	0x75c	; 0x75c <debug_print>
    13f4:	89 81       	ldd	r24, Y+1	; 0x01
    13f6:	9a 81       	ldd	r25, Y+2	; 0x02
    13f8:	0e 94 77 04 	call	0x8ee	; 0x8ee <debug_printdec_unsigned_int>
    13fc:	0e 94 c9 09 	call	0x1392	; 0x1392 <debug_print_newline.lto_priv.32>
    1400:	26 96       	adiw	r28, 0x06	; 6
    1402:	0f b6       	in	r0, 0x3f	; 63
    1404:	f8 94       	cli
    1406:	de bf       	out	0x3e, r29	; 62
    1408:	0f be       	out	0x3f, r0	; 63
    140a:	cd bf       	out	0x3d, r28	; 61
    140c:	df 91       	pop	r29
    140e:	cf 91       	pop	r28
    1410:	08 95       	ret

00001412 <_ZN5genos11coopschedee7executeEv>:
    1412:	cf 93       	push	r28
    1414:	df 93       	push	r29
    1416:	1f 92       	push	r1
    1418:	1f 92       	push	r1
    141a:	cd b7       	in	r28, 0x3d	; 61
    141c:	de b7       	in	r29, 0x3e	; 62
    141e:	9a 83       	std	Y+2, r25	; 0x02
    1420:	89 83       	std	Y+1, r24	; 0x01
    1422:	89 81       	ldd	r24, Y+1	; 0x01
    1424:	9a 81       	ldd	r25, Y+2	; 0x02
    1426:	8b 96       	adiw	r24, 0x2b	; 43
    1428:	0e 94 03 03 	call	0x606	; 0x606 <context_load>
    142c:	0f 90       	pop	r0
    142e:	0f 90       	pop	r0
    1430:	df 91       	pop	r29
    1432:	cf 91       	pop	r28
    1434:	08 95       	ret

00001436 <_ZN5genos11coopschedee8displaceEv>:
    1436:	cf 93       	push	r28
    1438:	df 93       	push	r29
    143a:	1f 92       	push	r1
    143c:	1f 92       	push	r1
    143e:	cd b7       	in	r28, 0x3d	; 61
    1440:	de b7       	in	r29, 0x3e	; 62
    1442:	9a 83       	std	Y+2, r25	; 0x02
    1444:	89 83       	std	Y+1, r24	; 0x01
    1446:	89 81       	ldd	r24, Y+1	; 0x01
    1448:	9a 81       	ldd	r25, Y+2	; 0x02
    144a:	fc 01       	movw	r30, r24
    144c:	24 a1       	ldd	r18, Z+36	; 0x24
    144e:	2e 7f       	andi	r18, 0xFE	; 254
    1450:	fc 01       	movw	r30, r24
    1452:	24 a3       	std	Z+36, r18	; 0x24
    1454:	89 81       	ldd	r24, Y+1	; 0x01
    1456:	9a 81       	ldd	r25, Y+2	; 0x02
    1458:	8b 96       	adiw	r24, 0x2b	; 43
    145a:	0e 94 38 03 	call	0x670	; 0x670 <context_save_and_displace>
    145e:	80 e0       	ldi	r24, 0x00	; 0
    1460:	90 e0       	ldi	r25, 0x00	; 0
    1462:	0f 90       	pop	r0
    1464:	0f 90       	pop	r0
    1466:	df 91       	pop	r29
    1468:	cf 91       	pop	r28
    146a:	08 95       	ret

0000146c <_ZN5genos11coopschedee8finalizeEv>:
    146c:	cf 93       	push	r28
    146e:	df 93       	push	r29
    1470:	cd b7       	in	r28, 0x3d	; 61
    1472:	de b7       	in	r29, 0x3e	; 62
    1474:	2e 97       	sbiw	r28, 0x0e	; 14
    1476:	0f b6       	in	r0, 0x3f	; 63
    1478:	f8 94       	cli
    147a:	de bf       	out	0x3e, r29	; 62
    147c:	0f be       	out	0x3f, r0	; 63
    147e:	cd bf       	out	0x3d, r28	; 61
    1480:	9e 87       	std	Y+14, r25	; 0x0e
    1482:	8d 87       	std	Y+13, r24	; 0x0d
    1484:	8d 85       	ldd	r24, Y+13	; 0x0d
    1486:	9e 85       	ldd	r25, Y+14	; 0x0e
    1488:	fc 01       	movw	r30, r24
    148a:	84 a1       	ldd	r24, Z+36	; 0x24
    148c:	80 71       	andi	r24, 0x10	; 16
    148e:	88 23       	and	r24, r24
    1490:	99 f0       	breq	.+38     	; 0x14b8 <_ZN5genos11coopschedee8finalizeEv+0x4c>
    1492:	86 e0       	ldi	r24, 0x06	; 6
    1494:	ef ef       	ldi	r30, 0xFF	; 255
    1496:	f2 e0       	ldi	r31, 0x02	; 2
    1498:	de 01       	movw	r26, r28
    149a:	17 96       	adiw	r26, 0x07	; 7
    149c:	01 90       	ld	r0, Z+
    149e:	0d 92       	st	X+, r0
    14a0:	8a 95       	dec	r24
    14a2:	e1 f7       	brne	.-8      	; 0x149c <_ZN5genos11coopschedee8finalizeEv+0x30>
    14a4:	4f 81       	ldd	r20, Y+7	; 0x07
    14a6:	58 85       	ldd	r21, Y+8	; 0x08
    14a8:	69 85       	ldd	r22, Y+9	; 0x09
    14aa:	7a 85       	ldd	r23, Y+10	; 0x0a
    14ac:	8b 85       	ldd	r24, Y+11	; 0x0b
    14ae:	9c 85       	ldd	r25, Y+12	; 0x0c
    14b0:	0e 94 d6 09 	call	0x13ac	; 0x13ac <debug_print_location.lto_priv.39>
    14b4:	0e 94 6b 0e 	call	0x1cd6	; 0x1cd6 <bug_impl>
    14b8:	8d 85       	ldd	r24, Y+13	; 0x0d
    14ba:	9e 85       	ldd	r25, Y+14	; 0x0e
    14bc:	fc 01       	movw	r30, r24
    14be:	84 a1       	ldd	r24, Z+36	; 0x24
    14c0:	88 70       	andi	r24, 0x08	; 8
    14c2:	88 23       	and	r24, r24
    14c4:	a1 f0       	breq	.+40     	; 0x14ee <_ZN5genos11coopschedee8finalizeEv+0x82>
    14c6:	26 e0       	ldi	r18, 0x06	; 6
    14c8:	e5 e0       	ldi	r30, 0x05	; 5
    14ca:	f3 e0       	ldi	r31, 0x03	; 3
    14cc:	ce 01       	movw	r24, r28
    14ce:	01 96       	adiw	r24, 0x01	; 1
    14d0:	dc 01       	movw	r26, r24
    14d2:	01 90       	ld	r0, Z+
    14d4:	0d 92       	st	X+, r0
    14d6:	2a 95       	dec	r18
    14d8:	e1 f7       	brne	.-8      	; 0x14d2 <_ZN5genos11coopschedee8finalizeEv+0x66>
    14da:	49 81       	ldd	r20, Y+1	; 0x01
    14dc:	5a 81       	ldd	r21, Y+2	; 0x02
    14de:	6b 81       	ldd	r22, Y+3	; 0x03
    14e0:	7c 81       	ldd	r23, Y+4	; 0x04
    14e2:	8d 81       	ldd	r24, Y+5	; 0x05
    14e4:	9e 81       	ldd	r25, Y+6	; 0x06
    14e6:	0e 94 d6 09 	call	0x13ac	; 0x13ac <debug_print_location.lto_priv.39>
    14ea:	0e 94 6b 0e 	call	0x1cd6	; 0x1cd6 <bug_impl>
    14ee:	2e 96       	adiw	r28, 0x0e	; 14
    14f0:	0f b6       	in	r0, 0x3f	; 63
    14f2:	f8 94       	cli
    14f4:	de bf       	out	0x3e, r29	; 62
    14f6:	0f be       	out	0x3f, r0	; 63
    14f8:	cd bf       	out	0x3d, r28	; 61
    14fa:	df 91       	pop	r29
    14fc:	cf 91       	pop	r28
    14fe:	08 95       	ret

00001500 <_ZN5genos6restbl4sizeEv>:
    1500:	cf 93       	push	r28
    1502:	df 93       	push	r29
    1504:	1f 92       	push	r1
    1506:	1f 92       	push	r1
    1508:	cd b7       	in	r28, 0x3d	; 61
    150a:	de b7       	in	r29, 0x3e	; 62
    150c:	9a 83       	std	Y+2, r25	; 0x02
    150e:	89 83       	std	Y+1, r24	; 0x01
    1510:	89 81       	ldd	r24, Y+1	; 0x01
    1512:	9a 81       	ldd	r25, Y+2	; 0x02
    1514:	fc 01       	movw	r30, r24
    1516:	82 81       	ldd	r24, Z+2	; 0x02
    1518:	93 81       	ldd	r25, Z+3	; 0x03
    151a:	0f 90       	pop	r0
    151c:	0f 90       	pop	r0
    151e:	df 91       	pop	r29
    1520:	cf 91       	pop	r28
    1522:	08 95       	ret

00001524 <_ZN5genos6restblixEi>:
    1524:	cf 93       	push	r28
    1526:	df 93       	push	r29
    1528:	00 d0       	rcall	.+0      	; 0x152a <_ZN5genos6restblixEi+0x6>
    152a:	1f 92       	push	r1
    152c:	cd b7       	in	r28, 0x3d	; 61
    152e:	de b7       	in	r29, 0x3e	; 62
    1530:	9a 83       	std	Y+2, r25	; 0x02
    1532:	89 83       	std	Y+1, r24	; 0x01
    1534:	7c 83       	std	Y+4, r23	; 0x04
    1536:	6b 83       	std	Y+3, r22	; 0x03
    1538:	89 81       	ldd	r24, Y+1	; 0x01
    153a:	9a 81       	ldd	r25, Y+2	; 0x02
    153c:	fc 01       	movw	r30, r24
    153e:	22 81       	ldd	r18, Z+2	; 0x02
    1540:	33 81       	ldd	r19, Z+3	; 0x03
    1542:	8b 81       	ldd	r24, Y+3	; 0x03
    1544:	9c 81       	ldd	r25, Y+4	; 0x04
    1546:	82 17       	cp	r24, r18
    1548:	93 07       	cpc	r25, r19
    154a:	1c f0       	brlt	.+6      	; 0x1552 <_ZN5genos6restblixEi+0x2e>
    154c:	80 e0       	ldi	r24, 0x00	; 0
    154e:	90 e0       	ldi	r25, 0x00	; 0
    1550:	0d c0       	rjmp	.+26     	; 0x156c <_ZN5genos6restblixEi+0x48>
    1552:	89 81       	ldd	r24, Y+1	; 0x01
    1554:	9a 81       	ldd	r25, Y+2	; 0x02
    1556:	fc 01       	movw	r30, r24
    1558:	20 81       	ld	r18, Z
    155a:	31 81       	ldd	r19, Z+1	; 0x01
    155c:	8b 81       	ldd	r24, Y+3	; 0x03
    155e:	9c 81       	ldd	r25, Y+4	; 0x04
    1560:	88 0f       	add	r24, r24
    1562:	99 1f       	adc	r25, r25
    1564:	88 0f       	add	r24, r24
    1566:	99 1f       	adc	r25, r25
    1568:	82 0f       	add	r24, r18
    156a:	93 1f       	adc	r25, r19
    156c:	0f 90       	pop	r0
    156e:	0f 90       	pop	r0
    1570:	0f 90       	pop	r0
    1572:	0f 90       	pop	r0
    1574:	df 91       	pop	r29
    1576:	cf 91       	pop	r28
    1578:	08 95       	ret

0000157a <_ZL17_get_schedee_filei>:
    157a:	cf 93       	push	r28
    157c:	df 93       	push	r29
    157e:	00 d0       	rcall	.+0      	; 0x1580 <_ZL17_get_schedee_filei+0x6>
    1580:	1f 92       	push	r1
    1582:	cd b7       	in	r28, 0x3d	; 61
    1584:	de b7       	in	r29, 0x3e	; 62
    1586:	9c 83       	std	Y+4, r25	; 0x04
    1588:	8b 83       	std	Y+3, r24	; 0x03
    158a:	0e 94 f3 10 	call	0x21e6	; 0x21e6 <current_schedee>
    158e:	9a 83       	std	Y+2, r25	; 0x02
    1590:	89 83       	std	Y+1, r24	; 0x01
    1592:	89 81       	ldd	r24, Y+1	; 0x01
    1594:	9a 81       	ldd	r25, Y+2	; 0x02
    1596:	fc 01       	movw	r30, r24
    1598:	87 a1       	ldd	r24, Z+39	; 0x27
    159a:	90 a5       	ldd	r25, Z+40	; 0x28
    159c:	0e 94 80 0a 	call	0x1500	; 0x1500 <_ZN5genos6restbl4sizeEv>
    15a0:	9c 01       	movw	r18, r24
    15a2:	41 e0       	ldi	r20, 0x01	; 1
    15a4:	8b 81       	ldd	r24, Y+3	; 0x03
    15a6:	9c 81       	ldd	r25, Y+4	; 0x04
    15a8:	82 17       	cp	r24, r18
    15aa:	93 07       	cpc	r25, r19
    15ac:	0c f4       	brge	.+2      	; 0x15b0 <_ZL17_get_schedee_filei+0x36>
    15ae:	40 e0       	ldi	r20, 0x00	; 0
    15b0:	44 23       	and	r20, r20
    15b2:	59 f0       	breq	.+22     	; 0x15ca <_ZL17_get_schedee_filei+0x50>
    15b4:	0e 94 c4 05 	call	0xb88	; 0xb88 <__errno_location>
    15b8:	9c 01       	movw	r18, r24
    15ba:	89 e0       	ldi	r24, 0x09	; 9
    15bc:	90 e0       	ldi	r25, 0x00	; 0
    15be:	f9 01       	movw	r30, r18
    15c0:	91 83       	std	Z+1, r25	; 0x01
    15c2:	80 83       	st	Z, r24
    15c4:	80 e0       	ldi	r24, 0x00	; 0
    15c6:	90 e0       	ldi	r25, 0x00	; 0
    15c8:	0a c0       	rjmp	.+20     	; 0x15de <_ZL17_get_schedee_filei+0x64>
    15ca:	89 81       	ldd	r24, Y+1	; 0x01
    15cc:	9a 81       	ldd	r25, Y+2	; 0x02
    15ce:	fc 01       	movw	r30, r24
    15d0:	87 a1       	ldd	r24, Z+39	; 0x27
    15d2:	90 a5       	ldd	r25, Z+40	; 0x28
    15d4:	2b 81       	ldd	r18, Y+3	; 0x03
    15d6:	3c 81       	ldd	r19, Y+4	; 0x04
    15d8:	b9 01       	movw	r22, r18
    15da:	0e 94 92 0a 	call	0x1524	; 0x1524 <_ZN5genos6restblixEi>
    15de:	0f 90       	pop	r0
    15e0:	0f 90       	pop	r0
    15e2:	0f 90       	pop	r0
    15e4:	0f 90       	pop	r0
    15e6:	df 91       	pop	r29
    15e8:	cf 91       	pop	r28
    15ea:	08 95       	ret

000015ec <write>:
    15ec:	cf 93       	push	r28
    15ee:	df 93       	push	r29
    15f0:	cd b7       	in	r28, 0x3d	; 61
    15f2:	de b7       	in	r29, 0x3e	; 62
    15f4:	2c 97       	sbiw	r28, 0x0c	; 12
    15f6:	0f b6       	in	r0, 0x3f	; 63
    15f8:	f8 94       	cli
    15fa:	de bf       	out	0x3e, r29	; 62
    15fc:	0f be       	out	0x3f, r0	; 63
    15fe:	cd bf       	out	0x3d, r28	; 61
    1600:	98 87       	std	Y+8, r25	; 0x08
    1602:	8f 83       	std	Y+7, r24	; 0x07
    1604:	7a 87       	std	Y+10, r23	; 0x0a
    1606:	69 87       	std	Y+9, r22	; 0x09
    1608:	5c 87       	std	Y+12, r21	; 0x0c
    160a:	4b 87       	std	Y+11, r20	; 0x0b
    160c:	8f 81       	ldd	r24, Y+7	; 0x07
    160e:	98 85       	ldd	r25, Y+8	; 0x08
    1610:	0e 94 bd 0a 	call	0x157a	; 0x157a <_ZL17_get_schedee_filei>
    1614:	9a 83       	std	Y+2, r25	; 0x02
    1616:	89 83       	std	Y+1, r24	; 0x01
    1618:	89 81       	ldd	r24, Y+1	; 0x01
    161a:	9a 81       	ldd	r25, Y+2	; 0x02
    161c:	89 2b       	or	r24, r25
    161e:	59 f4       	brne	.+22     	; 0x1636 <write+0x4a>
    1620:	0e 94 c4 05 	call	0xb88	; 0xb88 <__errno_location>
    1624:	9c 01       	movw	r18, r24
    1626:	87 ef       	ldi	r24, 0xF7	; 247
    1628:	9f ef       	ldi	r25, 0xFF	; 255
    162a:	d9 01       	movw	r26, r18
    162c:	8d 93       	st	X+, r24
    162e:	9c 93       	st	X, r25
    1630:	8f ef       	ldi	r24, 0xFF	; 255
    1632:	9f ef       	ldi	r25, 0xFF	; 255
    1634:	40 c0       	rjmp	.+128    	; 0x16b6 <write+0xca>
    1636:	89 81       	ldd	r24, Y+1	; 0x01
    1638:	9a 81       	ldd	r25, Y+2	; 0x02
    163a:	fc 01       	movw	r30, r24
    163c:	80 81       	ld	r24, Z
    163e:	91 81       	ldd	r25, Z+1	; 0x01
    1640:	9c 83       	std	Y+4, r25	; 0x04
    1642:	8b 83       	std	Y+3, r24	; 0x03
    1644:	8b 81       	ldd	r24, Y+3	; 0x03
    1646:	9c 81       	ldd	r25, Y+4	; 0x04
    1648:	dc 01       	movw	r26, r24
    164a:	8d 91       	ld	r24, X+
    164c:	9c 91       	ld	r25, X
    164e:	04 96       	adiw	r24, 0x04	; 4
    1650:	fc 01       	movw	r30, r24
    1652:	20 81       	ld	r18, Z
    1654:	31 81       	ldd	r19, Z+1	; 0x01
    1656:	8b 81       	ldd	r24, Y+3	; 0x03
    1658:	9c 81       	ldd	r25, Y+4	; 0x04
    165a:	f9 01       	movw	r30, r18
    165c:	19 95       	eicall
    165e:	81 70       	andi	r24, 0x01	; 1
    1660:	99 27       	eor	r25, r25
    1662:	21 e0       	ldi	r18, 0x01	; 1
    1664:	89 2b       	or	r24, r25
    1666:	09 f0       	breq	.+2      	; 0x166a <write+0x7e>
    1668:	20 e0       	ldi	r18, 0x00	; 0
    166a:	22 23       	and	r18, r18
    166c:	59 f0       	breq	.+22     	; 0x1684 <write+0x98>
    166e:	0e 94 c4 05 	call	0xb88	; 0xb88 <__errno_location>
    1672:	9c 01       	movw	r18, r24
    1674:	81 ea       	ldi	r24, 0xA1	; 161
    1676:	9f ef       	ldi	r25, 0xFF	; 255
    1678:	d9 01       	movw	r26, r18
    167a:	8d 93       	st	X+, r24
    167c:	9c 93       	st	X, r25
    167e:	8f ef       	ldi	r24, 0xFF	; 255
    1680:	9f ef       	ldi	r25, 0xFF	; 255
    1682:	19 c0       	rjmp	.+50     	; 0x16b6 <write+0xca>
    1684:	89 81       	ldd	r24, Y+1	; 0x01
    1686:	9a 81       	ldd	r25, Y+2	; 0x02
    1688:	fc 01       	movw	r30, r24
    168a:	80 81       	ld	r24, Z
    168c:	91 81       	ldd	r25, Z+1	; 0x01
    168e:	9e 83       	std	Y+6, r25	; 0x06
    1690:	8d 83       	std	Y+5, r24	; 0x05
    1692:	8d 81       	ldd	r24, Y+5	; 0x05
    1694:	9e 81       	ldd	r25, Y+6	; 0x06
    1696:	dc 01       	movw	r26, r24
    1698:	8d 91       	ld	r24, X+
    169a:	9c 91       	ld	r25, X
    169c:	06 96       	adiw	r24, 0x06	; 6
    169e:	dc 01       	movw	r26, r24
    16a0:	ed 91       	ld	r30, X+
    16a2:	fc 91       	ld	r31, X
    16a4:	4b 85       	ldd	r20, Y+11	; 0x0b
    16a6:	5c 85       	ldd	r21, Y+12	; 0x0c
    16a8:	69 85       	ldd	r22, Y+9	; 0x09
    16aa:	7a 85       	ldd	r23, Y+10	; 0x0a
    16ac:	8d 81       	ldd	r24, Y+5	; 0x05
    16ae:	9e 81       	ldd	r25, Y+6	; 0x06
    16b0:	20 e0       	ldi	r18, 0x00	; 0
    16b2:	30 e0       	ldi	r19, 0x00	; 0
    16b4:	19 95       	eicall
    16b6:	2c 96       	adiw	r28, 0x0c	; 12
    16b8:	0f b6       	in	r0, 0x3f	; 63
    16ba:	f8 94       	cli
    16bc:	de bf       	out	0x3e, r29	; 62
    16be:	0f be       	out	0x3f, r0	; 63
    16c0:	cd bf       	out	0x3d, r28	; 61
    16c2:	df 91       	pop	r29
    16c4:	cf 91       	pop	r28
    16c6:	08 95       	ret

000016c8 <_ZN5genos13open_resourceEPNS_8resourceEPNS_7openresEi>:
    16c8:	cf 93       	push	r28
    16ca:	df 93       	push	r29
    16cc:	00 d0       	rcall	.+0      	; 0x16ce <_ZN5genos13open_resourceEPNS_8resourceEPNS_7openresEi+0x6>
    16ce:	00 d0       	rcall	.+0      	; 0x16d0 <_ZN5genos13open_resourceEPNS_8resourceEPNS_7openresEi+0x8>
    16d0:	cd b7       	in	r28, 0x3d	; 61
    16d2:	de b7       	in	r29, 0x3e	; 62
    16d4:	9a 83       	std	Y+2, r25	; 0x02
    16d6:	89 83       	std	Y+1, r24	; 0x01
    16d8:	7c 83       	std	Y+4, r23	; 0x04
    16da:	6b 83       	std	Y+3, r22	; 0x03
    16dc:	5e 83       	std	Y+6, r21	; 0x06
    16de:	4d 83       	std	Y+5, r20	; 0x05
    16e0:	8b 81       	ldd	r24, Y+3	; 0x03
    16e2:	9c 81       	ldd	r25, Y+4	; 0x04
    16e4:	29 81       	ldd	r18, Y+1	; 0x01
    16e6:	3a 81       	ldd	r19, Y+2	; 0x02
    16e8:	fc 01       	movw	r30, r24
    16ea:	31 83       	std	Z+1, r19	; 0x01
    16ec:	20 83       	st	Z, r18
    16ee:	8b 81       	ldd	r24, Y+3	; 0x03
    16f0:	9c 81       	ldd	r25, Y+4	; 0x04
    16f2:	2d 81       	ldd	r18, Y+5	; 0x05
    16f4:	3e 81       	ldd	r19, Y+6	; 0x06
    16f6:	fc 01       	movw	r30, r24
    16f8:	33 83       	std	Z+3, r19	; 0x03
    16fa:	22 83       	std	Z+2, r18	; 0x02
    16fc:	89 81       	ldd	r24, Y+1	; 0x01
    16fe:	9a 81       	ldd	r25, Y+2	; 0x02
    1700:	fc 01       	movw	r30, r24
    1702:	80 81       	ld	r24, Z
    1704:	91 81       	ldd	r25, Z+1	; 0x01
    1706:	02 96       	adiw	r24, 0x02	; 2
    1708:	fc 01       	movw	r30, r24
    170a:	20 81       	ld	r18, Z
    170c:	31 81       	ldd	r19, Z+1	; 0x01
    170e:	4b 81       	ldd	r20, Y+3	; 0x03
    1710:	5c 81       	ldd	r21, Y+4	; 0x04
    1712:	89 81       	ldd	r24, Y+1	; 0x01
    1714:	9a 81       	ldd	r25, Y+2	; 0x02
    1716:	ba 01       	movw	r22, r20
    1718:	f9 01       	movw	r30, r18
    171a:	19 95       	eicall
    171c:	26 96       	adiw	r28, 0x06	; 6
    171e:	0f b6       	in	r0, 0x3f	; 63
    1720:	f8 94       	cli
    1722:	de bf       	out	0x3e, r29	; 62
    1724:	0f be       	out	0x3f, r0	; 63
    1726:	cd bf       	out	0x3d, r28	; 61
    1728:	df 91       	pop	r29
    172a:	cf 91       	pop	r28
    172c:	08 95       	ret

0000172e <_ZN5igris15console_commandC1EPKcPFiiPPcEhS2_>:
    172e:	0f 93       	push	r16
    1730:	1f 93       	push	r17
    1732:	cf 93       	push	r28
    1734:	df 93       	push	r29
    1736:	cd b7       	in	r28, 0x3d	; 61
    1738:	de b7       	in	r29, 0x3e	; 62
    173a:	29 97       	sbiw	r28, 0x09	; 9
    173c:	0f b6       	in	r0, 0x3f	; 63
    173e:	f8 94       	cli
    1740:	de bf       	out	0x3e, r29	; 62
    1742:	0f be       	out	0x3f, r0	; 63
    1744:	cd bf       	out	0x3d, r28	; 61
    1746:	9a 83       	std	Y+2, r25	; 0x02
    1748:	89 83       	std	Y+1, r24	; 0x01
    174a:	7c 83       	std	Y+4, r23	; 0x04
    174c:	6b 83       	std	Y+3, r22	; 0x03
    174e:	5e 83       	std	Y+6, r21	; 0x06
    1750:	4d 83       	std	Y+5, r20	; 0x05
    1752:	2f 83       	std	Y+7, r18	; 0x07
    1754:	19 87       	std	Y+9, r17	; 0x09
    1756:	08 87       	std	Y+8, r16	; 0x08
    1758:	89 81       	ldd	r24, Y+1	; 0x01
    175a:	9a 81       	ldd	r25, Y+2	; 0x02
    175c:	2b 81       	ldd	r18, Y+3	; 0x03
    175e:	3c 81       	ldd	r19, Y+4	; 0x04
    1760:	fc 01       	movw	r30, r24
    1762:	31 83       	std	Z+1, r19	; 0x01
    1764:	20 83       	st	Z, r18
    1766:	89 81       	ldd	r24, Y+1	; 0x01
    1768:	9a 81       	ldd	r25, Y+2	; 0x02
    176a:	2d 81       	ldd	r18, Y+5	; 0x05
    176c:	3e 81       	ldd	r19, Y+6	; 0x06
    176e:	fc 01       	movw	r30, r24
    1770:	33 83       	std	Z+3, r19	; 0x03
    1772:	22 83       	std	Z+2, r18	; 0x02
    1774:	89 81       	ldd	r24, Y+1	; 0x01
    1776:	9a 81       	ldd	r25, Y+2	; 0x02
    1778:	2f 81       	ldd	r18, Y+7	; 0x07
    177a:	fc 01       	movw	r30, r24
    177c:	24 83       	std	Z+4, r18	; 0x04
    177e:	89 81       	ldd	r24, Y+1	; 0x01
    1780:	9a 81       	ldd	r25, Y+2	; 0x02
    1782:	28 85       	ldd	r18, Y+8	; 0x08
    1784:	39 85       	ldd	r19, Y+9	; 0x09
    1786:	fc 01       	movw	r30, r24
    1788:	36 83       	std	Z+6, r19	; 0x06
    178a:	25 83       	std	Z+5, r18	; 0x05
    178c:	29 96       	adiw	r28, 0x09	; 9
    178e:	0f b6       	in	r0, 0x3f	; 63
    1790:	f8 94       	cli
    1792:	de bf       	out	0x3e, r29	; 62
    1794:	0f be       	out	0x3f, r0	; 63
    1796:	cd bf       	out	0x3d, r28	; 61
    1798:	df 91       	pop	r29
    179a:	cf 91       	pop	r28
    179c:	1f 91       	pop	r17
    179e:	0f 91       	pop	r16
    17a0:	08 95       	ret

000017a2 <_Z16change_directoryiPPc>:
    17a2:	cf 93       	push	r28
    17a4:	df 93       	push	r29
    17a6:	00 d0       	rcall	.+0      	; 0x17a8 <_Z16change_directoryiPPc+0x6>
    17a8:	1f 92       	push	r1
    17aa:	cd b7       	in	r28, 0x3d	; 61
    17ac:	de b7       	in	r29, 0x3e	; 62
    17ae:	9a 83       	std	Y+2, r25	; 0x02
    17b0:	89 83       	std	Y+1, r24	; 0x01
    17b2:	7c 83       	std	Y+4, r23	; 0x04
    17b4:	6b 83       	std	Y+3, r22	; 0x03
    17b6:	80 e0       	ldi	r24, 0x00	; 0
    17b8:	90 e0       	ldi	r25, 0x00	; 0
    17ba:	0f 90       	pop	r0
    17bc:	0f 90       	pop	r0
    17be:	0f 90       	pop	r0
    17c0:	0f 90       	pop	r0
    17c2:	df 91       	pop	r29
    17c4:	cf 91       	pop	r28
    17c6:	08 95       	ret

000017c8 <_Z14list_directoryiPPc>:
    17c8:	cf 93       	push	r28
    17ca:	df 93       	push	r29
    17cc:	00 d0       	rcall	.+0      	; 0x17ce <_Z14list_directoryiPPc+0x6>
    17ce:	1f 92       	push	r1
    17d0:	cd b7       	in	r28, 0x3d	; 61
    17d2:	de b7       	in	r29, 0x3e	; 62
    17d4:	9a 83       	std	Y+2, r25	; 0x02
    17d6:	89 83       	std	Y+1, r24	; 0x01
    17d8:	7c 83       	std	Y+4, r23	; 0x04
    17da:	6b 83       	std	Y+3, r22	; 0x03
    17dc:	80 e0       	ldi	r24, 0x00	; 0
    17de:	90 e0       	ldi	r25, 0x00	; 0
    17e0:	0f 90       	pop	r0
    17e2:	0f 90       	pop	r0
    17e4:	0f 90       	pop	r0
    17e6:	0f 90       	pop	r0
    17e8:	df 91       	pop	r29
    17ea:	cf 91       	pop	r28
    17ec:	08 95       	ret

000017ee <_Z41__static_initialization_and_destruction_0ii>:
    17ee:	ef 92       	push	r14
    17f0:	ff 92       	push	r15
    17f2:	0f 93       	push	r16
    17f4:	1f 93       	push	r17
    17f6:	cf 93       	push	r28
    17f8:	df 93       	push	r29
    17fa:	00 d0       	rcall	.+0      	; 0x17fc <_Z41__static_initialization_and_destruction_0ii+0xe>
    17fc:	1f 92       	push	r1
    17fe:	cd b7       	in	r28, 0x3d	; 61
    1800:	de b7       	in	r29, 0x3e	; 62
    1802:	9a 83       	std	Y+2, r25	; 0x02
    1804:	89 83       	std	Y+1, r24	; 0x01
    1806:	7c 83       	std	Y+4, r23	; 0x04
    1808:	6b 83       	std	Y+3, r22	; 0x03
    180a:	89 81       	ldd	r24, Y+1	; 0x01
    180c:	9a 81       	ldd	r25, Y+2	; 0x02
    180e:	01 97       	sbiw	r24, 0x01	; 1
    1810:	f9 f4       	brne	.+62     	; 0x1850 <_Z41__static_initialization_and_destruction_0ii+0x62>
    1812:	8b 81       	ldd	r24, Y+3	; 0x03
    1814:	9c 81       	ldd	r25, Y+4	; 0x04
    1816:	01 96       	adiw	r24, 0x01	; 1
    1818:	d9 f4       	brne	.+54     	; 0x1850 <_Z41__static_initialization_and_destruction_0ii+0x62>
    181a:	0f 2e       	mov	r0, r31
    181c:	f9 e7       	ldi	r31, 0x79	; 121
    181e:	ef 2e       	mov	r14, r31
    1820:	f5 e0       	ldi	r31, 0x05	; 5
    1822:	ff 2e       	mov	r15, r31
    1824:	f0 2d       	mov	r31, r0
    1826:	00 e0       	ldi	r16, 0x00	; 0
    1828:	10 e0       	ldi	r17, 0x00	; 0
    182a:	20 e0       	ldi	r18, 0x00	; 0
    182c:	41 ed       	ldi	r20, 0xD1	; 209
    182e:	5b e0       	ldi	r21, 0x0B	; 11
    1830:	64 e1       	ldi	r22, 0x14	; 20
    1832:	73 e0       	ldi	r23, 0x03	; 3
    1834:	c7 01       	movw	r24, r14
    1836:	0e 94 97 0b 	call	0x172e	; 0x172e <_ZN5igris15console_commandC1EPKcPFiiPPcEhS2_>
    183a:	c7 01       	movw	r24, r14
    183c:	07 96       	adiw	r24, 0x07	; 7
    183e:	00 e0       	ldi	r16, 0x00	; 0
    1840:	10 e0       	ldi	r17, 0x00	; 0
    1842:	20 e0       	ldi	r18, 0x00	; 0
    1844:	44 ee       	ldi	r20, 0xE4	; 228
    1846:	5b e0       	ldi	r21, 0x0B	; 11
    1848:	67 e1       	ldi	r22, 0x17	; 23
    184a:	73 e0       	ldi	r23, 0x03	; 3
    184c:	0e 94 97 0b 	call	0x172e	; 0x172e <_ZN5igris15console_commandC1EPKcPFiiPPcEhS2_>
    1850:	0f 90       	pop	r0
    1852:	0f 90       	pop	r0
    1854:	0f 90       	pop	r0
    1856:	0f 90       	pop	r0
    1858:	df 91       	pop	r29
    185a:	cf 91       	pop	r28
    185c:	1f 91       	pop	r17
    185e:	0f 91       	pop	r16
    1860:	ff 90       	pop	r15
    1862:	ef 90       	pop	r14
    1864:	08 95       	ret

00001866 <_GLOBAL__sub_I__Z16change_directoryiPPc>:
    1866:	cf 93       	push	r28
    1868:	df 93       	push	r29
    186a:	cd b7       	in	r28, 0x3d	; 61
    186c:	de b7       	in	r29, 0x3e	; 62
    186e:	6f ef       	ldi	r22, 0xFF	; 255
    1870:	7f ef       	ldi	r23, 0xFF	; 255
    1872:	81 e0       	ldi	r24, 0x01	; 1
    1874:	90 e0       	ldi	r25, 0x00	; 0
    1876:	0e 94 f7 0b 	call	0x17ee	; 0x17ee <_Z41__static_initialization_and_destruction_0ii>
    187a:	df 91       	pop	r29
    187c:	cf 91       	pop	r28
    187e:	08 95       	ret

00001880 <__dlist_add.lto_priv.16>:
    1880:	cf 93       	push	r28
    1882:	df 93       	push	r29
    1884:	00 d0       	rcall	.+0      	; 0x1886 <__dlist_add.lto_priv.16+0x6>
    1886:	00 d0       	rcall	.+0      	; 0x1888 <__dlist_add.lto_priv.16+0x8>
    1888:	cd b7       	in	r28, 0x3d	; 61
    188a:	de b7       	in	r29, 0x3e	; 62
    188c:	9a 83       	std	Y+2, r25	; 0x02
    188e:	89 83       	std	Y+1, r24	; 0x01
    1890:	7c 83       	std	Y+4, r23	; 0x04
    1892:	6b 83       	std	Y+3, r22	; 0x03
    1894:	5e 83       	std	Y+6, r21	; 0x06
    1896:	4d 83       	std	Y+5, r20	; 0x05
    1898:	89 81       	ldd	r24, Y+1	; 0x01
    189a:	9a 81       	ldd	r25, Y+2	; 0x02
    189c:	2d 81       	ldd	r18, Y+5	; 0x05
    189e:	3e 81       	ldd	r19, Y+6	; 0x06
    18a0:	fc 01       	movw	r30, r24
    18a2:	33 83       	std	Z+3, r19	; 0x03
    18a4:	22 83       	std	Z+2, r18	; 0x02
    18a6:	89 81       	ldd	r24, Y+1	; 0x01
    18a8:	9a 81       	ldd	r25, Y+2	; 0x02
    18aa:	2b 81       	ldd	r18, Y+3	; 0x03
    18ac:	3c 81       	ldd	r19, Y+4	; 0x04
    18ae:	fc 01       	movw	r30, r24
    18b0:	31 83       	std	Z+1, r19	; 0x01
    18b2:	20 83       	st	Z, r18
    18b4:	8b 81       	ldd	r24, Y+3	; 0x03
    18b6:	9c 81       	ldd	r25, Y+4	; 0x04
    18b8:	29 81       	ldd	r18, Y+1	; 0x01
    18ba:	3a 81       	ldd	r19, Y+2	; 0x02
    18bc:	fc 01       	movw	r30, r24
    18be:	33 83       	std	Z+3, r19	; 0x03
    18c0:	22 83       	std	Z+2, r18	; 0x02
    18c2:	8d 81       	ldd	r24, Y+5	; 0x05
    18c4:	9e 81       	ldd	r25, Y+6	; 0x06
    18c6:	29 81       	ldd	r18, Y+1	; 0x01
    18c8:	3a 81       	ldd	r19, Y+2	; 0x02
    18ca:	fc 01       	movw	r30, r24
    18cc:	31 83       	std	Z+1, r19	; 0x01
    18ce:	20 83       	st	Z, r18
    18d0:	26 96       	adiw	r28, 0x06	; 6
    18d2:	0f b6       	in	r0, 0x3f	; 63
    18d4:	f8 94       	cli
    18d6:	de bf       	out	0x3e, r29	; 62
    18d8:	0f be       	out	0x3f, r0	; 63
    18da:	cd bf       	out	0x3d, r28	; 61
    18dc:	df 91       	pop	r29
    18de:	cf 91       	pop	r28
    18e0:	08 95       	ret

000018e2 <dlist_add_next.lto_priv.12>:
    18e2:	cf 93       	push	r28
    18e4:	df 93       	push	r29
    18e6:	00 d0       	rcall	.+0      	; 0x18e8 <dlist_add_next.lto_priv.12+0x6>
    18e8:	1f 92       	push	r1
    18ea:	cd b7       	in	r28, 0x3d	; 61
    18ec:	de b7       	in	r29, 0x3e	; 62
    18ee:	9a 83       	std	Y+2, r25	; 0x02
    18f0:	89 83       	std	Y+1, r24	; 0x01
    18f2:	7c 83       	std	Y+4, r23	; 0x04
    18f4:	6b 83       	std	Y+3, r22	; 0x03
    18f6:	8b 81       	ldd	r24, Y+3	; 0x03
    18f8:	9c 81       	ldd	r25, Y+4	; 0x04
    18fa:	fc 01       	movw	r30, r24
    18fc:	20 81       	ld	r18, Z
    18fe:	31 81       	ldd	r19, Z+1	; 0x01
    1900:	4b 81       	ldd	r20, Y+3	; 0x03
    1902:	5c 81       	ldd	r21, Y+4	; 0x04
    1904:	89 81       	ldd	r24, Y+1	; 0x01
    1906:	9a 81       	ldd	r25, Y+2	; 0x02
    1908:	b9 01       	movw	r22, r18
    190a:	0e 94 40 0c 	call	0x1880	; 0x1880 <__dlist_add.lto_priv.16>
    190e:	0f 90       	pop	r0
    1910:	0f 90       	pop	r0
    1912:	0f 90       	pop	r0
    1914:	0f 90       	pop	r0
    1916:	df 91       	pop	r29
    1918:	cf 91       	pop	r28
    191a:	08 95       	ret

0000191c <_ZN5genos8resource7releaseEv>:
    191c:	cf 93       	push	r28
    191e:	df 93       	push	r29
    1920:	1f 92       	push	r1
    1922:	1f 92       	push	r1
    1924:	cd b7       	in	r28, 0x3d	; 61
    1926:	de b7       	in	r29, 0x3e	; 62
    1928:	9a 83       	std	Y+2, r25	; 0x02
    192a:	89 83       	std	Y+1, r24	; 0x01
    192c:	8f e5       	ldi	r24, 0x5F	; 95
    192e:	90 e0       	ldi	r25, 0x00	; 0
    1930:	0f 90       	pop	r0
    1932:	0f 90       	pop	r0
    1934:	df 91       	pop	r29
    1936:	cf 91       	pop	r28
    1938:	08 95       	ret

0000193a <_ZN5genos8resource4openEPNS_7openresE>:
    193a:	cf 93       	push	r28
    193c:	df 93       	push	r29
    193e:	00 d0       	rcall	.+0      	; 0x1940 <_ZN5genos8resource4openEPNS_7openresE+0x6>
    1940:	1f 92       	push	r1
    1942:	cd b7       	in	r28, 0x3d	; 61
    1944:	de b7       	in	r29, 0x3e	; 62
    1946:	9a 83       	std	Y+2, r25	; 0x02
    1948:	89 83       	std	Y+1, r24	; 0x01
    194a:	7c 83       	std	Y+4, r23	; 0x04
    194c:	6b 83       	std	Y+3, r22	; 0x03
    194e:	8f e5       	ldi	r24, 0x5F	; 95
    1950:	90 e0       	ldi	r25, 0x00	; 0
    1952:	0f 90       	pop	r0
    1954:	0f 90       	pop	r0
    1956:	0f 90       	pop	r0
    1958:	0f 90       	pop	r0
    195a:	df 91       	pop	r29
    195c:	cf 91       	pop	r28
    195e:	08 95       	ret

00001960 <_ZN5genos8resource7gettypeEv>:
    1960:	cf 93       	push	r28
    1962:	df 93       	push	r29
    1964:	1f 92       	push	r1
    1966:	1f 92       	push	r1
    1968:	cd b7       	in	r28, 0x3d	; 61
    196a:	de b7       	in	r29, 0x3e	; 62
    196c:	9a 83       	std	Y+2, r25	; 0x02
    196e:	89 83       	std	Y+1, r24	; 0x01
    1970:	80 e0       	ldi	r24, 0x00	; 0
    1972:	90 e0       	ldi	r25, 0x00	; 0
    1974:	0f 90       	pop	r0
    1976:	0f 90       	pop	r0
    1978:	df 91       	pop	r29
    197a:	cf 91       	pop	r28
    197c:	08 95       	ret

0000197e <_ZN5genos9directory7iterateEPcjPNS_7openresE>:
    197e:	cf 93       	push	r28
    1980:	df 93       	push	r29
    1982:	cd b7       	in	r28, 0x3d	; 61
    1984:	de b7       	in	r29, 0x3e	; 62
    1986:	28 97       	sbiw	r28, 0x08	; 8
    1988:	0f b6       	in	r0, 0x3f	; 63
    198a:	f8 94       	cli
    198c:	de bf       	out	0x3e, r29	; 62
    198e:	0f be       	out	0x3f, r0	; 63
    1990:	cd bf       	out	0x3d, r28	; 61
    1992:	9a 83       	std	Y+2, r25	; 0x02
    1994:	89 83       	std	Y+1, r24	; 0x01
    1996:	7c 83       	std	Y+4, r23	; 0x04
    1998:	6b 83       	std	Y+3, r22	; 0x03
    199a:	5e 83       	std	Y+6, r21	; 0x06
    199c:	4d 83       	std	Y+5, r20	; 0x05
    199e:	38 87       	std	Y+8, r19	; 0x08
    19a0:	2f 83       	std	Y+7, r18	; 0x07
    19a2:	8f e5       	ldi	r24, 0x5F	; 95
    19a4:	90 e0       	ldi	r25, 0x00	; 0
    19a6:	28 96       	adiw	r28, 0x08	; 8
    19a8:	0f b6       	in	r0, 0x3f	; 63
    19aa:	f8 94       	cli
    19ac:	de bf       	out	0x3e, r29	; 62
    19ae:	0f be       	out	0x3f, r0	; 63
    19b0:	cd bf       	out	0x3d, r28	; 61
    19b2:	df 91       	pop	r29
    19b4:	cf 91       	pop	r28
    19b6:	08 95       	ret

000019b8 <_ZN5genos9directory6mknodeEPKcPNS_7openresE>:
    19b8:	cf 93       	push	r28
    19ba:	df 93       	push	r29
    19bc:	00 d0       	rcall	.+0      	; 0x19be <_ZN5genos9directory6mknodeEPKcPNS_7openresE+0x6>
    19be:	00 d0       	rcall	.+0      	; 0x19c0 <_ZN5genos9directory6mknodeEPKcPNS_7openresE+0x8>
    19c0:	cd b7       	in	r28, 0x3d	; 61
    19c2:	de b7       	in	r29, 0x3e	; 62
    19c4:	9a 83       	std	Y+2, r25	; 0x02
    19c6:	89 83       	std	Y+1, r24	; 0x01
    19c8:	7c 83       	std	Y+4, r23	; 0x04
    19ca:	6b 83       	std	Y+3, r22	; 0x03
    19cc:	5e 83       	std	Y+6, r21	; 0x06
    19ce:	4d 83       	std	Y+5, r20	; 0x05
    19d0:	8f e5       	ldi	r24, 0x5F	; 95
    19d2:	90 e0       	ldi	r25, 0x00	; 0
    19d4:	26 96       	adiw	r28, 0x06	; 6
    19d6:	0f b6       	in	r0, 0x3f	; 63
    19d8:	f8 94       	cli
    19da:	de bf       	out	0x3e, r29	; 62
    19dc:	0f be       	out	0x3f, r0	; 63
    19de:	cd bf       	out	0x3d, r28	; 61
    19e0:	df 91       	pop	r29
    19e2:	cf 91       	pop	r28
    19e4:	08 95       	ret

000019e6 <_ZN5genos9directory6rmnodeEPKcPNS_7openresE>:
    19e6:	cf 93       	push	r28
    19e8:	df 93       	push	r29
    19ea:	00 d0       	rcall	.+0      	; 0x19ec <_ZN5genos9directory6rmnodeEPKcPNS_7openresE+0x6>
    19ec:	00 d0       	rcall	.+0      	; 0x19ee <_ZN5genos9directory6rmnodeEPKcPNS_7openresE+0x8>
    19ee:	cd b7       	in	r28, 0x3d	; 61
    19f0:	de b7       	in	r29, 0x3e	; 62
    19f2:	9a 83       	std	Y+2, r25	; 0x02
    19f4:	89 83       	std	Y+1, r24	; 0x01
    19f6:	7c 83       	std	Y+4, r23	; 0x04
    19f8:	6b 83       	std	Y+3, r22	; 0x03
    19fa:	5e 83       	std	Y+6, r21	; 0x06
    19fc:	4d 83       	std	Y+5, r20	; 0x05
    19fe:	8f e5       	ldi	r24, 0x5F	; 95
    1a00:	90 e0       	ldi	r25, 0x00	; 0
    1a02:	26 96       	adiw	r28, 0x06	; 6
    1a04:	0f b6       	in	r0, 0x3f	; 63
    1a06:	f8 94       	cli
    1a08:	de bf       	out	0x3e, r29	; 62
    1a0a:	0f be       	out	0x3f, r0	; 63
    1a0c:	cd bf       	out	0x3d, r28	; 61
    1a0e:	df 91       	pop	r29
    1a10:	cf 91       	pop	r28
    1a12:	08 95       	ret

00001a14 <_ZN5genos9directory7gettypeEv>:
    1a14:	cf 93       	push	r28
    1a16:	df 93       	push	r29
    1a18:	1f 92       	push	r1
    1a1a:	1f 92       	push	r1
    1a1c:	cd b7       	in	r28, 0x3d	; 61
    1a1e:	de b7       	in	r29, 0x3e	; 62
    1a20:	9a 83       	std	Y+2, r25	; 0x02
    1a22:	89 83       	std	Y+1, r24	; 0x01
    1a24:	82 e0       	ldi	r24, 0x02	; 2
    1a26:	90 e0       	ldi	r25, 0x00	; 0
    1a28:	0f 90       	pop	r0
    1a2a:	0f 90       	pop	r0
    1a2c:	df 91       	pop	r29
    1a2e:	cf 91       	pop	r28
    1a30:	08 95       	ret

00001a32 <_ZN5genos8resourceC2Ev>:
    1a32:	cf 93       	push	r28
    1a34:	df 93       	push	r29
    1a36:	1f 92       	push	r1
    1a38:	1f 92       	push	r1
    1a3a:	cd b7       	in	r28, 0x3d	; 61
    1a3c:	de b7       	in	r29, 0x3e	; 62
    1a3e:	9a 83       	std	Y+2, r25	; 0x02
    1a40:	89 83       	std	Y+1, r24	; 0x01
    1a42:	22 eb       	ldi	r18, 0xB2	; 178
    1a44:	35 e4       	ldi	r19, 0x45	; 69
    1a46:	89 81       	ldd	r24, Y+1	; 0x01
    1a48:	9a 81       	ldd	r25, Y+2	; 0x02
    1a4a:	fc 01       	movw	r30, r24
    1a4c:	31 83       	std	Z+1, r19	; 0x01
    1a4e:	20 83       	st	Z, r18
    1a50:	0f 90       	pop	r0
    1a52:	0f 90       	pop	r0
    1a54:	df 91       	pop	r29
    1a56:	cf 91       	pop	r28
    1a58:	08 95       	ret

00001a5a <_ZN5genos15named_node_list7iterateEPcjPNS_7openresE>:
    1a5a:	cf 93       	push	r28
    1a5c:	df 93       	push	r29
    1a5e:	cd b7       	in	r28, 0x3d	; 61
    1a60:	de b7       	in	r29, 0x3e	; 62
    1a62:	28 97       	sbiw	r28, 0x08	; 8
    1a64:	0f b6       	in	r0, 0x3f	; 63
    1a66:	f8 94       	cli
    1a68:	de bf       	out	0x3e, r29	; 62
    1a6a:	0f be       	out	0x3f, r0	; 63
    1a6c:	cd bf       	out	0x3d, r28	; 61
    1a6e:	9a 83       	std	Y+2, r25	; 0x02
    1a70:	89 83       	std	Y+1, r24	; 0x01
    1a72:	7c 83       	std	Y+4, r23	; 0x04
    1a74:	6b 83       	std	Y+3, r22	; 0x03
    1a76:	5e 83       	std	Y+6, r21	; 0x06
    1a78:	4d 83       	std	Y+5, r20	; 0x05
    1a7a:	38 87       	std	Y+8, r19	; 0x08
    1a7c:	2f 83       	std	Y+7, r18	; 0x07
    1a7e:	80 e0       	ldi	r24, 0x00	; 0
    1a80:	90 e0       	ldi	r25, 0x00	; 0
    1a82:	28 96       	adiw	r28, 0x08	; 8
    1a84:	0f b6       	in	r0, 0x3f	; 63
    1a86:	f8 94       	cli
    1a88:	de bf       	out	0x3e, r29	; 62
    1a8a:	0f be       	out	0x3f, r0	; 63
    1a8c:	cd bf       	out	0x3d, r28	; 61
    1a8e:	df 91       	pop	r29
    1a90:	cf 91       	pop	r28
    1a92:	08 95       	ret

00001a94 <_ZN5genos7resmngrC2EPKc>:
    1a94:	cf 93       	push	r28
    1a96:	df 93       	push	r29
    1a98:	00 d0       	rcall	.+0      	; 0x1a9a <_ZN5genos7resmngrC2EPKc+0x6>
    1a9a:	1f 92       	push	r1
    1a9c:	cd b7       	in	r28, 0x3d	; 61
    1a9e:	de b7       	in	r29, 0x3e	; 62
    1aa0:	9a 83       	std	Y+2, r25	; 0x02
    1aa2:	89 83       	std	Y+1, r24	; 0x01
    1aa4:	7c 83       	std	Y+4, r23	; 0x04
    1aa6:	6b 83       	std	Y+3, r22	; 0x03
    1aa8:	28 e8       	ldi	r18, 0x88	; 136
    1aaa:	35 e4       	ldi	r19, 0x45	; 69
    1aac:	89 81       	ldd	r24, Y+1	; 0x01
    1aae:	9a 81       	ldd	r25, Y+2	; 0x02
    1ab0:	fc 01       	movw	r30, r24
    1ab2:	31 83       	std	Z+1, r19	; 0x01
    1ab4:	20 83       	st	Z, r18
    1ab6:	89 81       	ldd	r24, Y+1	; 0x01
    1ab8:	9a 81       	ldd	r25, Y+2	; 0x02
    1aba:	2b 81       	ldd	r18, Y+3	; 0x03
    1abc:	3c 81       	ldd	r19, Y+4	; 0x04
    1abe:	fc 01       	movw	r30, r24
    1ac0:	37 83       	std	Z+7, r19	; 0x07
    1ac2:	26 83       	std	Z+6, r18	; 0x06
    1ac4:	89 81       	ldd	r24, Y+1	; 0x01
    1ac6:	9a 81       	ldd	r25, Y+2	; 0x02
    1ac8:	02 96       	adiw	r24, 0x02	; 2
    1aca:	6c e0       	ldi	r22, 0x0C	; 12
    1acc:	72 e0       	ldi	r23, 0x02	; 2
    1ace:	0e 94 71 0c 	call	0x18e2	; 0x18e2 <dlist_add_next.lto_priv.12>
    1ad2:	0f 90       	pop	r0
    1ad4:	0f 90       	pop	r0
    1ad6:	0f 90       	pop	r0
    1ad8:	0f 90       	pop	r0
    1ada:	df 91       	pop	r29
    1adc:	cf 91       	pop	r28
    1ade:	08 95       	ret

00001ae0 <_ZN5genos7resmngr5mkdirEPKc>:
    1ae0:	cf 93       	push	r28
    1ae2:	df 93       	push	r29
    1ae4:	00 d0       	rcall	.+0      	; 0x1ae6 <_ZN5genos7resmngr5mkdirEPKc+0x6>
    1ae6:	1f 92       	push	r1
    1ae8:	cd b7       	in	r28, 0x3d	; 61
    1aea:	de b7       	in	r29, 0x3e	; 62
    1aec:	9a 83       	std	Y+2, r25	; 0x02
    1aee:	89 83       	std	Y+1, r24	; 0x01
    1af0:	7c 83       	std	Y+4, r23	; 0x04
    1af2:	6b 83       	std	Y+3, r22	; 0x03
    1af4:	8f e5       	ldi	r24, 0x5F	; 95
    1af6:	90 e0       	ldi	r25, 0x00	; 0
    1af8:	0f 90       	pop	r0
    1afa:	0f 90       	pop	r0
    1afc:	0f 90       	pop	r0
    1afe:	0f 90       	pop	r0
    1b00:	df 91       	pop	r29
    1b02:	cf 91       	pop	r28
    1b04:	08 95       	ret

00001b06 <_ZN5genos7resmngr5rmdirEPKc>:
    1b06:	cf 93       	push	r28
    1b08:	df 93       	push	r29
    1b0a:	00 d0       	rcall	.+0      	; 0x1b0c <_ZN5genos7resmngr5rmdirEPKc+0x6>
    1b0c:	1f 92       	push	r1
    1b0e:	cd b7       	in	r28, 0x3d	; 61
    1b10:	de b7       	in	r29, 0x3e	; 62
    1b12:	9a 83       	std	Y+2, r25	; 0x02
    1b14:	89 83       	std	Y+1, r24	; 0x01
    1b16:	7c 83       	std	Y+4, r23	; 0x04
    1b18:	6b 83       	std	Y+3, r22	; 0x03
    1b1a:	8f e5       	ldi	r24, 0x5F	; 95
    1b1c:	90 e0       	ldi	r25, 0x00	; 0
    1b1e:	0f 90       	pop	r0
    1b20:	0f 90       	pop	r0
    1b22:	0f 90       	pop	r0
    1b24:	0f 90       	pop	r0
    1b26:	df 91       	pop	r29
    1b28:	cf 91       	pop	r28
    1b2a:	08 95       	ret

00001b2c <_ZN5genos9directoryC2Ev>:
    1b2c:	cf 93       	push	r28
    1b2e:	df 93       	push	r29
    1b30:	1f 92       	push	r1
    1b32:	1f 92       	push	r1
    1b34:	cd b7       	in	r28, 0x3d	; 61
    1b36:	de b7       	in	r29, 0x3e	; 62
    1b38:	9a 83       	std	Y+2, r25	; 0x02
    1b3a:	89 83       	std	Y+1, r24	; 0x01
    1b3c:	89 81       	ldd	r24, Y+1	; 0x01
    1b3e:	9a 81       	ldd	r25, Y+2	; 0x02
    1b40:	0e 94 19 0d 	call	0x1a32	; 0x1a32 <_ZN5genos8resourceC2Ev>
    1b44:	22 ea       	ldi	r18, 0xA2	; 162
    1b46:	35 e4       	ldi	r19, 0x45	; 69
    1b48:	89 81       	ldd	r24, Y+1	; 0x01
    1b4a:	9a 81       	ldd	r25, Y+2	; 0x02
    1b4c:	fc 01       	movw	r30, r24
    1b4e:	31 83       	std	Z+1, r19	; 0x01
    1b50:	20 83       	st	Z, r18
    1b52:	0f 90       	pop	r0
    1b54:	0f 90       	pop	r0
    1b56:	df 91       	pop	r29
    1b58:	cf 91       	pop	r28
    1b5a:	08 95       	ret

00001b5c <_ZN5genos15named_node_listC2Ev>:
    1b5c:	cf 93       	push	r28
    1b5e:	df 93       	push	r29
    1b60:	1f 92       	push	r1
    1b62:	1f 92       	push	r1
    1b64:	cd b7       	in	r28, 0x3d	; 61
    1b66:	de b7       	in	r29, 0x3e	; 62
    1b68:	9a 83       	std	Y+2, r25	; 0x02
    1b6a:	89 83       	std	Y+1, r24	; 0x01
    1b6c:	89 81       	ldd	r24, Y+1	; 0x01
    1b6e:	9a 81       	ldd	r25, Y+2	; 0x02
    1b70:	0e 94 96 0d 	call	0x1b2c	; 0x1b2c <_ZN5genos9directoryC2Ev>
    1b74:	22 e9       	ldi	r18, 0x92	; 146
    1b76:	35 e4       	ldi	r19, 0x45	; 69
    1b78:	89 81       	ldd	r24, Y+1	; 0x01
    1b7a:	9a 81       	ldd	r25, Y+2	; 0x02
    1b7c:	fc 01       	movw	r30, r24
    1b7e:	31 83       	std	Z+1, r19	; 0x01
    1b80:	20 83       	st	Z, r18
    1b82:	89 81       	ldd	r24, Y+1	; 0x01
    1b84:	9a 81       	ldd	r25, Y+2	; 0x02
    1b86:	9c 01       	movw	r18, r24
    1b88:	2e 5f       	subi	r18, 0xFE	; 254
    1b8a:	3f 4f       	sbci	r19, 0xFF	; 255
    1b8c:	89 81       	ldd	r24, Y+1	; 0x01
    1b8e:	9a 81       	ldd	r25, Y+2	; 0x02
    1b90:	fc 01       	movw	r30, r24
    1b92:	33 83       	std	Z+3, r19	; 0x03
    1b94:	22 83       	std	Z+2, r18	; 0x02
    1b96:	89 81       	ldd	r24, Y+1	; 0x01
    1b98:	9a 81       	ldd	r25, Y+2	; 0x02
    1b9a:	9c 01       	movw	r18, r24
    1b9c:	2e 5f       	subi	r18, 0xFE	; 254
    1b9e:	3f 4f       	sbci	r19, 0xFF	; 255
    1ba0:	89 81       	ldd	r24, Y+1	; 0x01
    1ba2:	9a 81       	ldd	r25, Y+2	; 0x02
    1ba4:	fc 01       	movw	r30, r24
    1ba6:	35 83       	std	Z+5, r19	; 0x05
    1ba8:	24 83       	std	Z+4, r18	; 0x04
    1baa:	0f 90       	pop	r0
    1bac:	0f 90       	pop	r0
    1bae:	df 91       	pop	r29
    1bb0:	cf 91       	pop	r28
    1bb2:	08 95       	ret

00001bb4 <_ZN5genos14device_managerC1Ev>:
    1bb4:	cf 93       	push	r28
    1bb6:	df 93       	push	r29
    1bb8:	1f 92       	push	r1
    1bba:	1f 92       	push	r1
    1bbc:	cd b7       	in	r28, 0x3d	; 61
    1bbe:	de b7       	in	r29, 0x3e	; 62
    1bc0:	9a 83       	std	Y+2, r25	; 0x02
    1bc2:	89 83       	std	Y+1, r24	; 0x01
    1bc4:	89 81       	ldd	r24, Y+1	; 0x01
    1bc6:	9a 81       	ldd	r25, Y+2	; 0x02
    1bc8:	6a e1       	ldi	r22, 0x1A	; 26
    1bca:	73 e0       	ldi	r23, 0x03	; 3
    1bcc:	0e 94 4a 0d 	call	0x1a94	; 0x1a94 <_ZN5genos7resmngrC2EPKc>
    1bd0:	89 81       	ldd	r24, Y+1	; 0x01
    1bd2:	9a 81       	ldd	r25, Y+2	; 0x02
    1bd4:	fc 01       	movw	r30, r24
    1bd6:	11 86       	std	Z+9, r1	; 0x09
    1bd8:	10 86       	std	Z+8, r1	; 0x08
    1bda:	89 81       	ldd	r24, Y+1	; 0x01
    1bdc:	9a 81       	ldd	r25, Y+2	; 0x02
    1bde:	fc 01       	movw	r30, r24
    1be0:	13 86       	std	Z+11, r1	; 0x0b
    1be2:	12 86       	std	Z+10, r1	; 0x0a
    1be4:	89 81       	ldd	r24, Y+1	; 0x01
    1be6:	9a 81       	ldd	r25, Y+2	; 0x02
    1be8:	fc 01       	movw	r30, r24
    1bea:	15 86       	std	Z+13, r1	; 0x0d
    1bec:	14 86       	std	Z+12, r1	; 0x0c
    1bee:	89 81       	ldd	r24, Y+1	; 0x01
    1bf0:	9a 81       	ldd	r25, Y+2	; 0x02
    1bf2:	08 96       	adiw	r24, 0x08	; 8
    1bf4:	0e 94 ae 0d 	call	0x1b5c	; 0x1b5c <_ZN5genos15named_node_listC2Ev>
    1bf8:	2e e6       	ldi	r18, 0x6E	; 110
    1bfa:	35 e4       	ldi	r19, 0x45	; 69
    1bfc:	89 81       	ldd	r24, Y+1	; 0x01
    1bfe:	9a 81       	ldd	r25, Y+2	; 0x02
    1c00:	fc 01       	movw	r30, r24
    1c02:	31 83       	std	Z+1, r19	; 0x01
    1c04:	20 83       	st	Z, r18
    1c06:	28 e7       	ldi	r18, 0x78	; 120
    1c08:	35 e4       	ldi	r19, 0x45	; 69
    1c0a:	89 81       	ldd	r24, Y+1	; 0x01
    1c0c:	9a 81       	ldd	r25, Y+2	; 0x02
    1c0e:	fc 01       	movw	r30, r24
    1c10:	31 87       	std	Z+9, r19	; 0x09
    1c12:	20 87       	std	Z+8, r18	; 0x08
    1c14:	0f 90       	pop	r0
    1c16:	0f 90       	pop	r0
    1c18:	df 91       	pop	r29
    1c1a:	cf 91       	pop	r28
    1c1c:	08 95       	ret

00001c1e <_ZN5genos14device_manager4openEPKcPNS_7openresE>:
    1c1e:	cf 93       	push	r28
    1c20:	df 93       	push	r29
    1c22:	cd b7       	in	r28, 0x3d	; 61
    1c24:	de b7       	in	r29, 0x3e	; 62
    1c26:	2a 97       	sbiw	r28, 0x0a	; 10
    1c28:	0f b6       	in	r0, 0x3f	; 63
    1c2a:	f8 94       	cli
    1c2c:	de bf       	out	0x3e, r29	; 62
    1c2e:	0f be       	out	0x3f, r0	; 63
    1c30:	cd bf       	out	0x3d, r28	; 61
    1c32:	9e 83       	std	Y+6, r25	; 0x06
    1c34:	8d 83       	std	Y+5, r24	; 0x05
    1c36:	78 87       	std	Y+8, r23	; 0x08
    1c38:	6f 83       	std	Y+7, r22	; 0x07
    1c3a:	5a 87       	std	Y+10, r21	; 0x0a
    1c3c:	49 87       	std	Y+9, r20	; 0x09
    1c3e:	8f 81       	ldd	r24, Y+7	; 0x07
    1c40:	98 85       	ldd	r25, Y+8	; 0x08
    1c42:	01 96       	adiw	r24, 0x01	; 1
    1c44:	98 87       	std	Y+8, r25	; 0x08
    1c46:	8f 83       	std	Y+7, r24	; 0x07
    1c48:	8d 81       	ldd	r24, Y+5	; 0x05
    1c4a:	9e 81       	ldd	r25, Y+6	; 0x06
    1c4c:	fc 01       	movw	r30, r24
    1c4e:	82 85       	ldd	r24, Z+10	; 0x0a
    1c50:	93 85       	ldd	r25, Z+11	; 0x0b
    1c52:	9c 83       	std	Y+4, r25	; 0x04
    1c54:	8b 83       	std	Y+3, r24	; 0x03
    1c56:	8d 81       	ldd	r24, Y+5	; 0x05
    1c58:	9e 81       	ldd	r25, Y+6	; 0x06
    1c5a:	9c 01       	movw	r18, r24
    1c5c:	26 5f       	subi	r18, 0xF6	; 246
    1c5e:	3f 4f       	sbci	r19, 0xFF	; 255
    1c60:	8b 81       	ldd	r24, Y+3	; 0x03
    1c62:	9c 81       	ldd	r25, Y+4	; 0x04
    1c64:	28 17       	cp	r18, r24
    1c66:	39 07       	cpc	r19, r25
    1c68:	19 f1       	breq	.+70     	; 0x1cb0 <_ZN5genos14device_manager4openEPKcPNS_7openresE+0x92>
    1c6a:	8b 81       	ldd	r24, Y+3	; 0x03
    1c6c:	9c 81       	ldd	r25, Y+4	; 0x04
    1c6e:	02 97       	sbiw	r24, 0x02	; 2
    1c70:	9a 83       	std	Y+2, r25	; 0x02
    1c72:	89 83       	std	Y+1, r24	; 0x01
    1c74:	89 81       	ldd	r24, Y+1	; 0x01
    1c76:	9a 81       	ldd	r25, Y+2	; 0x02
    1c78:	fc 01       	movw	r30, r24
    1c7a:	86 81       	ldd	r24, Z+6	; 0x06
    1c7c:	97 81       	ldd	r25, Z+7	; 0x07
    1c7e:	2f 81       	ldd	r18, Y+7	; 0x07
    1c80:	38 85       	ldd	r19, Y+8	; 0x08
    1c82:	b9 01       	movw	r22, r18
    1c84:	0e 94 65 1b 	call	0x36ca	; 0x36ca <strcmp>
    1c88:	89 2b       	or	r24, r25
    1c8a:	51 f4       	brne	.+20     	; 0x1ca0 <_ZN5genos14device_manager4openEPKcPNS_7openresE+0x82>
    1c8c:	29 85       	ldd	r18, Y+9	; 0x09
    1c8e:	3a 85       	ldd	r19, Y+10	; 0x0a
    1c90:	89 81       	ldd	r24, Y+1	; 0x01
    1c92:	9a 81       	ldd	r25, Y+2	; 0x02
    1c94:	40 e0       	ldi	r20, 0x00	; 0
    1c96:	50 e0       	ldi	r21, 0x00	; 0
    1c98:	b9 01       	movw	r22, r18
    1c9a:	0e 94 64 0b 	call	0x16c8	; 0x16c8 <_ZN5genos13open_resourceEPNS_8resourceEPNS_7openresEi>
    1c9e:	12 c0       	rjmp	.+36     	; 0x1cc4 <_ZN5genos14device_manager4openEPKcPNS_7openresE+0xa6>
    1ca0:	8b 81       	ldd	r24, Y+3	; 0x03
    1ca2:	9c 81       	ldd	r25, Y+4	; 0x04
    1ca4:	fc 01       	movw	r30, r24
    1ca6:	80 81       	ld	r24, Z
    1ca8:	91 81       	ldd	r25, Z+1	; 0x01
    1caa:	9c 83       	std	Y+4, r25	; 0x04
    1cac:	8b 83       	std	Y+3, r24	; 0x03
    1cae:	d3 cf       	rjmp	.-90     	; 0x1c56 <_ZN5genos14device_manager4openEPKcPNS_7openresE+0x38>
    1cb0:	0e 94 c4 05 	call	0xb88	; 0xb88 <__errno_location>
    1cb4:	9c 01       	movw	r18, r24
    1cb6:	8e ef       	ldi	r24, 0xFE	; 254
    1cb8:	9f ef       	ldi	r25, 0xFF	; 255
    1cba:	f9 01       	movw	r30, r18
    1cbc:	91 83       	std	Z+1, r25	; 0x01
    1cbe:	80 83       	st	Z, r24
    1cc0:	8f ef       	ldi	r24, 0xFF	; 255
    1cc2:	9f ef       	ldi	r25, 0xFF	; 255
    1cc4:	2a 96       	adiw	r28, 0x0a	; 10
    1cc6:	0f b6       	in	r0, 0x3f	; 63
    1cc8:	f8 94       	cli
    1cca:	de bf       	out	0x3e, r29	; 62
    1ccc:	0f be       	out	0x3f, r0	; 63
    1cce:	cd bf       	out	0x3d, r28	; 61
    1cd0:	df 91       	pop	r29
    1cd2:	cf 91       	pop	r28
    1cd4:	08 95       	ret

00001cd6 <bug_impl>:
    1cd6:	cf 93       	push	r28
    1cd8:	df 93       	push	r29
    1cda:	cd b7       	in	r28, 0x3d	; 61
    1cdc:	de b7       	in	r29, 0x3e	; 62
    1cde:	0e 94 6b 21 	call	0x42d6	; 0x42d6 <abort>

00001ce2 <debug_putchar>:
    1ce2:	cf 93       	push	r28
    1ce4:	df 93       	push	r29
    1ce6:	1f 92       	push	r1
    1ce8:	cd b7       	in	r28, 0x3d	; 61
    1cea:	de b7       	in	r29, 0x3e	; 62
    1cec:	89 83       	std	Y+1, r24	; 0x01
    1cee:	89 81       	ldd	r24, Y+1	; 0x01
    1cf0:	0e 94 11 05 	call	0xa22	; 0xa22 <diag_putc>
    1cf4:	0f 90       	pop	r0
    1cf6:	df 91       	pop	r29
    1cf8:	cf 91       	pop	r28
    1cfa:	08 95       	ret

00001cfc <debug_write>:
    1cfc:	cf 93       	push	r28
    1cfe:	df 93       	push	r29
    1d00:	00 d0       	rcall	.+0      	; 0x1d02 <debug_write+0x6>
    1d02:	1f 92       	push	r1
    1d04:	cd b7       	in	r28, 0x3d	; 61
    1d06:	de b7       	in	r29, 0x3e	; 62
    1d08:	9a 83       	std	Y+2, r25	; 0x02
    1d0a:	89 83       	std	Y+1, r24	; 0x01
    1d0c:	7c 83       	std	Y+4, r23	; 0x04
    1d0e:	6b 83       	std	Y+3, r22	; 0x03
    1d10:	2b 81       	ldd	r18, Y+3	; 0x03
    1d12:	3c 81       	ldd	r19, Y+4	; 0x04
    1d14:	89 81       	ldd	r24, Y+1	; 0x01
    1d16:	9a 81       	ldd	r25, Y+2	; 0x02
    1d18:	b9 01       	movw	r22, r18
    1d1a:	0e 94 32 05 	call	0xa64	; 0xa64 <diag_write>
    1d1e:	0f 90       	pop	r0
    1d20:	0f 90       	pop	r0
    1d22:	0f 90       	pop	r0
    1d24:	0f 90       	pop	r0
    1d26:	df 91       	pop	r29
    1d28:	cf 91       	pop	r28
    1d2a:	08 95       	ret

00001d2c <irqs_save.lto_priv.60>:
    1d2c:	cf 93       	push	r28
    1d2e:	df 93       	push	r29
    1d30:	1f 92       	push	r1
    1d32:	cd b7       	in	r28, 0x3d	; 61
    1d34:	de b7       	in	r29, 0x3e	; 62
    1d36:	8f e5       	ldi	r24, 0x5F	; 95
    1d38:	90 e0       	ldi	r25, 0x00	; 0
    1d3a:	fc 01       	movw	r30, r24
    1d3c:	80 81       	ld	r24, Z
    1d3e:	89 83       	std	Y+1, r24	; 0x01
    1d40:	f8 94       	cli
    1d42:	89 81       	ldd	r24, Y+1	; 0x01
    1d44:	0f 90       	pop	r0
    1d46:	df 91       	pop	r29
    1d48:	cf 91       	pop	r28
    1d4a:	08 95       	ret

00001d4c <irqs_restore>:
    1d4c:	cf 93       	push	r28
    1d4e:	df 93       	push	r29
    1d50:	1f 92       	push	r1
    1d52:	cd b7       	in	r28, 0x3d	; 61
    1d54:	de b7       	in	r29, 0x3e	; 62
    1d56:	89 83       	std	Y+1, r24	; 0x01
    1d58:	8f e5       	ldi	r24, 0x5F	; 95
    1d5a:	90 e0       	ldi	r25, 0x00	; 0
    1d5c:	29 81       	ldd	r18, Y+1	; 0x01
    1d5e:	fc 01       	movw	r30, r24
    1d60:	20 83       	st	Z, r18
    1d62:	0f 90       	pop	r0
    1d64:	df 91       	pop	r29
    1d66:	cf 91       	pop	r28
    1d68:	08 95       	ret

00001d6a <system_lock>:
    1d6a:	cf 93       	push	r28
    1d6c:	df 93       	push	r29
    1d6e:	1f 92       	push	r1
    1d70:	cd b7       	in	r28, 0x3d	; 61
    1d72:	de b7       	in	r29, 0x3e	; 62
    1d74:	0e 94 96 0e 	call	0x1d2c	; 0x1d2c <irqs_save.lto_priv.60>
    1d78:	89 83       	std	Y+1, r24	; 0x01
    1d7a:	80 91 60 05 	lds	r24, 0x0560	; 0x800560 <_ZL5count.lto_priv.66>
    1d7e:	90 91 61 05 	lds	r25, 0x0561	; 0x800561 <_ZL5count.lto_priv.66+0x1>
    1d82:	21 e0       	ldi	r18, 0x01	; 1
    1d84:	89 2b       	or	r24, r25
    1d86:	09 f0       	breq	.+2      	; 0x1d8a <system_lock+0x20>
    1d88:	20 e0       	ldi	r18, 0x00	; 0
    1d8a:	22 23       	and	r18, r18
    1d8c:	19 f0       	breq	.+6      	; 0x1d94 <system_lock+0x2a>
    1d8e:	89 81       	ldd	r24, Y+1	; 0x01
    1d90:	80 93 5f 05 	sts	0x055F, r24	; 0x80055f <_ZL4save.lto_priv.67>
    1d94:	80 91 60 05 	lds	r24, 0x0560	; 0x800560 <_ZL5count.lto_priv.66>
    1d98:	90 91 61 05 	lds	r25, 0x0561	; 0x800561 <_ZL5count.lto_priv.66+0x1>
    1d9c:	01 96       	adiw	r24, 0x01	; 1
    1d9e:	90 93 61 05 	sts	0x0561, r25	; 0x800561 <_ZL5count.lto_priv.66+0x1>
    1da2:	80 93 60 05 	sts	0x0560, r24	; 0x800560 <_ZL5count.lto_priv.66>
    1da6:	0f 90       	pop	r0
    1da8:	df 91       	pop	r29
    1daa:	cf 91       	pop	r28
    1dac:	08 95       	ret

00001dae <system_unlock>:
    1dae:	cf 93       	push	r28
    1db0:	df 93       	push	r29
    1db2:	cd b7       	in	r28, 0x3d	; 61
    1db4:	de b7       	in	r29, 0x3e	; 62
    1db6:	80 91 60 05 	lds	r24, 0x0560	; 0x800560 <_ZL5count.lto_priv.66>
    1dba:	90 91 61 05 	lds	r25, 0x0561	; 0x800561 <_ZL5count.lto_priv.66+0x1>
    1dbe:	01 97       	sbiw	r24, 0x01	; 1
    1dc0:	90 93 61 05 	sts	0x0561, r25	; 0x800561 <_ZL5count.lto_priv.66+0x1>
    1dc4:	80 93 60 05 	sts	0x0560, r24	; 0x800560 <_ZL5count.lto_priv.66>
    1dc8:	80 91 60 05 	lds	r24, 0x0560	; 0x800560 <_ZL5count.lto_priv.66>
    1dcc:	90 91 61 05 	lds	r25, 0x0561	; 0x800561 <_ZL5count.lto_priv.66+0x1>
    1dd0:	21 e0       	ldi	r18, 0x01	; 1
    1dd2:	89 2b       	or	r24, r25
    1dd4:	09 f0       	breq	.+2      	; 0x1dd8 <system_unlock+0x2a>
    1dd6:	20 e0       	ldi	r18, 0x00	; 0
    1dd8:	22 23       	and	r18, r18
    1dda:	21 f0       	breq	.+8      	; 0x1de4 <system_unlock+0x36>
    1ddc:	80 91 5f 05 	lds	r24, 0x055F	; 0x80055f <_ZL4save.lto_priv.67>
    1de0:	0e 94 a6 0e 	call	0x1d4c	; 0x1d4c <irqs_restore>
    1de4:	df 91       	pop	r29
    1de6:	cf 91       	pop	r28
    1de8:	08 95       	ret

00001dea <syslock_reset>:
    1dea:	cf 93       	push	r28
    1dec:	df 93       	push	r29
    1dee:	cd b7       	in	r28, 0x3d	; 61
    1df0:	de b7       	in	r29, 0x3e	; 62
    1df2:	10 92 61 05 	sts	0x0561, r1	; 0x800561 <_ZL5count.lto_priv.66+0x1>
    1df6:	10 92 60 05 	sts	0x0560, r1	; 0x800560 <_ZL5count.lto_priv.66>
    1dfa:	df 91       	pop	r29
    1dfc:	cf 91       	pop	r28
    1dfe:	08 95       	ret

00001e00 <debug_print_newline.lto_priv.49>:
    1e00:	cf 93       	push	r28
    1e02:	df 93       	push	r29
    1e04:	cd b7       	in	r28, 0x3d	; 61
    1e06:	de b7       	in	r29, 0x3e	; 62
    1e08:	8d e0       	ldi	r24, 0x0D	; 13
    1e0a:	0e 94 71 0e 	call	0x1ce2	; 0x1ce2 <debug_putchar>
    1e0e:	8a e0       	ldi	r24, 0x0A	; 10
    1e10:	0e 94 71 0e 	call	0x1ce2	; 0x1ce2 <debug_putchar>
    1e14:	df 91       	pop	r29
    1e16:	cf 91       	pop	r28
    1e18:	08 95       	ret

00001e1a <__cxa_pure_virtual>:
    1e1a:	cf 93       	push	r28
    1e1c:	df 93       	push	r29
    1e1e:	cd b7       	in	r28, 0x3d	; 61
    1e20:	de b7       	in	r29, 0x3e	; 62
    1e22:	8f e1       	ldi	r24, 0x1F	; 31
    1e24:	93 e0       	ldi	r25, 0x03	; 3
    1e26:	0e 94 ae 03 	call	0x75c	; 0x75c <debug_print>
    1e2a:	0e 94 00 0f 	call	0x1e00	; 0x1e00 <debug_print_newline.lto_priv.49>
    1e2e:	ff cf       	rjmp	.-2      	; 0x1e2e <__cxa_pure_virtual+0x14>

00001e30 <debug_print_newline.lto_priv.51>:
    1e30:	cf 93       	push	r28
    1e32:	df 93       	push	r29
    1e34:	cd b7       	in	r28, 0x3d	; 61
    1e36:	de b7       	in	r29, 0x3e	; 62
    1e38:	8d e0       	ldi	r24, 0x0D	; 13
    1e3a:	0e 94 71 0e 	call	0x1ce2	; 0x1ce2 <debug_putchar>
    1e3e:	8a e0       	ldi	r24, 0x0A	; 10
    1e40:	0e 94 71 0e 	call	0x1ce2	; 0x1ce2 <debug_putchar>
    1e44:	df 91       	pop	r29
    1e46:	cf 91       	pop	r28
    1e48:	08 95       	ret

00001e4a <_ZL3dprv>:
    1e4a:	cf 93       	push	r28
    1e4c:	df 93       	push	r29
    1e4e:	cd b7       	in	r28, 0x3d	; 61
    1e50:	de b7       	in	r29, 0x3e	; 62
    1e52:	df 91       	pop	r29
    1e54:	cf 91       	pop	r28
    1e56:	08 95       	ret

00001e58 <_ZL3dprPKc.lto_priv.58>:
    1e58:	cf 93       	push	r28
    1e5a:	df 93       	push	r29
    1e5c:	1f 92       	push	r1
    1e5e:	1f 92       	push	r1
    1e60:	cd b7       	in	r28, 0x3d	; 61
    1e62:	de b7       	in	r29, 0x3e	; 62
    1e64:	9a 83       	std	Y+2, r25	; 0x02
    1e66:	89 83       	std	Y+1, r24	; 0x01
    1e68:	89 81       	ldd	r24, Y+1	; 0x01
    1e6a:	9a 81       	ldd	r25, Y+2	; 0x02
    1e6c:	0e 94 ae 03 	call	0x75c	; 0x75c <debug_print>
    1e70:	0f 90       	pop	r0
    1e72:	0f 90       	pop	r0
    1e74:	df 91       	pop	r29
    1e76:	cf 91       	pop	r28
    1e78:	08 95       	ret

00001e7a <_ZL3dprj.lto_priv.56>:
    1e7a:	cf 93       	push	r28
    1e7c:	df 93       	push	r29
    1e7e:	1f 92       	push	r1
    1e80:	1f 92       	push	r1
    1e82:	cd b7       	in	r28, 0x3d	; 61
    1e84:	de b7       	in	r29, 0x3e	; 62
    1e86:	9a 83       	std	Y+2, r25	; 0x02
    1e88:	89 83       	std	Y+1, r24	; 0x01
    1e8a:	89 81       	ldd	r24, Y+1	; 0x01
    1e8c:	9a 81       	ldd	r25, Y+2	; 0x02
    1e8e:	0e 94 77 04 	call	0x8ee	; 0x8ee <debug_printdec_unsigned_int>
    1e92:	0f 90       	pop	r0
    1e94:	0f 90       	pop	r0
    1e96:	df 91       	pop	r29
    1e98:	cf 91       	pop	r28
    1e9a:	08 95       	ret

00001e9c <dlist_init.lto_priv.47>:
    1e9c:	cf 93       	push	r28
    1e9e:	df 93       	push	r29
    1ea0:	1f 92       	push	r1
    1ea2:	1f 92       	push	r1
    1ea4:	cd b7       	in	r28, 0x3d	; 61
    1ea6:	de b7       	in	r29, 0x3e	; 62
    1ea8:	9a 83       	std	Y+2, r25	; 0x02
    1eaa:	89 83       	std	Y+1, r24	; 0x01
    1eac:	89 81       	ldd	r24, Y+1	; 0x01
    1eae:	9a 81       	ldd	r25, Y+2	; 0x02
    1eb0:	29 81       	ldd	r18, Y+1	; 0x01
    1eb2:	3a 81       	ldd	r19, Y+2	; 0x02
    1eb4:	fc 01       	movw	r30, r24
    1eb6:	33 83       	std	Z+3, r19	; 0x03
    1eb8:	22 83       	std	Z+2, r18	; 0x02
    1eba:	89 81       	ldd	r24, Y+1	; 0x01
    1ebc:	9a 81       	ldd	r25, Y+2	; 0x02
    1ebe:	fc 01       	movw	r30, r24
    1ec0:	22 81       	ldd	r18, Z+2	; 0x02
    1ec2:	33 81       	ldd	r19, Z+3	; 0x03
    1ec4:	89 81       	ldd	r24, Y+1	; 0x01
    1ec6:	9a 81       	ldd	r25, Y+2	; 0x02
    1ec8:	fc 01       	movw	r30, r24
    1eca:	31 83       	std	Z+1, r19	; 0x01
    1ecc:	20 83       	st	Z, r18
    1ece:	0f 90       	pop	r0
    1ed0:	0f 90       	pop	r0
    1ed2:	df 91       	pop	r29
    1ed4:	cf 91       	pop	r28
    1ed6:	08 95       	ret

00001ed8 <__dlist_add>:
    1ed8:	cf 93       	push	r28
    1eda:	df 93       	push	r29
    1edc:	00 d0       	rcall	.+0      	; 0x1ede <__dlist_add+0x6>
    1ede:	00 d0       	rcall	.+0      	; 0x1ee0 <__dlist_add+0x8>
    1ee0:	cd b7       	in	r28, 0x3d	; 61
    1ee2:	de b7       	in	r29, 0x3e	; 62
    1ee4:	9a 83       	std	Y+2, r25	; 0x02
    1ee6:	89 83       	std	Y+1, r24	; 0x01
    1ee8:	7c 83       	std	Y+4, r23	; 0x04
    1eea:	6b 83       	std	Y+3, r22	; 0x03
    1eec:	5e 83       	std	Y+6, r21	; 0x06
    1eee:	4d 83       	std	Y+5, r20	; 0x05
    1ef0:	89 81       	ldd	r24, Y+1	; 0x01
    1ef2:	9a 81       	ldd	r25, Y+2	; 0x02
    1ef4:	2d 81       	ldd	r18, Y+5	; 0x05
    1ef6:	3e 81       	ldd	r19, Y+6	; 0x06
    1ef8:	fc 01       	movw	r30, r24
    1efa:	33 83       	std	Z+3, r19	; 0x03
    1efc:	22 83       	std	Z+2, r18	; 0x02
    1efe:	89 81       	ldd	r24, Y+1	; 0x01
    1f00:	9a 81       	ldd	r25, Y+2	; 0x02
    1f02:	2b 81       	ldd	r18, Y+3	; 0x03
    1f04:	3c 81       	ldd	r19, Y+4	; 0x04
    1f06:	fc 01       	movw	r30, r24
    1f08:	31 83       	std	Z+1, r19	; 0x01
    1f0a:	20 83       	st	Z, r18
    1f0c:	8b 81       	ldd	r24, Y+3	; 0x03
    1f0e:	9c 81       	ldd	r25, Y+4	; 0x04
    1f10:	29 81       	ldd	r18, Y+1	; 0x01
    1f12:	3a 81       	ldd	r19, Y+2	; 0x02
    1f14:	fc 01       	movw	r30, r24
    1f16:	33 83       	std	Z+3, r19	; 0x03
    1f18:	22 83       	std	Z+2, r18	; 0x02
    1f1a:	8d 81       	ldd	r24, Y+5	; 0x05
    1f1c:	9e 81       	ldd	r25, Y+6	; 0x06
    1f1e:	29 81       	ldd	r18, Y+1	; 0x01
    1f20:	3a 81       	ldd	r19, Y+2	; 0x02
    1f22:	fc 01       	movw	r30, r24
    1f24:	31 83       	std	Z+1, r19	; 0x01
    1f26:	20 83       	st	Z, r18
    1f28:	26 96       	adiw	r28, 0x06	; 6
    1f2a:	0f b6       	in	r0, 0x3f	; 63
    1f2c:	f8 94       	cli
    1f2e:	de bf       	out	0x3e, r29	; 62
    1f30:	0f be       	out	0x3f, r0	; 63
    1f32:	cd bf       	out	0x3d, r28	; 61
    1f34:	df 91       	pop	r29
    1f36:	cf 91       	pop	r28
    1f38:	08 95       	ret

00001f3a <dlist_add_prev>:
    1f3a:	cf 93       	push	r28
    1f3c:	df 93       	push	r29
    1f3e:	00 d0       	rcall	.+0      	; 0x1f40 <dlist_add_prev+0x6>
    1f40:	1f 92       	push	r1
    1f42:	cd b7       	in	r28, 0x3d	; 61
    1f44:	de b7       	in	r29, 0x3e	; 62
    1f46:	9a 83       	std	Y+2, r25	; 0x02
    1f48:	89 83       	std	Y+1, r24	; 0x01
    1f4a:	7c 83       	std	Y+4, r23	; 0x04
    1f4c:	6b 83       	std	Y+3, r22	; 0x03
    1f4e:	8b 81       	ldd	r24, Y+3	; 0x03
    1f50:	9c 81       	ldd	r25, Y+4	; 0x04
    1f52:	fc 01       	movw	r30, r24
    1f54:	42 81       	ldd	r20, Z+2	; 0x02
    1f56:	53 81       	ldd	r21, Z+3	; 0x03
    1f58:	2b 81       	ldd	r18, Y+3	; 0x03
    1f5a:	3c 81       	ldd	r19, Y+4	; 0x04
    1f5c:	89 81       	ldd	r24, Y+1	; 0x01
    1f5e:	9a 81       	ldd	r25, Y+2	; 0x02
    1f60:	b9 01       	movw	r22, r18
    1f62:	0e 94 6c 0f 	call	0x1ed8	; 0x1ed8 <__dlist_add>
    1f66:	0f 90       	pop	r0
    1f68:	0f 90       	pop	r0
    1f6a:	0f 90       	pop	r0
    1f6c:	0f 90       	pop	r0
    1f6e:	df 91       	pop	r29
    1f70:	cf 91       	pop	r28
    1f72:	08 95       	ret

00001f74 <__dlist_del.lto_priv.44>:
    1f74:	cf 93       	push	r28
    1f76:	df 93       	push	r29
    1f78:	00 d0       	rcall	.+0      	; 0x1f7a <__dlist_del.lto_priv.44+0x6>
    1f7a:	1f 92       	push	r1
    1f7c:	cd b7       	in	r28, 0x3d	; 61
    1f7e:	de b7       	in	r29, 0x3e	; 62
    1f80:	9a 83       	std	Y+2, r25	; 0x02
    1f82:	89 83       	std	Y+1, r24	; 0x01
    1f84:	7c 83       	std	Y+4, r23	; 0x04
    1f86:	6b 83       	std	Y+3, r22	; 0x03
    1f88:	8b 81       	ldd	r24, Y+3	; 0x03
    1f8a:	9c 81       	ldd	r25, Y+4	; 0x04
    1f8c:	29 81       	ldd	r18, Y+1	; 0x01
    1f8e:	3a 81       	ldd	r19, Y+2	; 0x02
    1f90:	fc 01       	movw	r30, r24
    1f92:	33 83       	std	Z+3, r19	; 0x03
    1f94:	22 83       	std	Z+2, r18	; 0x02
    1f96:	89 81       	ldd	r24, Y+1	; 0x01
    1f98:	9a 81       	ldd	r25, Y+2	; 0x02
    1f9a:	2b 81       	ldd	r18, Y+3	; 0x03
    1f9c:	3c 81       	ldd	r19, Y+4	; 0x04
    1f9e:	fc 01       	movw	r30, r24
    1fa0:	31 83       	std	Z+1, r19	; 0x01
    1fa2:	20 83       	st	Z, r18
    1fa4:	0f 90       	pop	r0
    1fa6:	0f 90       	pop	r0
    1fa8:	0f 90       	pop	r0
    1faa:	0f 90       	pop	r0
    1fac:	df 91       	pop	r29
    1fae:	cf 91       	pop	r28
    1fb0:	08 95       	ret

00001fb2 <dlist_del_init.lto_priv.65>:
    1fb2:	cf 93       	push	r28
    1fb4:	df 93       	push	r29
    1fb6:	1f 92       	push	r1
    1fb8:	1f 92       	push	r1
    1fba:	cd b7       	in	r28, 0x3d	; 61
    1fbc:	de b7       	in	r29, 0x3e	; 62
    1fbe:	9a 83       	std	Y+2, r25	; 0x02
    1fc0:	89 83       	std	Y+1, r24	; 0x01
    1fc2:	89 81       	ldd	r24, Y+1	; 0x01
    1fc4:	9a 81       	ldd	r25, Y+2	; 0x02
    1fc6:	fc 01       	movw	r30, r24
    1fc8:	20 81       	ld	r18, Z
    1fca:	31 81       	ldd	r19, Z+1	; 0x01
    1fcc:	89 81       	ldd	r24, Y+1	; 0x01
    1fce:	9a 81       	ldd	r25, Y+2	; 0x02
    1fd0:	fc 01       	movw	r30, r24
    1fd2:	82 81       	ldd	r24, Z+2	; 0x02
    1fd4:	93 81       	ldd	r25, Z+3	; 0x03
    1fd6:	b9 01       	movw	r22, r18
    1fd8:	0e 94 ba 0f 	call	0x1f74	; 0x1f74 <__dlist_del.lto_priv.44>
    1fdc:	89 81       	ldd	r24, Y+1	; 0x01
    1fde:	9a 81       	ldd	r25, Y+2	; 0x02
    1fe0:	0e 94 4e 0f 	call	0x1e9c	; 0x1e9c <dlist_init.lto_priv.47>
    1fe4:	0f 90       	pop	r0
    1fe6:	0f 90       	pop	r0
    1fe8:	df 91       	pop	r29
    1fea:	cf 91       	pop	r28
    1fec:	08 95       	ret

00001fee <dlist_move_tail>:
    1fee:	cf 93       	push	r28
    1ff0:	df 93       	push	r29
    1ff2:	00 d0       	rcall	.+0      	; 0x1ff4 <dlist_move_tail+0x6>
    1ff4:	1f 92       	push	r1
    1ff6:	cd b7       	in	r28, 0x3d	; 61
    1ff8:	de b7       	in	r29, 0x3e	; 62
    1ffa:	9a 83       	std	Y+2, r25	; 0x02
    1ffc:	89 83       	std	Y+1, r24	; 0x01
    1ffe:	7c 83       	std	Y+4, r23	; 0x04
    2000:	6b 83       	std	Y+3, r22	; 0x03
    2002:	89 81       	ldd	r24, Y+1	; 0x01
    2004:	9a 81       	ldd	r25, Y+2	; 0x02
    2006:	fc 01       	movw	r30, r24
    2008:	20 81       	ld	r18, Z
    200a:	31 81       	ldd	r19, Z+1	; 0x01
    200c:	89 81       	ldd	r24, Y+1	; 0x01
    200e:	9a 81       	ldd	r25, Y+2	; 0x02
    2010:	fc 01       	movw	r30, r24
    2012:	82 81       	ldd	r24, Z+2	; 0x02
    2014:	93 81       	ldd	r25, Z+3	; 0x03
    2016:	b9 01       	movw	r22, r18
    2018:	0e 94 ba 0f 	call	0x1f74	; 0x1f74 <__dlist_del.lto_priv.44>
    201c:	2b 81       	ldd	r18, Y+3	; 0x03
    201e:	3c 81       	ldd	r19, Y+4	; 0x04
    2020:	89 81       	ldd	r24, Y+1	; 0x01
    2022:	9a 81       	ldd	r25, Y+2	; 0x02
    2024:	b9 01       	movw	r22, r18
    2026:	0e 94 9d 0f 	call	0x1f3a	; 0x1f3a <dlist_add_prev>
    202a:	0f 90       	pop	r0
    202c:	0f 90       	pop	r0
    202e:	0f 90       	pop	r0
    2030:	0f 90       	pop	r0
    2032:	df 91       	pop	r29
    2034:	cf 91       	pop	r28
    2036:	08 95       	ret

00002038 <debug_print_location>:
    2038:	cf 93       	push	r28
    203a:	df 93       	push	r29
    203c:	00 d0       	rcall	.+0      	; 0x203e <debug_print_location+0x6>
    203e:	00 d0       	rcall	.+0      	; 0x2040 <debug_print_location+0x8>
    2040:	cd b7       	in	r28, 0x3d	; 61
    2042:	de b7       	in	r29, 0x3e	; 62
    2044:	49 83       	std	Y+1, r20	; 0x01
    2046:	5a 83       	std	Y+2, r21	; 0x02
    2048:	6b 83       	std	Y+3, r22	; 0x03
    204a:	7c 83       	std	Y+4, r23	; 0x04
    204c:	8d 83       	std	Y+5, r24	; 0x05
    204e:	9e 83       	std	Y+6, r25	; 0x06
    2050:	8f e3       	ldi	r24, 0x3F	; 63
    2052:	93 e0       	ldi	r25, 0x03	; 3
    2054:	0e 94 ae 03 	call	0x75c	; 0x75c <debug_print>
    2058:	8b 81       	ldd	r24, Y+3	; 0x03
    205a:	9c 81       	ldd	r25, Y+4	; 0x04
    205c:	0e 94 ae 03 	call	0x75c	; 0x75c <debug_print>
    2060:	0e 94 18 0f 	call	0x1e30	; 0x1e30 <debug_print_newline.lto_priv.51>
    2064:	86 e4       	ldi	r24, 0x46	; 70
    2066:	93 e0       	ldi	r25, 0x03	; 3
    2068:	0e 94 ae 03 	call	0x75c	; 0x75c <debug_print>
    206c:	8d 81       	ldd	r24, Y+5	; 0x05
    206e:	9e 81       	ldd	r25, Y+6	; 0x06
    2070:	0e 94 ae 03 	call	0x75c	; 0x75c <debug_print>
    2074:	0e 94 18 0f 	call	0x1e30	; 0x1e30 <debug_print_newline.lto_priv.51>
    2078:	8d e4       	ldi	r24, 0x4D	; 77
    207a:	93 e0       	ldi	r25, 0x03	; 3
    207c:	0e 94 ae 03 	call	0x75c	; 0x75c <debug_print>
    2080:	89 81       	ldd	r24, Y+1	; 0x01
    2082:	9a 81       	ldd	r25, Y+2	; 0x02
    2084:	0e 94 77 04 	call	0x8ee	; 0x8ee <debug_printdec_unsigned_int>
    2088:	0e 94 18 0f 	call	0x1e30	; 0x1e30 <debug_print_newline.lto_priv.51>
    208c:	26 96       	adiw	r28, 0x06	; 6
    208e:	0f b6       	in	r0, 0x3f	; 63
    2090:	f8 94       	cli
    2092:	de bf       	out	0x3e, r29	; 62
    2094:	0f be       	out	0x3f, r0	; 63
    2096:	cd bf       	out	0x3d, r28	; 61
    2098:	df 91       	pop	r29
    209a:	cf 91       	pop	r28
    209c:	08 95       	ret

0000209e <_ZN5igris15console_commandC1EPKcPFiiPPcES2_>:
    209e:	cf 93       	push	r28
    20a0:	df 93       	push	r29
    20a2:	cd b7       	in	r28, 0x3d	; 61
    20a4:	de b7       	in	r29, 0x3e	; 62
    20a6:	28 97       	sbiw	r28, 0x08	; 8
    20a8:	0f b6       	in	r0, 0x3f	; 63
    20aa:	f8 94       	cli
    20ac:	de bf       	out	0x3e, r29	; 62
    20ae:	0f be       	out	0x3f, r0	; 63
    20b0:	cd bf       	out	0x3d, r28	; 61
    20b2:	9a 83       	std	Y+2, r25	; 0x02
    20b4:	89 83       	std	Y+1, r24	; 0x01
    20b6:	7c 83       	std	Y+4, r23	; 0x04
    20b8:	6b 83       	std	Y+3, r22	; 0x03
    20ba:	5e 83       	std	Y+6, r21	; 0x06
    20bc:	4d 83       	std	Y+5, r20	; 0x05
    20be:	38 87       	std	Y+8, r19	; 0x08
    20c0:	2f 83       	std	Y+7, r18	; 0x07
    20c2:	89 81       	ldd	r24, Y+1	; 0x01
    20c4:	9a 81       	ldd	r25, Y+2	; 0x02
    20c6:	2b 81       	ldd	r18, Y+3	; 0x03
    20c8:	3c 81       	ldd	r19, Y+4	; 0x04
    20ca:	fc 01       	movw	r30, r24
    20cc:	31 83       	std	Z+1, r19	; 0x01
    20ce:	20 83       	st	Z, r18
    20d0:	89 81       	ldd	r24, Y+1	; 0x01
    20d2:	9a 81       	ldd	r25, Y+2	; 0x02
    20d4:	2d 81       	ldd	r18, Y+5	; 0x05
    20d6:	3e 81       	ldd	r19, Y+6	; 0x06
    20d8:	fc 01       	movw	r30, r24
    20da:	33 83       	std	Z+3, r19	; 0x03
    20dc:	22 83       	std	Z+2, r18	; 0x02
    20de:	89 81       	ldd	r24, Y+1	; 0x01
    20e0:	9a 81       	ldd	r25, Y+2	; 0x02
    20e2:	fc 01       	movw	r30, r24
    20e4:	14 82       	std	Z+4, r1	; 0x04
    20e6:	89 81       	ldd	r24, Y+1	; 0x01
    20e8:	9a 81       	ldd	r25, Y+2	; 0x02
    20ea:	2f 81       	ldd	r18, Y+7	; 0x07
    20ec:	38 85       	ldd	r19, Y+8	; 0x08
    20ee:	fc 01       	movw	r30, r24
    20f0:	36 83       	std	Z+6, r19	; 0x06
    20f2:	25 83       	std	Z+5, r18	; 0x05
    20f4:	28 96       	adiw	r28, 0x08	; 8
    20f6:	0f b6       	in	r0, 0x3f	; 63
    20f8:	f8 94       	cli
    20fa:	de bf       	out	0x3e, r29	; 62
    20fc:	0f be       	out	0x3f, r0	; 63
    20fe:	cd bf       	out	0x3d, r28	; 61
    2100:	df 91       	pop	r29
    2102:	cf 91       	pop	r28
    2104:	08 95       	ret

00002106 <_ZN5igris15console_commandC1EPKcPFvvES2_>:
    2106:	cf 93       	push	r28
    2108:	df 93       	push	r29
    210a:	cd b7       	in	r28, 0x3d	; 61
    210c:	de b7       	in	r29, 0x3e	; 62
    210e:	28 97       	sbiw	r28, 0x08	; 8
    2110:	0f b6       	in	r0, 0x3f	; 63
    2112:	f8 94       	cli
    2114:	de bf       	out	0x3e, r29	; 62
    2116:	0f be       	out	0x3f, r0	; 63
    2118:	cd bf       	out	0x3d, r28	; 61
    211a:	9a 83       	std	Y+2, r25	; 0x02
    211c:	89 83       	std	Y+1, r24	; 0x01
    211e:	7c 83       	std	Y+4, r23	; 0x04
    2120:	6b 83       	std	Y+3, r22	; 0x03
    2122:	5e 83       	std	Y+6, r21	; 0x06
    2124:	4d 83       	std	Y+5, r20	; 0x05
    2126:	38 87       	std	Y+8, r19	; 0x08
    2128:	2f 83       	std	Y+7, r18	; 0x07
    212a:	89 81       	ldd	r24, Y+1	; 0x01
    212c:	9a 81       	ldd	r25, Y+2	; 0x02
    212e:	2b 81       	ldd	r18, Y+3	; 0x03
    2130:	3c 81       	ldd	r19, Y+4	; 0x04
    2132:	fc 01       	movw	r30, r24
    2134:	31 83       	std	Z+1, r19	; 0x01
    2136:	20 83       	st	Z, r18
    2138:	89 81       	ldd	r24, Y+1	; 0x01
    213a:	9a 81       	ldd	r25, Y+2	; 0x02
    213c:	2d 81       	ldd	r18, Y+5	; 0x05
    213e:	3e 81       	ldd	r19, Y+6	; 0x06
    2140:	fc 01       	movw	r30, r24
    2142:	33 83       	std	Z+3, r19	; 0x03
    2144:	22 83       	std	Z+2, r18	; 0x02
    2146:	89 81       	ldd	r24, Y+1	; 0x01
    2148:	9a 81       	ldd	r25, Y+2	; 0x02
    214a:	fc 01       	movw	r30, r24
    214c:	14 82       	std	Z+4, r1	; 0x04
    214e:	89 81       	ldd	r24, Y+1	; 0x01
    2150:	9a 81       	ldd	r25, Y+2	; 0x02
    2152:	2f 81       	ldd	r18, Y+7	; 0x07
    2154:	38 85       	ldd	r19, Y+8	; 0x08
    2156:	fc 01       	movw	r30, r24
    2158:	36 83       	std	Z+6, r19	; 0x06
    215a:	25 83       	std	Z+5, r18	; 0x05
    215c:	28 96       	adiw	r28, 0x08	; 8
    215e:	0f b6       	in	r0, 0x3f	; 63
    2160:	f8 94       	cli
    2162:	de bf       	out	0x3e, r29	; 62
    2164:	0f be       	out	0x3f, r0	; 63
    2166:	cd bf       	out	0x3d, r28	; 61
    2168:	df 91       	pop	r29
    216a:	cf 91       	pop	r28
    216c:	08 95       	ret

0000216e <_ZN5igris15console_commandC1EPKcPvS2_>:
    216e:	cf 93       	push	r28
    2170:	df 93       	push	r29
    2172:	cd b7       	in	r28, 0x3d	; 61
    2174:	de b7       	in	r29, 0x3e	; 62
    2176:	28 97       	sbiw	r28, 0x08	; 8
    2178:	0f b6       	in	r0, 0x3f	; 63
    217a:	f8 94       	cli
    217c:	de bf       	out	0x3e, r29	; 62
    217e:	0f be       	out	0x3f, r0	; 63
    2180:	cd bf       	out	0x3d, r28	; 61
    2182:	9a 83       	std	Y+2, r25	; 0x02
    2184:	89 83       	std	Y+1, r24	; 0x01
    2186:	7c 83       	std	Y+4, r23	; 0x04
    2188:	6b 83       	std	Y+3, r22	; 0x03
    218a:	5e 83       	std	Y+6, r21	; 0x06
    218c:	4d 83       	std	Y+5, r20	; 0x05
    218e:	38 87       	std	Y+8, r19	; 0x08
    2190:	2f 83       	std	Y+7, r18	; 0x07
    2192:	89 81       	ldd	r24, Y+1	; 0x01
    2194:	9a 81       	ldd	r25, Y+2	; 0x02
    2196:	2b 81       	ldd	r18, Y+3	; 0x03
    2198:	3c 81       	ldd	r19, Y+4	; 0x04
    219a:	fc 01       	movw	r30, r24
    219c:	31 83       	std	Z+1, r19	; 0x01
    219e:	20 83       	st	Z, r18
    21a0:	89 81       	ldd	r24, Y+1	; 0x01
    21a2:	9a 81       	ldd	r25, Y+2	; 0x02
    21a4:	2d 81       	ldd	r18, Y+5	; 0x05
    21a6:	3e 81       	ldd	r19, Y+6	; 0x06
    21a8:	fc 01       	movw	r30, r24
    21aa:	33 83       	std	Z+3, r19	; 0x03
    21ac:	22 83       	std	Z+2, r18	; 0x02
    21ae:	89 81       	ldd	r24, Y+1	; 0x01
    21b0:	9a 81       	ldd	r25, Y+2	; 0x02
    21b2:	fc 01       	movw	r30, r24
    21b4:	14 82       	std	Z+4, r1	; 0x04
    21b6:	89 81       	ldd	r24, Y+1	; 0x01
    21b8:	9a 81       	ldd	r25, Y+2	; 0x02
    21ba:	2f 81       	ldd	r18, Y+7	; 0x07
    21bc:	38 85       	ldd	r19, Y+8	; 0x08
    21be:	fc 01       	movw	r30, r24
    21c0:	36 83       	std	Z+6, r19	; 0x06
    21c2:	25 83       	std	Z+5, r18	; 0x05
    21c4:	28 96       	adiw	r28, 0x08	; 8
    21c6:	0f b6       	in	r0, 0x3f	; 63
    21c8:	f8 94       	cli
    21ca:	de bf       	out	0x3e, r29	; 62
    21cc:	0f be       	out	0x3f, r0	; 63
    21ce:	cd bf       	out	0x3d, r28	; 61
    21d0:	df 91       	pop	r29
    21d2:	cf 91       	pop	r28
    21d4:	08 95       	ret

000021d6 <irqs_enable>:
    21d6:	cf 93       	push	r28
    21d8:	df 93       	push	r29
    21da:	cd b7       	in	r28, 0x3d	; 61
    21dc:	de b7       	in	r29, 0x3e	; 62
    21de:	78 94       	sei
    21e0:	df 91       	pop	r29
    21e2:	cf 91       	pop	r28
    21e4:	08 95       	ret

000021e6 <current_schedee>:
    21e6:	cf 93       	push	r28
    21e8:	df 93       	push	r29
    21ea:	cd b7       	in	r28, 0x3d	; 61
    21ec:	de b7       	in	r29, 0x3e	; 62
    21ee:	80 91 62 05 	lds	r24, 0x0562	; 0x800562 <__current_schedee>
    21f2:	90 91 63 05 	lds	r25, 0x0563	; 0x800563 <__current_schedee+0x1>
    21f6:	df 91       	pop	r29
    21f8:	cf 91       	pop	r28
    21fa:	08 95       	ret

000021fc <schedee_run>:
    21fc:	cf 93       	push	r28
    21fe:	df 93       	push	r29
    2200:	1f 92       	push	r1
    2202:	1f 92       	push	r1
    2204:	cd b7       	in	r28, 0x3d	; 61
    2206:	de b7       	in	r29, 0x3e	; 62
    2208:	9a 83       	std	Y+2, r25	; 0x02
    220a:	89 83       	std	Y+1, r24	; 0x01
    220c:	0e 94 b5 0e 	call	0x1d6a	; 0x1d6a <system_lock>
    2210:	89 81       	ldd	r24, Y+1	; 0x01
    2212:	9a 81       	ldd	r25, Y+2	; 0x02
    2214:	fc 01       	movw	r30, r24
    2216:	14 8a       	std	Z+20, r1	; 0x14
    2218:	89 81       	ldd	r24, Y+1	; 0x01
    221a:	9a 81       	ldd	r25, Y+2	; 0x02
    221c:	fc 01       	movw	r30, r24
    221e:	12 86       	std	Z+10, r1	; 0x0a
    2220:	89 81       	ldd	r24, Y+1	; 0x01
    2222:	9a 81       	ldd	r25, Y+2	; 0x02
    2224:	04 96       	adiw	r24, 0x04	; 4
    2226:	60 e0       	ldi	r22, 0x00	; 0
    2228:	72 e0       	ldi	r23, 0x02	; 2
    222a:	0e 94 f7 0f 	call	0x1fee	; 0x1fee <dlist_move_tail>
    222e:	0e 94 d7 0e 	call	0x1dae	; 0x1dae <system_unlock>
    2232:	0f 90       	pop	r0
    2234:	0f 90       	pop	r0
    2236:	df 91       	pop	r29
    2238:	cf 91       	pop	r28
    223a:	08 95       	ret

0000223c <__schedee_final>:
    223c:	cf 93       	push	r28
    223e:	df 93       	push	r29
    2240:	1f 92       	push	r1
    2242:	1f 92       	push	r1
    2244:	cd b7       	in	r28, 0x3d	; 61
    2246:	de b7       	in	r29, 0x3e	; 62
    2248:	9a 83       	std	Y+2, r25	; 0x02
    224a:	89 83       	std	Y+1, r24	; 0x01
    224c:	0e 94 b5 0e 	call	0x1d6a	; 0x1d6a <system_lock>
    2250:	89 81       	ldd	r24, Y+1	; 0x01
    2252:	9a 81       	ldd	r25, Y+2	; 0x02
    2254:	24 e0       	ldi	r18, 0x04	; 4
    2256:	fc 01       	movw	r30, r24
    2258:	24 8b       	std	Z+20, r18	; 0x14
    225a:	89 81       	ldd	r24, Y+1	; 0x01
    225c:	9a 81       	ldd	r25, Y+2	; 0x02
    225e:	04 96       	adiw	r24, 0x04	; 4
    2260:	64 e0       	ldi	r22, 0x04	; 4
    2262:	72 e0       	ldi	r23, 0x02	; 2
    2264:	0e 94 f7 0f 	call	0x1fee	; 0x1fee <dlist_move_tail>
    2268:	0e 94 d7 0e 	call	0x1dae	; 0x1dae <system_unlock>
    226c:	0f 90       	pop	r0
    226e:	0f 90       	pop	r0
    2270:	df 91       	pop	r29
    2272:	cf 91       	pop	r28
    2274:	08 95       	ret

00002276 <schedee_stop>:
    2276:	cf 93       	push	r28
    2278:	df 93       	push	r29
    227a:	1f 92       	push	r1
    227c:	1f 92       	push	r1
    227e:	cd b7       	in	r28, 0x3d	; 61
    2280:	de b7       	in	r29, 0x3e	; 62
    2282:	9a 83       	std	Y+2, r25	; 0x02
    2284:	89 83       	std	Y+1, r24	; 0x01
    2286:	0e 94 b5 0e 	call	0x1d6a	; 0x1d6a <system_lock>
    228a:	89 81       	ldd	r24, Y+1	; 0x01
    228c:	9a 81       	ldd	r25, Y+2	; 0x02
    228e:	23 e0       	ldi	r18, 0x03	; 3
    2290:	fc 01       	movw	r30, r24
    2292:	24 8b       	std	Z+20, r18	; 0x14
    2294:	89 81       	ldd	r24, Y+1	; 0x01
    2296:	9a 81       	ldd	r25, Y+2	; 0x02
    2298:	04 96       	adiw	r24, 0x04	; 4
    229a:	0e 94 d9 0f 	call	0x1fb2	; 0x1fb2 <dlist_del_init.lto_priv.65>
    229e:	0e 94 d7 0e 	call	0x1dae	; 0x1dae <system_unlock>
    22a2:	0f 90       	pop	r0
    22a4:	0f 90       	pop	r0
    22a6:	df 91       	pop	r29
    22a8:	cf 91       	pop	r28
    22aa:	08 95       	ret

000022ac <_Z20schedee_state_stringh>:
    22ac:	cf 93       	push	r28
    22ae:	df 93       	push	r29
    22b0:	1f 92       	push	r1
    22b2:	cd b7       	in	r28, 0x3d	; 61
    22b4:	de b7       	in	r29, 0x3e	; 62
    22b6:	89 83       	std	Y+1, r24	; 0x01
    22b8:	89 81       	ldd	r24, Y+1	; 0x01
    22ba:	88 2f       	mov	r24, r24
    22bc:	90 e0       	ldi	r25, 0x00	; 0
    22be:	83 30       	cpi	r24, 0x03	; 3
    22c0:	91 05       	cpc	r25, r1
    22c2:	a1 f0       	breq	.+40     	; 0x22ec <_Z20schedee_state_stringh+0x40>
    22c4:	84 30       	cpi	r24, 0x04	; 4
    22c6:	91 05       	cpc	r25, r1
    22c8:	2c f4       	brge	.+10     	; 0x22d4 <_Z20schedee_state_stringh+0x28>
    22ca:	00 97       	sbiw	r24, 0x00	; 0
    22cc:	61 f0       	breq	.+24     	; 0x22e6 <_Z20schedee_state_stringh+0x3a>
    22ce:	02 97       	sbiw	r24, 0x02	; 2
    22d0:	81 f0       	breq	.+32     	; 0x22f2 <_Z20schedee_state_stringh+0x46>
    22d2:	1b c0       	rjmp	.+54     	; 0x230a <_Z20schedee_state_stringh+0x5e>
    22d4:	85 30       	cpi	r24, 0x05	; 5
    22d6:	91 05       	cpc	r25, r1
    22d8:	a9 f0       	breq	.+42     	; 0x2304 <_Z20schedee_state_stringh+0x58>
    22da:	85 30       	cpi	r24, 0x05	; 5
    22dc:	91 05       	cpc	r25, r1
    22de:	7c f0       	brlt	.+30     	; 0x22fe <_Z20schedee_state_stringh+0x52>
    22e0:	06 97       	sbiw	r24, 0x06	; 6
    22e2:	51 f0       	breq	.+20     	; 0x22f8 <_Z20schedee_state_stringh+0x4c>
    22e4:	12 c0       	rjmp	.+36     	; 0x230a <_Z20schedee_state_stringh+0x5e>
    22e6:	84 e5       	ldi	r24, 0x54	; 84
    22e8:	93 e0       	ldi	r25, 0x03	; 3
    22ea:	11 c0       	rjmp	.+34     	; 0x230e <_Z20schedee_state_stringh+0x62>
    22ec:	88 e5       	ldi	r24, 0x58	; 88
    22ee:	93 e0       	ldi	r25, 0x03	; 3
    22f0:	0e c0       	rjmp	.+28     	; 0x230e <_Z20schedee_state_stringh+0x62>
    22f2:	8d e5       	ldi	r24, 0x5D	; 93
    22f4:	93 e0       	ldi	r25, 0x03	; 3
    22f6:	0b c0       	rjmp	.+22     	; 0x230e <_Z20schedee_state_stringh+0x62>
    22f8:	82 e6       	ldi	r24, 0x62	; 98
    22fa:	93 e0       	ldi	r25, 0x03	; 3
    22fc:	08 c0       	rjmp	.+16     	; 0x230e <_Z20schedee_state_stringh+0x62>
    22fe:	8a e6       	ldi	r24, 0x6A	; 106
    2300:	93 e0       	ldi	r25, 0x03	; 3
    2302:	05 c0       	rjmp	.+10     	; 0x230e <_Z20schedee_state_stringh+0x62>
    2304:	80 e7       	ldi	r24, 0x70	; 112
    2306:	93 e0       	ldi	r25, 0x03	; 3
    2308:	02 c0       	rjmp	.+4      	; 0x230e <_Z20schedee_state_stringh+0x62>
    230a:	85 e7       	ldi	r24, 0x75	; 117
    230c:	93 e0       	ldi	r25, 0x03	; 3
    230e:	0f 90       	pop	r0
    2310:	df 91       	pop	r29
    2312:	cf 91       	pop	r28
    2314:	08 95       	ret

00002316 <_ZL10ps_commandv>:
    2316:	cf 93       	push	r28
    2318:	df 93       	push	r29
    231a:	1f 92       	push	r1
    231c:	1f 92       	push	r1
    231e:	cd b7       	in	r28, 0x3d	; 61
    2320:	de b7       	in	r29, 0x3e	; 62
    2322:	80 91 08 02 	lds	r24, 0x0208	; 0x800208 <schedee_list>
    2326:	90 91 09 02 	lds	r25, 0x0209	; 0x800209 <schedee_list+0x1>
    232a:	4c 97       	sbiw	r24, 0x1c	; 28
    232c:	9a 83       	std	Y+2, r25	; 0x02
    232e:	89 83       	std	Y+1, r24	; 0x01
    2330:	89 81       	ldd	r24, Y+1	; 0x01
    2332:	9a 81       	ldd	r25, Y+2	; 0x02
    2334:	4c 96       	adiw	r24, 0x1c	; 28
    2336:	88 50       	subi	r24, 0x08	; 8
    2338:	92 40       	sbci	r25, 0x02	; 2
    233a:	09 f4       	brne	.+2      	; 0x233e <_ZL10ps_commandv+0x28>
    233c:	56 c0       	rjmp	.+172    	; 0x23ea <_ZL10ps_commandv+0xd4>
    233e:	89 81       	ldd	r24, Y+1	; 0x01
    2340:	9a 81       	ldd	r25, Y+2	; 0x02
    2342:	fc 01       	movw	r30, r24
    2344:	82 8d       	ldd	r24, Z+26	; 0x1a
    2346:	93 8d       	ldd	r25, Z+27	; 0x1b
    2348:	89 2b       	or	r24, r25
    234a:	41 f0       	breq	.+16     	; 0x235c <_ZL10ps_commandv+0x46>
    234c:	89 81       	ldd	r24, Y+1	; 0x01
    234e:	9a 81       	ldd	r25, Y+2	; 0x02
    2350:	fc 01       	movw	r30, r24
    2352:	82 8d       	ldd	r24, Z+26	; 0x1a
    2354:	93 8d       	ldd	r25, Z+27	; 0x1b
    2356:	0e 94 2c 0f 	call	0x1e58	; 0x1e58 <_ZL3dprPKc.lto_priv.58>
    235a:	04 c0       	rjmp	.+8      	; 0x2364 <_ZL10ps_commandv+0x4e>
    235c:	86 e7       	ldi	r24, 0x76	; 118
    235e:	93 e0       	ldi	r25, 0x03	; 3
    2360:	0e 94 2c 0f 	call	0x1e58	; 0x1e58 <_ZL3dprPKc.lto_priv.58>
    2364:	8e e7       	ldi	r24, 0x7E	; 126
    2366:	93 e0       	ldi	r25, 0x03	; 3
    2368:	0e 94 2c 0f 	call	0x1e58	; 0x1e58 <_ZL3dprPKc.lto_priv.58>
    236c:	89 81       	ldd	r24, Y+1	; 0x01
    236e:	9a 81       	ldd	r25, Y+2	; 0x02
    2370:	fc 01       	movw	r30, r24
    2372:	86 89       	ldd	r24, Z+22	; 0x16
    2374:	97 89       	ldd	r25, Z+23	; 0x17
    2376:	0e 94 3d 0f 	call	0x1e7a	; 0x1e7a <_ZL3dprj.lto_priv.56>
    237a:	84 e8       	ldi	r24, 0x84	; 132
    237c:	93 e0       	ldi	r25, 0x03	; 3
    237e:	0e 94 2c 0f 	call	0x1e58	; 0x1e58 <_ZL3dprPKc.lto_priv.58>
    2382:	89 81       	ldd	r24, Y+1	; 0x01
    2384:	9a 81       	ldd	r25, Y+2	; 0x02
    2386:	fc 01       	movw	r30, r24
    2388:	80 8d       	ldd	r24, Z+24	; 0x18
    238a:	91 8d       	ldd	r25, Z+25	; 0x19
    238c:	0e 94 3d 0f 	call	0x1e7a	; 0x1e7a <_ZL3dprj.lto_priv.56>
    2390:	8a e8       	ldi	r24, 0x8A	; 138
    2392:	93 e0       	ldi	r25, 0x03	; 3
    2394:	0e 94 2c 0f 	call	0x1e58	; 0x1e58 <_ZL3dprPKc.lto_priv.58>
    2398:	89 81       	ldd	r24, Y+1	; 0x01
    239a:	9a 81       	ldd	r25, Y+2	; 0x02
    239c:	fc 01       	movw	r30, r24
    239e:	82 a1       	ldd	r24, Z+34	; 0x22
    23a0:	93 a1       	ldd	r25, Z+35	; 0x23
    23a2:	0e 94 3d 0f 	call	0x1e7a	; 0x1e7a <_ZL3dprj.lto_priv.56>
    23a6:	81 e9       	ldi	r24, 0x91	; 145
    23a8:	93 e0       	ldi	r25, 0x03	; 3
    23aa:	0e 94 2c 0f 	call	0x1e58	; 0x1e58 <_ZL3dprPKc.lto_priv.58>
    23ae:	89 81       	ldd	r24, Y+1	; 0x01
    23b0:	9a 81       	ldd	r25, Y+2	; 0x02
    23b2:	fc 01       	movw	r30, r24
    23b4:	80 a1       	ldd	r24, Z+32	; 0x20
    23b6:	91 a1       	ldd	r25, Z+33	; 0x21
    23b8:	0e 94 3d 0f 	call	0x1e7a	; 0x1e7a <_ZL3dprj.lto_priv.56>
    23bc:	88 e9       	ldi	r24, 0x98	; 152
    23be:	93 e0       	ldi	r25, 0x03	; 3
    23c0:	0e 94 2c 0f 	call	0x1e58	; 0x1e58 <_ZL3dprPKc.lto_priv.58>
    23c4:	89 81       	ldd	r24, Y+1	; 0x01
    23c6:	9a 81       	ldd	r25, Y+2	; 0x02
    23c8:	fc 01       	movw	r30, r24
    23ca:	84 89       	ldd	r24, Z+20	; 0x14
    23cc:	0e 94 56 11 	call	0x22ac	; 0x22ac <_Z20schedee_state_stringh>
    23d0:	0e 94 2c 0f 	call	0x1e58	; 0x1e58 <_ZL3dprPKc.lto_priv.58>
    23d4:	0e 94 bd 12 	call	0x257a	; 0x257a <_Z5dprlnIJEEvDpRKT_>
    23d8:	89 81       	ldd	r24, Y+1	; 0x01
    23da:	9a 81       	ldd	r25, Y+2	; 0x02
    23dc:	fc 01       	movw	r30, r24
    23de:	84 8d       	ldd	r24, Z+28	; 0x1c
    23e0:	95 8d       	ldd	r25, Z+29	; 0x1d
    23e2:	4c 97       	sbiw	r24, 0x1c	; 28
    23e4:	9a 83       	std	Y+2, r25	; 0x02
    23e6:	89 83       	std	Y+1, r24	; 0x01
    23e8:	a3 cf       	rjmp	.-186    	; 0x2330 <_ZL10ps_commandv+0x1a>
    23ea:	0f 90       	pop	r0
    23ec:	0f 90       	pop	r0
    23ee:	df 91       	pop	r29
    23f0:	cf 91       	pop	r28
    23f2:	08 95       	ret

000023f4 <__context_displace_vector__>:
    23f4:	cf 93       	push	r28
    23f6:	df 93       	push	r29
    23f8:	cd b7       	in	r28, 0x3d	; 61
    23fa:	de b7       	in	r29, 0x3e	; 62
    23fc:	8d e5       	ldi	r24, 0x5D	; 93
    23fe:	90 e0       	ldi	r25, 0x00	; 0
    2400:	2f ef       	ldi	r18, 0xFF	; 255
    2402:	31 e2       	ldi	r19, 0x21	; 33
    2404:	fc 01       	movw	r30, r24
    2406:	31 83       	std	Z+1, r19	; 0x01
    2408:	20 83       	st	Z, r18
    240a:	0e 94 eb 10 	call	0x21d6	; 0x21d6 <irqs_enable>
    240e:	0e 94 f5 0e 	call	0x1dea	; 0x1dea <syslock_reset>
    2412:	0e 94 a3 12 	call	0x2546	; 0x2546 <__schedule__>
    2416:	fd cf       	rjmp	.-6      	; 0x2412 <__context_displace_vector__+0x1e>

00002418 <_ZL20get_schedee_by_mnemoPKc>:
    2418:	cf 93       	push	r28
    241a:	df 93       	push	r29
    241c:	00 d0       	rcall	.+0      	; 0x241e <_ZL20get_schedee_by_mnemoPKc+0x6>
    241e:	1f 92       	push	r1
    2420:	cd b7       	in	r28, 0x3d	; 61
    2422:	de b7       	in	r29, 0x3e	; 62
    2424:	9c 83       	std	Y+4, r25	; 0x04
    2426:	8b 83       	std	Y+3, r24	; 0x03
    2428:	80 91 08 02 	lds	r24, 0x0208	; 0x800208 <schedee_list>
    242c:	90 91 09 02 	lds	r25, 0x0209	; 0x800209 <schedee_list+0x1>
    2430:	4c 97       	sbiw	r24, 0x1c	; 28
    2432:	9a 83       	std	Y+2, r25	; 0x02
    2434:	89 83       	std	Y+1, r24	; 0x01
    2436:	89 81       	ldd	r24, Y+1	; 0x01
    2438:	9a 81       	ldd	r25, Y+2	; 0x02
    243a:	4c 96       	adiw	r24, 0x1c	; 28
    243c:	88 50       	subi	r24, 0x08	; 8
    243e:	92 40       	sbci	r25, 0x02	; 2
    2440:	f9 f0       	breq	.+62     	; 0x2480 <_ZL20get_schedee_by_mnemoPKc+0x68>
    2442:	89 81       	ldd	r24, Y+1	; 0x01
    2444:	9a 81       	ldd	r25, Y+2	; 0x02
    2446:	fc 01       	movw	r30, r24
    2448:	82 8d       	ldd	r24, Z+26	; 0x1a
    244a:	93 8d       	ldd	r25, Z+27	; 0x1b
    244c:	89 2b       	or	r24, r25
    244e:	79 f0       	breq	.+30     	; 0x246e <_ZL20get_schedee_by_mnemoPKc+0x56>
    2450:	89 81       	ldd	r24, Y+1	; 0x01
    2452:	9a 81       	ldd	r25, Y+2	; 0x02
    2454:	fc 01       	movw	r30, r24
    2456:	82 8d       	ldd	r24, Z+26	; 0x1a
    2458:	93 8d       	ldd	r25, Z+27	; 0x1b
    245a:	2b 81       	ldd	r18, Y+3	; 0x03
    245c:	3c 81       	ldd	r19, Y+4	; 0x04
    245e:	b9 01       	movw	r22, r18
    2460:	0e 94 65 1b 	call	0x36ca	; 0x36ca <strcmp>
    2464:	89 2b       	or	r24, r25
    2466:	19 f4       	brne	.+6      	; 0x246e <_ZL20get_schedee_by_mnemoPKc+0x56>
    2468:	89 81       	ldd	r24, Y+1	; 0x01
    246a:	9a 81       	ldd	r25, Y+2	; 0x02
    246c:	0b c0       	rjmp	.+22     	; 0x2484 <_ZL20get_schedee_by_mnemoPKc+0x6c>
    246e:	89 81       	ldd	r24, Y+1	; 0x01
    2470:	9a 81       	ldd	r25, Y+2	; 0x02
    2472:	fc 01       	movw	r30, r24
    2474:	84 8d       	ldd	r24, Z+28	; 0x1c
    2476:	95 8d       	ldd	r25, Z+29	; 0x1d
    2478:	4c 97       	sbiw	r24, 0x1c	; 28
    247a:	9a 83       	std	Y+2, r25	; 0x02
    247c:	89 83       	std	Y+1, r24	; 0x01
    247e:	db cf       	rjmp	.-74     	; 0x2436 <_ZL20get_schedee_by_mnemoPKc+0x1e>
    2480:	80 e0       	ldi	r24, 0x00	; 0
    2482:	90 e0       	ldi	r25, 0x00	; 0
    2484:	0f 90       	pop	r0
    2486:	0f 90       	pop	r0
    2488:	0f 90       	pop	r0
    248a:	0f 90       	pop	r0
    248c:	df 91       	pop	r29
    248e:	cf 91       	pop	r28
    2490:	08 95       	ret

00002492 <_ZL7procctriPPc>:
    2492:	cf 93       	push	r28
    2494:	df 93       	push	r29
    2496:	00 d0       	rcall	.+0      	; 0x2498 <_ZL7procctriPPc+0x6>
    2498:	00 d0       	rcall	.+0      	; 0x249a <_ZL7procctriPPc+0x8>
    249a:	cd b7       	in	r28, 0x3d	; 61
    249c:	de b7       	in	r29, 0x3e	; 62
    249e:	9c 83       	std	Y+4, r25	; 0x04
    24a0:	8b 83       	std	Y+3, r24	; 0x03
    24a2:	7e 83       	std	Y+6, r23	; 0x06
    24a4:	6d 83       	std	Y+5, r22	; 0x05
    24a6:	8b 81       	ldd	r24, Y+3	; 0x03
    24a8:	9c 81       	ldd	r25, Y+4	; 0x04
    24aa:	03 97       	sbiw	r24, 0x03	; 3
    24ac:	39 f0       	breq	.+14     	; 0x24bc <_ZL7procctriPPc+0x2a>
    24ae:	8b ea       	ldi	r24, 0xAB	; 171
    24b0:	93 e0       	ldi	r25, 0x03	; 3
    24b2:	0e 94 d6 1b 	call	0x37ac	; 0x37ac <puts>
    24b6:	80 e0       	ldi	r24, 0x00	; 0
    24b8:	90 e0       	ldi	r25, 0x00	; 0
    24ba:	3c c0       	rjmp	.+120    	; 0x2534 <_ZL7procctriPPc+0xa2>
    24bc:	8d 81       	ldd	r24, Y+5	; 0x05
    24be:	9e 81       	ldd	r25, Y+6	; 0x06
    24c0:	04 96       	adiw	r24, 0x04	; 4
    24c2:	fc 01       	movw	r30, r24
    24c4:	80 81       	ld	r24, Z
    24c6:	91 81       	ldd	r25, Z+1	; 0x01
    24c8:	0e 94 0c 12 	call	0x2418	; 0x2418 <_ZL20get_schedee_by_mnemoPKc>
    24cc:	9a 83       	std	Y+2, r25	; 0x02
    24ce:	89 83       	std	Y+1, r24	; 0x01
    24d0:	21 e0       	ldi	r18, 0x01	; 1
    24d2:	89 81       	ldd	r24, Y+1	; 0x01
    24d4:	9a 81       	ldd	r25, Y+2	; 0x02
    24d6:	89 2b       	or	r24, r25
    24d8:	09 f0       	breq	.+2      	; 0x24dc <_ZL7procctriPPc+0x4a>
    24da:	20 e0       	ldi	r18, 0x00	; 0
    24dc:	22 23       	and	r18, r18
    24de:	39 f0       	breq	.+14     	; 0x24ee <_ZL7procctriPPc+0x5c>
    24e0:	8e ec       	ldi	r24, 0xCE	; 206
    24e2:	93 e0       	ldi	r25, 0x03	; 3
    24e4:	0e 94 d6 1b 	call	0x37ac	; 0x37ac <puts>
    24e8:	80 e0       	ldi	r24, 0x00	; 0
    24ea:	90 e0       	ldi	r25, 0x00	; 0
    24ec:	23 c0       	rjmp	.+70     	; 0x2534 <_ZL7procctriPPc+0xa2>
    24ee:	8d 81       	ldd	r24, Y+5	; 0x05
    24f0:	9e 81       	ldd	r25, Y+6	; 0x06
    24f2:	02 96       	adiw	r24, 0x02	; 2
    24f4:	fc 01       	movw	r30, r24
    24f6:	80 81       	ld	r24, Z
    24f8:	91 81       	ldd	r25, Z+1	; 0x01
    24fa:	6f ed       	ldi	r22, 0xDF	; 223
    24fc:	73 e0       	ldi	r23, 0x03	; 3
    24fe:	0e 94 65 1b 	call	0x36ca	; 0x36ca <strcmp>
    2502:	89 2b       	or	r24, r25
    2504:	29 f4       	brne	.+10     	; 0x2510 <_ZL7procctriPPc+0x7e>
    2506:	89 81       	ldd	r24, Y+1	; 0x01
    2508:	9a 81       	ldd	r25, Y+2	; 0x02
    250a:	0e 94 fe 10 	call	0x21fc	; 0x21fc <schedee_run>
    250e:	10 c0       	rjmp	.+32     	; 0x2530 <_ZL7procctriPPc+0x9e>
    2510:	8d 81       	ldd	r24, Y+5	; 0x05
    2512:	9e 81       	ldd	r25, Y+6	; 0x06
    2514:	02 96       	adiw	r24, 0x02	; 2
    2516:	fc 01       	movw	r30, r24
    2518:	80 81       	ld	r24, Z
    251a:	91 81       	ldd	r25, Z+1	; 0x01
    251c:	65 ee       	ldi	r22, 0xE5	; 229
    251e:	73 e0       	ldi	r23, 0x03	; 3
    2520:	0e 94 65 1b 	call	0x36ca	; 0x36ca <strcmp>
    2524:	89 2b       	or	r24, r25
    2526:	21 f4       	brne	.+8      	; 0x2530 <_ZL7procctriPPc+0x9e>
    2528:	89 81       	ldd	r24, Y+1	; 0x01
    252a:	9a 81       	ldd	r25, Y+2	; 0x02
    252c:	0e 94 3b 11 	call	0x2276	; 0x2276 <schedee_stop>
    2530:	80 e0       	ldi	r24, 0x00	; 0
    2532:	90 e0       	ldi	r25, 0x00	; 0
    2534:	26 96       	adiw	r28, 0x06	; 6
    2536:	0f b6       	in	r0, 0x3f	; 63
    2538:	f8 94       	cli
    253a:	de bf       	out	0x3e, r29	; 62
    253c:	0f be       	out	0x3f, r0	; 63
    253e:	cd bf       	out	0x3d, r28	; 61
    2540:	df 91       	pop	r29
    2542:	cf 91       	pop	r28
    2544:	08 95       	ret

00002546 <__schedule__>:
    2546:	cf 93       	push	r28
    2548:	df 93       	push	r29
    254a:	00 d0       	rcall	.+0      	; 0x254c <__schedule__+0x6>
    254c:	00 d0       	rcall	.+0      	; 0x254e <__schedule__+0x8>
    254e:	cd b7       	in	r28, 0x3d	; 61
    2550:	de b7       	in	r29, 0x3e	; 62
    2552:	26 e0       	ldi	r18, 0x06	; 6
    2554:	e9 e1       	ldi	r30, 0x19	; 25
    2556:	f4 e0       	ldi	r31, 0x04	; 4
    2558:	ce 01       	movw	r24, r28
    255a:	01 96       	adiw	r24, 0x01	; 1
    255c:	dc 01       	movw	r26, r24
    255e:	01 90       	ld	r0, Z+
    2560:	0d 92       	st	X+, r0
    2562:	2a 95       	dec	r18
    2564:	e1 f7       	brne	.-8      	; 0x255e <__schedule__+0x18>
    2566:	49 81       	ldd	r20, Y+1	; 0x01
    2568:	5a 81       	ldd	r21, Y+2	; 0x02
    256a:	6b 81       	ldd	r22, Y+3	; 0x03
    256c:	7c 81       	ldd	r23, Y+4	; 0x04
    256e:	8d 81       	ldd	r24, Y+5	; 0x05
    2570:	9e 81       	ldd	r25, Y+6	; 0x06
    2572:	0e 94 1c 10 	call	0x2038	; 0x2038 <debug_print_location>
    2576:	0e 94 6b 0e 	call	0x1cd6	; 0x1cd6 <bug_impl>

0000257a <_Z5dprlnIJEEvDpRKT_>:
    257a:	cf 93       	push	r28
    257c:	df 93       	push	r29
    257e:	cd b7       	in	r28, 0x3d	; 61
    2580:	de b7       	in	r29, 0x3e	; 62
    2582:	0e 94 25 0f 	call	0x1e4a	; 0x1e4a <_ZL3dprv>
    2586:	0e 94 18 0f 	call	0x1e30	; 0x1e30 <debug_print_newline.lto_priv.51>
    258a:	df 91       	pop	r29
    258c:	cf 91       	pop	r28
    258e:	08 95       	ret

00002590 <_Z41__static_initialization_and_destruction_0ii>:
    2590:	0f 93       	push	r16
    2592:	1f 93       	push	r17
    2594:	cf 93       	push	r28
    2596:	df 93       	push	r29
    2598:	00 d0       	rcall	.+0      	; 0x259a <_Z41__static_initialization_and_destruction_0ii+0xa>
    259a:	1f 92       	push	r1
    259c:	cd b7       	in	r28, 0x3d	; 61
    259e:	de b7       	in	r29, 0x3e	; 62
    25a0:	9a 83       	std	Y+2, r25	; 0x02
    25a2:	89 83       	std	Y+1, r24	; 0x01
    25a4:	7c 83       	std	Y+4, r23	; 0x04
    25a6:	6b 83       	std	Y+3, r22	; 0x03
    25a8:	89 81       	ldd	r24, Y+1	; 0x01
    25aa:	9a 81       	ldd	r25, Y+2	; 0x02
    25ac:	01 97       	sbiw	r24, 0x01	; 1
    25ae:	21 f5       	brne	.+72     	; 0x25f8 <_Z41__static_initialization_and_destruction_0ii+0x68>
    25b0:	8b 81       	ldd	r24, Y+3	; 0x03
    25b2:	9c 81       	ldd	r25, Y+4	; 0x04
    25b4:	01 96       	adiw	r24, 0x01	; 1
    25b6:	01 f5       	brne	.+64     	; 0x25f8 <_Z41__static_initialization_and_destruction_0ii+0x68>
    25b8:	04 e6       	ldi	r16, 0x64	; 100
    25ba:	15 e0       	ldi	r17, 0x05	; 5
    25bc:	20 e0       	ldi	r18, 0x00	; 0
    25be:	30 e0       	ldi	r19, 0x00	; 0
    25c0:	4b e8       	ldi	r20, 0x8B	; 139
    25c2:	51 e1       	ldi	r21, 0x11	; 17
    25c4:	62 e2       	ldi	r22, 0x22	; 34
    25c6:	74 e0       	ldi	r23, 0x04	; 4
    25c8:	c8 01       	movw	r24, r16
    25ca:	0e 94 83 10 	call	0x2106	; 0x2106 <_ZN5igris15console_commandC1EPKcPFvvES2_>
    25ce:	09 5f       	subi	r16, 0xF9	; 249
    25d0:	1f 4f       	sbci	r17, 0xFF	; 255
    25d2:	20 e0       	ldi	r18, 0x00	; 0
    25d4:	30 e0       	ldi	r19, 0x00	; 0
    25d6:	49 e4       	ldi	r20, 0x49	; 73
    25d8:	52 e1       	ldi	r21, 0x12	; 18
    25da:	65 e2       	ldi	r22, 0x25	; 37
    25dc:	74 e0       	ldi	r23, 0x04	; 4
    25de:	c8 01       	movw	r24, r16
    25e0:	0e 94 4f 10 	call	0x209e	; 0x209e <_ZN5igris15console_commandC1EPKcPFiiPPcES2_>
    25e4:	c8 01       	movw	r24, r16
    25e6:	07 96       	adiw	r24, 0x07	; 7
    25e8:	20 e0       	ldi	r18, 0x00	; 0
    25ea:	30 e0       	ldi	r19, 0x00	; 0
    25ec:	40 e0       	ldi	r20, 0x00	; 0
    25ee:	50 e0       	ldi	r21, 0x00	; 0
    25f0:	60 e0       	ldi	r22, 0x00	; 0
    25f2:	70 e0       	ldi	r23, 0x00	; 0
    25f4:	0e 94 b7 10 	call	0x216e	; 0x216e <_ZN5igris15console_commandC1EPKcPvS2_>
    25f8:	0f 90       	pop	r0
    25fa:	0f 90       	pop	r0
    25fc:	0f 90       	pop	r0
    25fe:	0f 90       	pop	r0
    2600:	df 91       	pop	r29
    2602:	cf 91       	pop	r28
    2604:	1f 91       	pop	r17
    2606:	0f 91       	pop	r16
    2608:	08 95       	ret

0000260a <_GLOBAL__sub_I_runlist>:
    260a:	cf 93       	push	r28
    260c:	df 93       	push	r29
    260e:	cd b7       	in	r28, 0x3d	; 61
    2610:	de b7       	in	r29, 0x3e	; 62
    2612:	6f ef       	ldi	r22, 0xFF	; 255
    2614:	7f ef       	ldi	r23, 0xFF	; 255
    2616:	81 e0       	ldi	r24, 0x01	; 1
    2618:	90 e0       	ldi	r25, 0x00	; 0
    261a:	0e 94 c8 12 	call	0x2590	; 0x2590 <_Z41__static_initialization_and_destruction_0ii>
    261e:	df 91       	pop	r29
    2620:	cf 91       	pop	r28
    2622:	08 95       	ret

00002624 <debug_print_newline.lto_priv.52>:
    2624:	cf 93       	push	r28
    2626:	df 93       	push	r29
    2628:	cd b7       	in	r28, 0x3d	; 61
    262a:	de b7       	in	r29, 0x3e	; 62
    262c:	8d e0       	ldi	r24, 0x0D	; 13
    262e:	0e 94 71 0e 	call	0x1ce2	; 0x1ce2 <debug_putchar>
    2632:	8a e0       	ldi	r24, 0x0A	; 10
    2634:	0e 94 71 0e 	call	0x1ce2	; 0x1ce2 <debug_putchar>
    2638:	df 91       	pop	r29
    263a:	cf 91       	pop	r28
    263c:	08 95       	ret

0000263e <_ZL3dprPKc.lto_priv.59>:
    263e:	cf 93       	push	r28
    2640:	df 93       	push	r29
    2642:	1f 92       	push	r1
    2644:	1f 92       	push	r1
    2646:	cd b7       	in	r28, 0x3d	; 61
    2648:	de b7       	in	r29, 0x3e	; 62
    264a:	9a 83       	std	Y+2, r25	; 0x02
    264c:	89 83       	std	Y+1, r24	; 0x01
    264e:	89 81       	ldd	r24, Y+1	; 0x01
    2650:	9a 81       	ldd	r25, Y+2	; 0x02
    2652:	0e 94 ae 03 	call	0x75c	; 0x75c <debug_print>
    2656:	0f 90       	pop	r0
    2658:	0f 90       	pop	r0
    265a:	df 91       	pop	r29
    265c:	cf 91       	pop	r28
    265e:	08 95       	ret

00002660 <_ZL3dpri.lto_priv.55>:
    2660:	cf 93       	push	r28
    2662:	df 93       	push	r29
    2664:	1f 92       	push	r1
    2666:	1f 92       	push	r1
    2668:	cd b7       	in	r28, 0x3d	; 61
    266a:	de b7       	in	r29, 0x3e	; 62
    266c:	9a 83       	std	Y+2, r25	; 0x02
    266e:	89 83       	std	Y+1, r24	; 0x01
    2670:	89 81       	ldd	r24, Y+1	; 0x01
    2672:	9a 81       	ldd	r25, Y+2	; 0x02
    2674:	0e 94 d6 03 	call	0x7ac	; 0x7ac <debug_printdec_signed_int>
    2678:	0f 90       	pop	r0
    267a:	0f 90       	pop	r0
    267c:	df 91       	pop	r29
    267e:	cf 91       	pop	r28
    2680:	08 95       	ret

00002682 <_ZN5genos7schedee5startEv>:
    2682:	cf 93       	push	r28
    2684:	df 93       	push	r29
    2686:	1f 92       	push	r1
    2688:	1f 92       	push	r1
    268a:	cd b7       	in	r28, 0x3d	; 61
    268c:	de b7       	in	r29, 0x3e	; 62
    268e:	9a 83       	std	Y+2, r25	; 0x02
    2690:	89 83       	std	Y+1, r24	; 0x01
    2692:	89 81       	ldd	r24, Y+1	; 0x01
    2694:	9a 81       	ldd	r25, Y+2	; 0x02
    2696:	0e 94 fe 10 	call	0x21fc	; 0x21fc <schedee_run>
    269a:	0f 90       	pop	r0
    269c:	0f 90       	pop	r0
    269e:	df 91       	pop	r29
    26a0:	cf 91       	pop	r28
    26a2:	08 95       	ret

000026a4 <_ZN5genos7schedee14signal_handlerEi>:
    26a4:	cf 93       	push	r28
    26a6:	df 93       	push	r29
    26a8:	00 d0       	rcall	.+0      	; 0x26aa <_ZN5genos7schedee14signal_handlerEi+0x6>
    26aa:	1f 92       	push	r1
    26ac:	cd b7       	in	r28, 0x3d	; 61
    26ae:	de b7       	in	r29, 0x3e	; 62
    26b0:	9a 83       	std	Y+2, r25	; 0x02
    26b2:	89 83       	std	Y+1, r24	; 0x01
    26b4:	7c 83       	std	Y+4, r23	; 0x04
    26b6:	6b 83       	std	Y+3, r22	; 0x03
    26b8:	8b 81       	ldd	r24, Y+3	; 0x03
    26ba:	9c 81       	ldd	r25, Y+4	; 0x04
    26bc:	41 97       	sbiw	r24, 0x11	; 17
    26be:	59 f4       	brne	.+22     	; 0x26d6 <_ZN5genos7schedee14signal_handlerEi+0x32>
    26c0:	89 81       	ldd	r24, Y+1	; 0x01
    26c2:	9a 81       	ldd	r25, Y+2	; 0x02
    26c4:	fc 01       	movw	r30, r24
    26c6:	84 89       	ldd	r24, Z+20	; 0x14
    26c8:	86 30       	cpi	r24, 0x06	; 6
    26ca:	d9 f4       	brne	.+54     	; 0x2702 <_ZN5genos7schedee14signal_handlerEi+0x5e>
    26cc:	89 81       	ldd	r24, Y+1	; 0x01
    26ce:	9a 81       	ldd	r25, Y+2	; 0x02
    26d0:	0e 94 41 13 	call	0x2682	; 0x2682 <_ZN5genos7schedee5startEv>
    26d4:	17 c0       	rjmp	.+46     	; 0x2704 <_ZN5genos7schedee14signal_handlerEi+0x60>
    26d6:	8b 81       	ldd	r24, Y+3	; 0x03
    26d8:	9c 81       	ldd	r25, Y+4	; 0x04
    26da:	02 97       	sbiw	r24, 0x02	; 2
    26dc:	29 f4       	brne	.+10     	; 0x26e8 <_ZN5genos7schedee14signal_handlerEi+0x44>
    26de:	89 81       	ldd	r24, Y+1	; 0x01
    26e0:	9a 81       	ldd	r25, Y+2	; 0x02
    26e2:	0e 94 1e 11 	call	0x223c	; 0x223c <__schedee_final>
    26e6:	0e c0       	rjmp	.+28     	; 0x2704 <_ZN5genos7schedee14signal_handlerEi+0x60>
    26e8:	89 81       	ldd	r24, Y+1	; 0x01
    26ea:	9a 81       	ldd	r25, Y+2	; 0x02
    26ec:	4a 96       	adiw	r24, 0x1a	; 26
    26ee:	9e 01       	movw	r18, r28
    26f0:	2d 5f       	subi	r18, 0xFD	; 253
    26f2:	3f 4f       	sbci	r19, 0xFF	; 255
    26f4:	a9 01       	movw	r20, r18
    26f6:	bc 01       	movw	r22, r24
    26f8:	8b e5       	ldi	r24, 0x5B	; 91
    26fa:	94 e0       	ldi	r25, 0x04	; 4
    26fc:	0e 94 89 13 	call	0x2712	; 0x2712 <_Z5dprlnIJA8_cPKciEEvDpRKT_>
    2700:	01 c0       	rjmp	.+2      	; 0x2704 <_ZN5genos7schedee14signal_handlerEi+0x60>
    2702:	00 00       	nop
    2704:	0f 90       	pop	r0
    2706:	0f 90       	pop	r0
    2708:	0f 90       	pop	r0
    270a:	0f 90       	pop	r0
    270c:	df 91       	pop	r29
    270e:	cf 91       	pop	r28
    2710:	08 95       	ret

00002712 <_Z5dprlnIJA8_cPKciEEvDpRKT_>:
    2712:	cf 93       	push	r28
    2714:	df 93       	push	r29
    2716:	00 d0       	rcall	.+0      	; 0x2718 <_Z5dprlnIJA8_cPKciEEvDpRKT_+0x6>
    2718:	00 d0       	rcall	.+0      	; 0x271a <_Z5dprlnIJA8_cPKciEEvDpRKT_+0x8>
    271a:	cd b7       	in	r28, 0x3d	; 61
    271c:	de b7       	in	r29, 0x3e	; 62
    271e:	9a 83       	std	Y+2, r25	; 0x02
    2720:	89 83       	std	Y+1, r24	; 0x01
    2722:	7c 83       	std	Y+4, r23	; 0x04
    2724:	6b 83       	std	Y+3, r22	; 0x03
    2726:	5e 83       	std	Y+6, r21	; 0x06
    2728:	4d 83       	std	Y+5, r20	; 0x05
    272a:	4d 81       	ldd	r20, Y+5	; 0x05
    272c:	5e 81       	ldd	r21, Y+6	; 0x06
    272e:	2b 81       	ldd	r18, Y+3	; 0x03
    2730:	3c 81       	ldd	r19, Y+4	; 0x04
    2732:	89 81       	ldd	r24, Y+1	; 0x01
    2734:	9a 81       	ldd	r25, Y+2	; 0x02
    2736:	b9 01       	movw	r22, r18
    2738:	0e 94 a9 13 	call	0x2752	; 0x2752 <_Z3dprIA8_cJPKciEEvRKT_DpRKT0_>
    273c:	0e 94 12 13 	call	0x2624	; 0x2624 <debug_print_newline.lto_priv.52>
    2740:	26 96       	adiw	r28, 0x06	; 6
    2742:	0f b6       	in	r0, 0x3f	; 63
    2744:	f8 94       	cli
    2746:	de bf       	out	0x3e, r29	; 62
    2748:	0f be       	out	0x3f, r0	; 63
    274a:	cd bf       	out	0x3d, r28	; 61
    274c:	df 91       	pop	r29
    274e:	cf 91       	pop	r28
    2750:	08 95       	ret

00002752 <_Z3dprIA8_cJPKciEEvRKT_DpRKT0_>:
    2752:	cf 93       	push	r28
    2754:	df 93       	push	r29
    2756:	00 d0       	rcall	.+0      	; 0x2758 <_Z3dprIA8_cJPKciEEvRKT_DpRKT0_+0x6>
    2758:	00 d0       	rcall	.+0      	; 0x275a <_Z3dprIA8_cJPKciEEvRKT_DpRKT0_+0x8>
    275a:	cd b7       	in	r28, 0x3d	; 61
    275c:	de b7       	in	r29, 0x3e	; 62
    275e:	9a 83       	std	Y+2, r25	; 0x02
    2760:	89 83       	std	Y+1, r24	; 0x01
    2762:	7c 83       	std	Y+4, r23	; 0x04
    2764:	6b 83       	std	Y+3, r22	; 0x03
    2766:	5e 83       	std	Y+6, r21	; 0x06
    2768:	4d 83       	std	Y+5, r20	; 0x05
    276a:	89 81       	ldd	r24, Y+1	; 0x01
    276c:	9a 81       	ldd	r25, Y+2	; 0x02
    276e:	0e 94 1f 13 	call	0x263e	; 0x263e <_ZL3dprPKc.lto_priv.59>
    2772:	80 e2       	ldi	r24, 0x20	; 32
    2774:	0e 94 71 0e 	call	0x1ce2	; 0x1ce2 <debug_putchar>
    2778:	2d 81       	ldd	r18, Y+5	; 0x05
    277a:	3e 81       	ldd	r19, Y+6	; 0x06
    277c:	8b 81       	ldd	r24, Y+3	; 0x03
    277e:	9c 81       	ldd	r25, Y+4	; 0x04
    2780:	b9 01       	movw	r22, r18
    2782:	0e 94 cc 13 	call	0x2798	; 0x2798 <_Z3dprIPKcJiEEvRKT_DpRKT0_>
    2786:	26 96       	adiw	r28, 0x06	; 6
    2788:	0f b6       	in	r0, 0x3f	; 63
    278a:	f8 94       	cli
    278c:	de bf       	out	0x3e, r29	; 62
    278e:	0f be       	out	0x3f, r0	; 63
    2790:	cd bf       	out	0x3d, r28	; 61
    2792:	df 91       	pop	r29
    2794:	cf 91       	pop	r28
    2796:	08 95       	ret

00002798 <_Z3dprIPKcJiEEvRKT_DpRKT0_>:
    2798:	cf 93       	push	r28
    279a:	df 93       	push	r29
    279c:	00 d0       	rcall	.+0      	; 0x279e <_Z3dprIPKcJiEEvRKT_DpRKT0_+0x6>
    279e:	1f 92       	push	r1
    27a0:	cd b7       	in	r28, 0x3d	; 61
    27a2:	de b7       	in	r29, 0x3e	; 62
    27a4:	9a 83       	std	Y+2, r25	; 0x02
    27a6:	89 83       	std	Y+1, r24	; 0x01
    27a8:	7c 83       	std	Y+4, r23	; 0x04
    27aa:	6b 83       	std	Y+3, r22	; 0x03
    27ac:	89 81       	ldd	r24, Y+1	; 0x01
    27ae:	9a 81       	ldd	r25, Y+2	; 0x02
    27b0:	fc 01       	movw	r30, r24
    27b2:	80 81       	ld	r24, Z
    27b4:	91 81       	ldd	r25, Z+1	; 0x01
    27b6:	0e 94 1f 13 	call	0x263e	; 0x263e <_ZL3dprPKc.lto_priv.59>
    27ba:	80 e2       	ldi	r24, 0x20	; 32
    27bc:	0e 94 71 0e 	call	0x1ce2	; 0x1ce2 <debug_putchar>
    27c0:	8b 81       	ldd	r24, Y+3	; 0x03
    27c2:	9c 81       	ldd	r25, Y+4	; 0x04
    27c4:	fc 01       	movw	r30, r24
    27c6:	80 81       	ld	r24, Z
    27c8:	91 81       	ldd	r25, Z+1	; 0x01
    27ca:	0e 94 30 13 	call	0x2660	; 0x2660 <_ZL3dpri.lto_priv.55>
    27ce:	0f 90       	pop	r0
    27d0:	0f 90       	pop	r0
    27d2:	0f 90       	pop	r0
    27d4:	0f 90       	pop	r0
    27d6:	df 91       	pop	r29
    27d8:	cf 91       	pop	r28
    27da:	08 95       	ret

000027dc <_ZN16avr_usart_device6enableEi>:
    27dc:	cf 93       	push	r28
    27de:	df 93       	push	r29
    27e0:	00 d0       	rcall	.+0      	; 0x27e2 <_ZN16avr_usart_device6enableEi+0x6>
    27e2:	1f 92       	push	r1
    27e4:	cd b7       	in	r28, 0x3d	; 61
    27e6:	de b7       	in	r29, 0x3e	; 62
    27e8:	9a 83       	std	Y+2, r25	; 0x02
    27ea:	89 83       	std	Y+1, r24	; 0x01
    27ec:	7c 83       	std	Y+4, r23	; 0x04
    27ee:	6b 83       	std	Y+3, r22	; 0x03
    27f0:	89 81       	ldd	r24, Y+1	; 0x01
    27f2:	9a 81       	ldd	r25, Y+2	; 0x02
    27f4:	fc 01       	movw	r30, r24
    27f6:	86 81       	ldd	r24, Z+6	; 0x06
    27f8:	97 81       	ldd	r25, Z+7	; 0x07
    27fa:	2b 81       	ldd	r18, Y+3	; 0x03
    27fc:	3c 81       	ldd	r19, Y+4	; 0x04
    27fe:	b9 01       	movw	r22, r18
    2800:	0e 94 e5 19 	call	0x33ca	; 0x33ca <_ZL20usart_regs_enable_rxP10usart_regsi.lto_priv.84>
    2804:	89 81       	ldd	r24, Y+1	; 0x01
    2806:	9a 81       	ldd	r25, Y+2	; 0x02
    2808:	fc 01       	movw	r30, r24
    280a:	86 81       	ldd	r24, Z+6	; 0x06
    280c:	97 81       	ldd	r25, Z+7	; 0x07
    280e:	2b 81       	ldd	r18, Y+3	; 0x03
    2810:	3c 81       	ldd	r19, Y+4	; 0x04
    2812:	b9 01       	movw	r22, r18
    2814:	0e 94 0b 1a 	call	0x3416	; 0x3416 <_ZL20usart_regs_enable_txP10usart_regsi.lto_priv.85>
    2818:	89 81       	ldd	r24, Y+1	; 0x01
    281a:	9a 81       	ldd	r25, Y+2	; 0x02
    281c:	fc 01       	movw	r30, r24
    281e:	86 81       	ldd	r24, Z+6	; 0x06
    2820:	97 81       	ldd	r25, Z+7	; 0x07
    2822:	60 e0       	ldi	r22, 0x00	; 0
    2824:	70 e0       	ldi	r23, 0x00	; 0
    2826:	0e 94 7d 1a 	call	0x34fa	; 0x34fa <_ZL16usart_regs_tcirqP10usart_regsi.lto_priv.90>
    282a:	89 81       	ldd	r24, Y+1	; 0x01
    282c:	9a 81       	ldd	r25, Y+2	; 0x02
    282e:	fc 01       	movw	r30, r24
    2830:	86 81       	ldd	r24, Z+6	; 0x06
    2832:	97 81       	ldd	r25, Z+7	; 0x07
    2834:	60 e0       	ldi	r22, 0x00	; 0
    2836:	70 e0       	ldi	r23, 0x00	; 0
    2838:	0e 94 57 1a 	call	0x34ae	; 0x34ae <_ZL16usart_regs_txirqP10usart_regsi.lto_priv.91>
    283c:	89 81       	ldd	r24, Y+1	; 0x01
    283e:	9a 81       	ldd	r25, Y+2	; 0x02
    2840:	fc 01       	movw	r30, r24
    2842:	86 81       	ldd	r24, Z+6	; 0x06
    2844:	97 81       	ldd	r25, Z+7	; 0x07
    2846:	2b 81       	ldd	r18, Y+3	; 0x03
    2848:	3c 81       	ldd	r19, Y+4	; 0x04
    284a:	b9 01       	movw	r22, r18
    284c:	0e 94 31 1a 	call	0x3462	; 0x3462 <_ZL16usart_regs_rxirqP10usart_regsi.lto_priv.82>
    2850:	20 e1       	ldi	r18, 0x10	; 16
    2852:	37 e2       	ldi	r19, 0x27	; 39
    2854:	40 e0       	ldi	r20, 0x00	; 0
    2856:	50 e0       	ldi	r21, 0x00	; 0
    2858:	60 e0       	ldi	r22, 0x00	; 0
    285a:	70 e0       	ldi	r23, 0x00	; 0
    285c:	80 e0       	ldi	r24, 0x00	; 0
    285e:	90 e0       	ldi	r25, 0x00	; 0
    2860:	0e 94 f7 1a 	call	0x35ee	; 0x35ee <cpu_delay.lto_priv.92>
    2864:	80 e0       	ldi	r24, 0x00	; 0
    2866:	90 e0       	ldi	r25, 0x00	; 0
    2868:	0f 90       	pop	r0
    286a:	0f 90       	pop	r0
    286c:	0f 90       	pop	r0
    286e:	0f 90       	pop	r0
    2870:	df 91       	pop	r29
    2872:	cf 91       	pop	r28
    2874:	08 95       	ret

00002876 <_ZN16avr_usart_device7ctrirqsEh>:
    2876:	cf 93       	push	r28
    2878:	df 93       	push	r29
    287a:	00 d0       	rcall	.+0      	; 0x287c <_ZN16avr_usart_device7ctrirqsEh+0x6>
    287c:	cd b7       	in	r28, 0x3d	; 61
    287e:	de b7       	in	r29, 0x3e	; 62
    2880:	9a 83       	std	Y+2, r25	; 0x02
    2882:	89 83       	std	Y+1, r24	; 0x01
    2884:	6b 83       	std	Y+3, r22	; 0x03
    2886:	8b 81       	ldd	r24, Y+3	; 0x03
    2888:	88 2f       	mov	r24, r24
    288a:	90 e0       	ldi	r25, 0x00	; 0
    288c:	82 30       	cpi	r24, 0x02	; 2
    288e:	91 05       	cpc	r25, r1
    2890:	89 f0       	breq	.+34     	; 0x28b4 <_ZN16avr_usart_device7ctrirqsEh+0x3e>
    2892:	83 30       	cpi	r24, 0x03	; 3
    2894:	91 05       	cpc	r25, r1
    2896:	2c f4       	brge	.+10     	; 0x28a2 <_ZN16avr_usart_device7ctrirqsEh+0x2c>
    2898:	00 97       	sbiw	r24, 0x00	; 0
    289a:	21 f1       	breq	.+72     	; 0x28e4 <_ZN16avr_usart_device7ctrirqsEh+0x6e>
    289c:	01 97       	sbiw	r24, 0x01	; 1
    289e:	71 f1       	breq	.+92     	; 0x28fc <_ZN16avr_usart_device7ctrirqsEh+0x86>
    28a0:	51 c0       	rjmp	.+162    	; 0x2944 <_ZN16avr_usart_device7ctrirqsEh+0xce>
    28a2:	84 30       	cpi	r24, 0x04	; 4
    28a4:	91 05       	cpc	r25, r1
    28a6:	b1 f1       	breq	.+108    	; 0x2914 <_ZN16avr_usart_device7ctrirqsEh+0x9e>
    28a8:	84 30       	cpi	r24, 0x04	; 4
    28aa:	91 05       	cpc	r25, r1
    28ac:	7c f0       	brlt	.+30     	; 0x28cc <_ZN16avr_usart_device7ctrirqsEh+0x56>
    28ae:	05 97       	sbiw	r24, 0x05	; 5
    28b0:	e9 f1       	breq	.+122    	; 0x292c <_ZN16avr_usart_device7ctrirqsEh+0xb6>
    28b2:	48 c0       	rjmp	.+144    	; 0x2944 <_ZN16avr_usart_device7ctrirqsEh+0xce>
    28b4:	89 81       	ldd	r24, Y+1	; 0x01
    28b6:	9a 81       	ldd	r25, Y+2	; 0x02
    28b8:	fc 01       	movw	r30, r24
    28ba:	86 81       	ldd	r24, Z+6	; 0x06
    28bc:	97 81       	ldd	r25, Z+7	; 0x07
    28be:	61 e0       	ldi	r22, 0x01	; 1
    28c0:	70 e0       	ldi	r23, 0x00	; 0
    28c2:	0e 94 57 1a 	call	0x34ae	; 0x34ae <_ZL16usart_regs_txirqP10usart_regsi.lto_priv.91>
    28c6:	80 e0       	ldi	r24, 0x00	; 0
    28c8:	90 e0       	ldi	r25, 0x00	; 0
    28ca:	3e c0       	rjmp	.+124    	; 0x2948 <_ZN16avr_usart_device7ctrirqsEh+0xd2>
    28cc:	89 81       	ldd	r24, Y+1	; 0x01
    28ce:	9a 81       	ldd	r25, Y+2	; 0x02
    28d0:	fc 01       	movw	r30, r24
    28d2:	86 81       	ldd	r24, Z+6	; 0x06
    28d4:	97 81       	ldd	r25, Z+7	; 0x07
    28d6:	60 e0       	ldi	r22, 0x00	; 0
    28d8:	70 e0       	ldi	r23, 0x00	; 0
    28da:	0e 94 57 1a 	call	0x34ae	; 0x34ae <_ZL16usart_regs_txirqP10usart_regsi.lto_priv.91>
    28de:	80 e0       	ldi	r24, 0x00	; 0
    28e0:	90 e0       	ldi	r25, 0x00	; 0
    28e2:	32 c0       	rjmp	.+100    	; 0x2948 <_ZN16avr_usart_device7ctrirqsEh+0xd2>
    28e4:	89 81       	ldd	r24, Y+1	; 0x01
    28e6:	9a 81       	ldd	r25, Y+2	; 0x02
    28e8:	fc 01       	movw	r30, r24
    28ea:	86 81       	ldd	r24, Z+6	; 0x06
    28ec:	97 81       	ldd	r25, Z+7	; 0x07
    28ee:	61 e0       	ldi	r22, 0x01	; 1
    28f0:	70 e0       	ldi	r23, 0x00	; 0
    28f2:	0e 94 31 1a 	call	0x3462	; 0x3462 <_ZL16usart_regs_rxirqP10usart_regsi.lto_priv.82>
    28f6:	80 e0       	ldi	r24, 0x00	; 0
    28f8:	90 e0       	ldi	r25, 0x00	; 0
    28fa:	26 c0       	rjmp	.+76     	; 0x2948 <_ZN16avr_usart_device7ctrirqsEh+0xd2>
    28fc:	89 81       	ldd	r24, Y+1	; 0x01
    28fe:	9a 81       	ldd	r25, Y+2	; 0x02
    2900:	fc 01       	movw	r30, r24
    2902:	86 81       	ldd	r24, Z+6	; 0x06
    2904:	97 81       	ldd	r25, Z+7	; 0x07
    2906:	60 e0       	ldi	r22, 0x00	; 0
    2908:	70 e0       	ldi	r23, 0x00	; 0
    290a:	0e 94 31 1a 	call	0x3462	; 0x3462 <_ZL16usart_regs_rxirqP10usart_regsi.lto_priv.82>
    290e:	80 e0       	ldi	r24, 0x00	; 0
    2910:	90 e0       	ldi	r25, 0x00	; 0
    2912:	1a c0       	rjmp	.+52     	; 0x2948 <_ZN16avr_usart_device7ctrirqsEh+0xd2>
    2914:	89 81       	ldd	r24, Y+1	; 0x01
    2916:	9a 81       	ldd	r25, Y+2	; 0x02
    2918:	fc 01       	movw	r30, r24
    291a:	86 81       	ldd	r24, Z+6	; 0x06
    291c:	97 81       	ldd	r25, Z+7	; 0x07
    291e:	61 e0       	ldi	r22, 0x01	; 1
    2920:	70 e0       	ldi	r23, 0x00	; 0
    2922:	0e 94 7d 1a 	call	0x34fa	; 0x34fa <_ZL16usart_regs_tcirqP10usart_regsi.lto_priv.90>
    2926:	80 e0       	ldi	r24, 0x00	; 0
    2928:	90 e0       	ldi	r25, 0x00	; 0
    292a:	0e c0       	rjmp	.+28     	; 0x2948 <_ZN16avr_usart_device7ctrirqsEh+0xd2>
    292c:	89 81       	ldd	r24, Y+1	; 0x01
    292e:	9a 81       	ldd	r25, Y+2	; 0x02
    2930:	fc 01       	movw	r30, r24
    2932:	86 81       	ldd	r24, Z+6	; 0x06
    2934:	97 81       	ldd	r25, Z+7	; 0x07
    2936:	60 e0       	ldi	r22, 0x00	; 0
    2938:	70 e0       	ldi	r23, 0x00	; 0
    293a:	0e 94 7d 1a 	call	0x34fa	; 0x34fa <_ZL16usart_regs_tcirqP10usart_regsi.lto_priv.90>
    293e:	80 e0       	ldi	r24, 0x00	; 0
    2940:	90 e0       	ldi	r25, 0x00	; 0
    2942:	02 c0       	rjmp	.+4      	; 0x2948 <_ZN16avr_usart_device7ctrirqsEh+0xd2>
    2944:	8f ef       	ldi	r24, 0xFF	; 255
    2946:	9f ef       	ldi	r25, 0xFF	; 255
    2948:	0f 90       	pop	r0
    294a:	0f 90       	pop	r0
    294c:	0f 90       	pop	r0
    294e:	df 91       	pop	r29
    2950:	cf 91       	pop	r28
    2952:	08 95       	ret

00002954 <_ZN16avr_usart_device8recvbyteEv>:
    2954:	cf 93       	push	r28
    2956:	df 93       	push	r29
    2958:	1f 92       	push	r1
    295a:	1f 92       	push	r1
    295c:	cd b7       	in	r28, 0x3d	; 61
    295e:	de b7       	in	r29, 0x3e	; 62
    2960:	9a 83       	std	Y+2, r25	; 0x02
    2962:	89 83       	std	Y+1, r24	; 0x01
    2964:	89 81       	ldd	r24, Y+1	; 0x01
    2966:	9a 81       	ldd	r25, Y+2	; 0x02
    2968:	fc 01       	movw	r30, r24
    296a:	86 81       	ldd	r24, Z+6	; 0x06
    296c:	97 81       	ldd	r25, Z+7	; 0x07
    296e:	0e 94 a8 19 	call	0x3350	; 0x3350 <_ZL19usart_regs_recvbyteP10usart_regs.lto_priv.89>
    2972:	0f 90       	pop	r0
    2974:	0f 90       	pop	r0
    2976:	df 91       	pop	r29
    2978:	cf 91       	pop	r28
    297a:	08 95       	ret

0000297c <_ZN16avr_usart_device8sendbyteEi>:
    297c:	cf 93       	push	r28
    297e:	df 93       	push	r29
    2980:	00 d0       	rcall	.+0      	; 0x2982 <_ZN16avr_usart_device8sendbyteEi+0x6>
    2982:	1f 92       	push	r1
    2984:	cd b7       	in	r28, 0x3d	; 61
    2986:	de b7       	in	r29, 0x3e	; 62
    2988:	9a 83       	std	Y+2, r25	; 0x02
    298a:	89 83       	std	Y+1, r24	; 0x01
    298c:	7c 83       	std	Y+4, r23	; 0x04
    298e:	6b 83       	std	Y+3, r22	; 0x03
    2990:	2b 81       	ldd	r18, Y+3	; 0x03
    2992:	89 81       	ldd	r24, Y+1	; 0x01
    2994:	9a 81       	ldd	r25, Y+2	; 0x02
    2996:	fc 01       	movw	r30, r24
    2998:	86 81       	ldd	r24, Z+6	; 0x06
    299a:	97 81       	ldd	r25, Z+7	; 0x07
    299c:	62 2f       	mov	r22, r18
    299e:	0e 94 93 19 	call	0x3326	; 0x3326 <_ZL19usart_regs_sendbyteP10usart_regsc.lto_priv.88>
    29a2:	0f 90       	pop	r0
    29a4:	0f 90       	pop	r0
    29a6:	0f 90       	pop	r0
    29a8:	0f 90       	pop	r0
    29aa:	df 91       	pop	r29
    29ac:	cf 91       	pop	r28
    29ae:	08 95       	ret

000029b0 <_ZN16avr_usart_device5cantxEv>:
    29b0:	cf 93       	push	r28
    29b2:	df 93       	push	r29
    29b4:	1f 92       	push	r1
    29b6:	1f 92       	push	r1
    29b8:	cd b7       	in	r28, 0x3d	; 61
    29ba:	de b7       	in	r29, 0x3e	; 62
    29bc:	9a 83       	std	Y+2, r25	; 0x02
    29be:	89 83       	std	Y+1, r24	; 0x01
    29c0:	89 81       	ldd	r24, Y+1	; 0x01
    29c2:	9a 81       	ldd	r25, Y+2	; 0x02
    29c4:	fc 01       	movw	r30, r24
    29c6:	86 81       	ldd	r24, Z+6	; 0x06
    29c8:	97 81       	ldd	r25, Z+7	; 0x07
    29ca:	0e 94 bb 19 	call	0x3376	; 0x3376 <_ZL18usart_regs_cansendP10usart_regs.lto_priv.87>
    29ce:	0f 90       	pop	r0
    29d0:	0f 90       	pop	r0
    29d2:	df 91       	pop	r29
    29d4:	cf 91       	pop	r28
    29d6:	08 95       	ret

000029d8 <_ZN16avr_usart_device5hasrxEv>:
    29d8:	cf 93       	push	r28
    29da:	df 93       	push	r29
    29dc:	1f 92       	push	r1
    29de:	1f 92       	push	r1
    29e0:	cd b7       	in	r28, 0x3d	; 61
    29e2:	de b7       	in	r29, 0x3e	; 62
    29e4:	9a 83       	std	Y+2, r25	; 0x02
    29e6:	89 83       	std	Y+1, r24	; 0x01
    29e8:	89 81       	ldd	r24, Y+1	; 0x01
    29ea:	9a 81       	ldd	r25, Y+2	; 0x02
    29ec:	fc 01       	movw	r30, r24
    29ee:	86 81       	ldd	r24, Z+6	; 0x06
    29f0:	97 81       	ldd	r25, Z+7	; 0x07
    29f2:	0e 94 d0 19 	call	0x33a0	; 0x33a0 <_ZL18usart_regs_canrecvP10usart_regs.lto_priv.86>
    29f6:	0f 90       	pop	r0
    29f8:	0f 90       	pop	r0
    29fa:	df 91       	pop	r29
    29fc:	cf 91       	pop	r28
    29fe:	08 95       	ret

00002a00 <_ZL11_rx_handlerPv>:
    2a00:	cf 93       	push	r28
    2a02:	df 93       	push	r29
    2a04:	00 d0       	rcall	.+0      	; 0x2a06 <_ZL11_rx_handlerPv+0x6>
    2a06:	1f 92       	push	r1
    2a08:	cd b7       	in	r28, 0x3d	; 61
    2a0a:	de b7       	in	r29, 0x3e	; 62
    2a0c:	9c 83       	std	Y+4, r25	; 0x04
    2a0e:	8b 83       	std	Y+3, r24	; 0x03
    2a10:	8b 81       	ldd	r24, Y+3	; 0x03
    2a12:	9c 81       	ldd	r25, Y+4	; 0x04
    2a14:	9a 83       	std	Y+2, r25	; 0x02
    2a16:	89 83       	std	Y+1, r24	; 0x01
    2a18:	89 81       	ldd	r24, Y+1	; 0x01
    2a1a:	9a 81       	ldd	r25, Y+2	; 0x02
    2a1c:	fc 01       	movw	r30, r24
    2a1e:	82 81       	ldd	r24, Z+2	; 0x02
    2a20:	93 81       	ldd	r25, Z+3	; 0x03
    2a22:	89 2b       	or	r24, r25
    2a24:	71 f0       	breq	.+28     	; 0x2a42 <_ZL11_rx_handlerPv+0x42>
    2a26:	89 81       	ldd	r24, Y+1	; 0x01
    2a28:	9a 81       	ldd	r25, Y+2	; 0x02
    2a2a:	fc 01       	movw	r30, r24
    2a2c:	22 81       	ldd	r18, Z+2	; 0x02
    2a2e:	33 81       	ldd	r19, Z+3	; 0x03
    2a30:	89 81       	ldd	r24, Y+1	; 0x01
    2a32:	9a 81       	ldd	r25, Y+2	; 0x02
    2a34:	fc 01       	movw	r30, r24
    2a36:	84 81       	ldd	r24, Z+4	; 0x04
    2a38:	95 81       	ldd	r25, Z+5	; 0x05
    2a3a:	60 e0       	ldi	r22, 0x00	; 0
    2a3c:	70 e0       	ldi	r23, 0x00	; 0
    2a3e:	f9 01       	movw	r30, r18
    2a40:	19 95       	eicall
    2a42:	0f 90       	pop	r0
    2a44:	0f 90       	pop	r0
    2a46:	0f 90       	pop	r0
    2a48:	0f 90       	pop	r0
    2a4a:	df 91       	pop	r29
    2a4c:	cf 91       	pop	r28
    2a4e:	08 95       	ret

00002a50 <_ZL12_dre_handlerPv>:
    2a50:	cf 93       	push	r28
    2a52:	df 93       	push	r29
    2a54:	00 d0       	rcall	.+0      	; 0x2a56 <_ZL12_dre_handlerPv+0x6>
    2a56:	1f 92       	push	r1
    2a58:	cd b7       	in	r28, 0x3d	; 61
    2a5a:	de b7       	in	r29, 0x3e	; 62
    2a5c:	9c 83       	std	Y+4, r25	; 0x04
    2a5e:	8b 83       	std	Y+3, r24	; 0x03
    2a60:	8b 81       	ldd	r24, Y+3	; 0x03
    2a62:	9c 81       	ldd	r25, Y+4	; 0x04
    2a64:	9a 83       	std	Y+2, r25	; 0x02
    2a66:	89 83       	std	Y+1, r24	; 0x01
    2a68:	89 81       	ldd	r24, Y+1	; 0x01
    2a6a:	9a 81       	ldd	r25, Y+2	; 0x02
    2a6c:	fc 01       	movw	r30, r24
    2a6e:	82 81       	ldd	r24, Z+2	; 0x02
    2a70:	93 81       	ldd	r25, Z+3	; 0x03
    2a72:	89 2b       	or	r24, r25
    2a74:	71 f0       	breq	.+28     	; 0x2a92 <_ZL12_dre_handlerPv+0x42>
    2a76:	89 81       	ldd	r24, Y+1	; 0x01
    2a78:	9a 81       	ldd	r25, Y+2	; 0x02
    2a7a:	fc 01       	movw	r30, r24
    2a7c:	22 81       	ldd	r18, Z+2	; 0x02
    2a7e:	33 81       	ldd	r19, Z+3	; 0x03
    2a80:	89 81       	ldd	r24, Y+1	; 0x01
    2a82:	9a 81       	ldd	r25, Y+2	; 0x02
    2a84:	fc 01       	movw	r30, r24
    2a86:	84 81       	ldd	r24, Z+4	; 0x04
    2a88:	95 81       	ldd	r25, Z+5	; 0x05
    2a8a:	61 e0       	ldi	r22, 0x01	; 1
    2a8c:	70 e0       	ldi	r23, 0x00	; 0
    2a8e:	f9 01       	movw	r30, r18
    2a90:	19 95       	eicall
    2a92:	0f 90       	pop	r0
    2a94:	0f 90       	pop	r0
    2a96:	0f 90       	pop	r0
    2a98:	0f 90       	pop	r0
    2a9a:	df 91       	pop	r29
    2a9c:	cf 91       	pop	r28
    2a9e:	08 95       	ret

00002aa0 <_ZL11_tx_handlerPv>:
    2aa0:	cf 93       	push	r28
    2aa2:	df 93       	push	r29
    2aa4:	00 d0       	rcall	.+0      	; 0x2aa6 <_ZL11_tx_handlerPv+0x6>
    2aa6:	1f 92       	push	r1
    2aa8:	cd b7       	in	r28, 0x3d	; 61
    2aaa:	de b7       	in	r29, 0x3e	; 62
    2aac:	9c 83       	std	Y+4, r25	; 0x04
    2aae:	8b 83       	std	Y+3, r24	; 0x03
    2ab0:	8b 81       	ldd	r24, Y+3	; 0x03
    2ab2:	9c 81       	ldd	r25, Y+4	; 0x04
    2ab4:	9a 83       	std	Y+2, r25	; 0x02
    2ab6:	89 83       	std	Y+1, r24	; 0x01
    2ab8:	89 81       	ldd	r24, Y+1	; 0x01
    2aba:	9a 81       	ldd	r25, Y+2	; 0x02
    2abc:	fc 01       	movw	r30, r24
    2abe:	82 81       	ldd	r24, Z+2	; 0x02
    2ac0:	93 81       	ldd	r25, Z+3	; 0x03
    2ac2:	89 2b       	or	r24, r25
    2ac4:	71 f0       	breq	.+28     	; 0x2ae2 <_ZL11_tx_handlerPv+0x42>
    2ac6:	89 81       	ldd	r24, Y+1	; 0x01
    2ac8:	9a 81       	ldd	r25, Y+2	; 0x02
    2aca:	fc 01       	movw	r30, r24
    2acc:	22 81       	ldd	r18, Z+2	; 0x02
    2ace:	33 81       	ldd	r19, Z+3	; 0x03
    2ad0:	89 81       	ldd	r24, Y+1	; 0x01
    2ad2:	9a 81       	ldd	r25, Y+2	; 0x02
    2ad4:	fc 01       	movw	r30, r24
    2ad6:	84 81       	ldd	r24, Z+4	; 0x04
    2ad8:	95 81       	ldd	r25, Z+5	; 0x05
    2ada:	62 e0       	ldi	r22, 0x02	; 2
    2adc:	70 e0       	ldi	r23, 0x00	; 0
    2ade:	f9 01       	movw	r30, r18
    2ae0:	19 95       	eicall
    2ae2:	0f 90       	pop	r0
    2ae4:	0f 90       	pop	r0
    2ae6:	0f 90       	pop	r0
    2ae8:	0f 90       	pop	r0
    2aea:	df 91       	pop	r29
    2aec:	cf 91       	pop	r28
    2aee:	08 95       	ret

00002af0 <_ZN16avr_usart_device7irqinitEv>:
    2af0:	cf 93       	push	r28
    2af2:	df 93       	push	r29
    2af4:	1f 92       	push	r1
    2af6:	1f 92       	push	r1
    2af8:	cd b7       	in	r28, 0x3d	; 61
    2afa:	de b7       	in	r29, 0x3e	; 62
    2afc:	9a 83       	std	Y+2, r25	; 0x02
    2afe:	89 83       	std	Y+1, r24	; 0x01
    2b00:	89 81       	ldd	r24, Y+1	; 0x01
    2b02:	9a 81       	ldd	r25, Y+2	; 0x02
    2b04:	fc 01       	movw	r30, r24
    2b06:	80 85       	ldd	r24, Z+8	; 0x08
    2b08:	88 2f       	mov	r24, r24
    2b0a:	90 e0       	ldi	r25, 0x00	; 0
    2b0c:	29 81       	ldd	r18, Y+1	; 0x01
    2b0e:	3a 81       	ldd	r19, Y+2	; 0x02
    2b10:	a9 01       	movw	r20, r18
    2b12:	60 e0       	ldi	r22, 0x00	; 0
    2b14:	75 e1       	ldi	r23, 0x15	; 21
    2b16:	0e 94 8e 06 	call	0xd1c	; 0xd1c <irqtable_set_handler>
    2b1a:	89 81       	ldd	r24, Y+1	; 0x01
    2b1c:	9a 81       	ldd	r25, Y+2	; 0x02
    2b1e:	fc 01       	movw	r30, r24
    2b20:	80 85       	ldd	r24, Z+8	; 0x08
    2b22:	88 2f       	mov	r24, r24
    2b24:	90 e0       	ldi	r25, 0x00	; 0
    2b26:	01 96       	adiw	r24, 0x01	; 1
    2b28:	29 81       	ldd	r18, Y+1	; 0x01
    2b2a:	3a 81       	ldd	r19, Y+2	; 0x02
    2b2c:	a9 01       	movw	r20, r18
    2b2e:	68 e2       	ldi	r22, 0x28	; 40
    2b30:	75 e1       	ldi	r23, 0x15	; 21
    2b32:	0e 94 8e 06 	call	0xd1c	; 0xd1c <irqtable_set_handler>
    2b36:	89 81       	ldd	r24, Y+1	; 0x01
    2b38:	9a 81       	ldd	r25, Y+2	; 0x02
    2b3a:	fc 01       	movw	r30, r24
    2b3c:	80 85       	ldd	r24, Z+8	; 0x08
    2b3e:	88 2f       	mov	r24, r24
    2b40:	90 e0       	ldi	r25, 0x00	; 0
    2b42:	02 96       	adiw	r24, 0x02	; 2
    2b44:	29 81       	ldd	r18, Y+1	; 0x01
    2b46:	3a 81       	ldd	r19, Y+2	; 0x02
    2b48:	a9 01       	movw	r20, r18
    2b4a:	60 e5       	ldi	r22, 0x50	; 80
    2b4c:	75 e1       	ldi	r23, 0x15	; 21
    2b4e:	0e 94 8e 06 	call	0xd1c	; 0xd1c <irqtable_set_handler>
    2b52:	80 e0       	ldi	r24, 0x00	; 0
    2b54:	90 e0       	ldi	r25, 0x00	; 0
    2b56:	0f 90       	pop	r0
    2b58:	0f 90       	pop	r0
    2b5a:	df 91       	pop	r29
    2b5c:	cf 91       	pop	r28
    2b5e:	08 95       	ret

00002b60 <_ZN16avr_usart_device5setupElchh>:
    2b60:	ef 92       	push	r14
    2b62:	0f 93       	push	r16
    2b64:	cf 93       	push	r28
    2b66:	df 93       	push	r29
    2b68:	cd b7       	in	r28, 0x3d	; 61
    2b6a:	de b7       	in	r29, 0x3e	; 62
    2b6c:	29 97       	sbiw	r28, 0x09	; 9
    2b6e:	0f b6       	in	r0, 0x3f	; 63
    2b70:	f8 94       	cli
    2b72:	de bf       	out	0x3e, r29	; 62
    2b74:	0f be       	out	0x3f, r0	; 63
    2b76:	cd bf       	out	0x3d, r28	; 61
    2b78:	9a 83       	std	Y+2, r25	; 0x02
    2b7a:	89 83       	std	Y+1, r24	; 0x01
    2b7c:	4b 83       	std	Y+3, r20	; 0x03
    2b7e:	5c 83       	std	Y+4, r21	; 0x04
    2b80:	6d 83       	std	Y+5, r22	; 0x05
    2b82:	7e 83       	std	Y+6, r23	; 0x06
    2b84:	2f 83       	std	Y+7, r18	; 0x07
    2b86:	08 87       	std	Y+8, r16	; 0x08
    2b88:	e9 86       	std	Y+9, r14	; 0x09
    2b8a:	89 81       	ldd	r24, Y+1	; 0x01
    2b8c:	9a 81       	ldd	r25, Y+2	; 0x02
    2b8e:	dc 01       	movw	r26, r24
    2b90:	16 96       	adiw	r26, 0x06	; 6
    2b92:	8d 91       	ld	r24, X+
    2b94:	9c 91       	ld	r25, X
    2b96:	17 97       	sbiw	r26, 0x07	; 7
    2b98:	61 e0       	ldi	r22, 0x01	; 1
    2b9a:	70 e0       	ldi	r23, 0x00	; 0
    2b9c:	0e 94 0b 1a 	call	0x3416	; 0x3416 <_ZL20usart_regs_enable_txP10usart_regsi.lto_priv.85>
    2ba0:	89 81       	ldd	r24, Y+1	; 0x01
    2ba2:	9a 81       	ldd	r25, Y+2	; 0x02
    2ba4:	fc 01       	movw	r30, r24
    2ba6:	86 81       	ldd	r24, Z+6	; 0x06
    2ba8:	97 81       	ldd	r25, Z+7	; 0x07
    2baa:	61 e0       	ldi	r22, 0x01	; 1
    2bac:	70 e0       	ldi	r23, 0x00	; 0
    2bae:	0e 94 e5 19 	call	0x33ca	; 0x33ca <_ZL20usart_regs_enable_rxP10usart_regsi.lto_priv.84>
    2bb2:	89 81       	ldd	r24, Y+1	; 0x01
    2bb4:	9a 81       	ldd	r25, Y+2	; 0x02
    2bb6:	dc 01       	movw	r26, r24
    2bb8:	16 96       	adiw	r26, 0x06	; 6
    2bba:	ed 91       	ld	r30, X+
    2bbc:	fc 91       	ld	r31, X
    2bbe:	17 97       	sbiw	r26, 0x07	; 7
    2bc0:	8b 81       	ldd	r24, Y+3	; 0x03
    2bc2:	9c 81       	ldd	r25, Y+4	; 0x04
    2bc4:	ad 81       	ldd	r26, Y+5	; 0x05
    2bc6:	be 81       	ldd	r27, Y+6	; 0x06
    2bc8:	e9 84       	ldd	r14, Y+9	; 0x09
    2bca:	08 85       	ldd	r16, Y+8	; 0x08
    2bcc:	2f 81       	ldd	r18, Y+7	; 0x07
    2bce:	ac 01       	movw	r20, r24
    2bd0:	bd 01       	movw	r22, r26
    2bd2:	cf 01       	movw	r24, r30
    2bd4:	0e 94 a3 1a 	call	0x3546	; 0x3546 <_ZL16usart_regs_setupP10usart_regslchh.lto_priv.83>
    2bd8:	89 81       	ldd	r24, Y+1	; 0x01
    2bda:	9a 81       	ldd	r25, Y+2	; 0x02
    2bdc:	0e 94 78 15 	call	0x2af0	; 0x2af0 <_ZN16avr_usart_device7irqinitEv>
    2be0:	89 81       	ldd	r24, Y+1	; 0x01
    2be2:	9a 81       	ldd	r25, Y+2	; 0x02
    2be4:	fc 01       	movw	r30, r24
    2be6:	86 81       	ldd	r24, Z+6	; 0x06
    2be8:	97 81       	ldd	r25, Z+7	; 0x07
    2bea:	61 e0       	ldi	r22, 0x01	; 1
    2bec:	70 e0       	ldi	r23, 0x00	; 0
    2bee:	0e 94 31 1a 	call	0x3462	; 0x3462 <_ZL16usart_regs_rxirqP10usart_regsi.lto_priv.82>
    2bf2:	80 e0       	ldi	r24, 0x00	; 0
    2bf4:	90 e0       	ldi	r25, 0x00	; 0
    2bf6:	29 96       	adiw	r28, 0x09	; 9
    2bf8:	0f b6       	in	r0, 0x3f	; 63
    2bfa:	f8 94       	cli
    2bfc:	de bf       	out	0x3e, r29	; 62
    2bfe:	0f be       	out	0x3f, r0	; 63
    2c00:	cd bf       	out	0x3d, r28	; 61
    2c02:	df 91       	pop	r29
    2c04:	cf 91       	pop	r28
    2c06:	0f 91       	pop	r16
    2c08:	ef 90       	pop	r14
    2c0a:	08 95       	ret

00002c0c <_ZN5genos3avrL15tc_divider_codeEj>:
    2c0c:	cf 93       	push	r28
    2c0e:	df 93       	push	r29
    2c10:	1f 92       	push	r1
    2c12:	1f 92       	push	r1
    2c14:	cd b7       	in	r28, 0x3d	; 61
    2c16:	de b7       	in	r29, 0x3e	; 62
    2c18:	9a 83       	std	Y+2, r25	; 0x02
    2c1a:	89 83       	std	Y+1, r24	; 0x01
    2c1c:	89 81       	ldd	r24, Y+1	; 0x01
    2c1e:	9a 81       	ldd	r25, Y+2	; 0x02
    2c20:	88 30       	cpi	r24, 0x08	; 8
    2c22:	91 05       	cpc	r25, r1
    2c24:	99 f0       	breq	.+38     	; 0x2c4c <_ZN5genos3avrL15tc_divider_codeEj+0x40>
    2c26:	89 30       	cpi	r24, 0x09	; 9
    2c28:	91 05       	cpc	r25, r1
    2c2a:	28 f4       	brcc	.+10     	; 0x2c36 <_ZN5genos3avrL15tc_divider_codeEj+0x2a>
    2c2c:	00 97       	sbiw	r24, 0x00	; 0
    2c2e:	51 f0       	breq	.+20     	; 0x2c44 <_ZN5genos3avrL15tc_divider_codeEj+0x38>
    2c30:	01 97       	sbiw	r24, 0x01	; 1
    2c32:	51 f0       	breq	.+20     	; 0x2c48 <_ZN5genos3avrL15tc_divider_codeEj+0x3c>
    2c34:	11 c0       	rjmp	.+34     	; 0x2c58 <_ZN5genos3avrL15tc_divider_codeEj+0x4c>
    2c36:	80 34       	cpi	r24, 0x40	; 64
    2c38:	91 05       	cpc	r25, r1
    2c3a:	51 f0       	breq	.+20     	; 0x2c50 <_ZN5genos3avrL15tc_divider_codeEj+0x44>
    2c3c:	81 15       	cp	r24, r1
    2c3e:	91 40       	sbci	r25, 0x01	; 1
    2c40:	49 f0       	breq	.+18     	; 0x2c54 <_ZN5genos3avrL15tc_divider_codeEj+0x48>
    2c42:	0a c0       	rjmp	.+20     	; 0x2c58 <_ZN5genos3avrL15tc_divider_codeEj+0x4c>
    2c44:	80 e0       	ldi	r24, 0x00	; 0
    2c46:	09 c0       	rjmp	.+18     	; 0x2c5a <_ZN5genos3avrL15tc_divider_codeEj+0x4e>
    2c48:	81 e0       	ldi	r24, 0x01	; 1
    2c4a:	07 c0       	rjmp	.+14     	; 0x2c5a <_ZN5genos3avrL15tc_divider_codeEj+0x4e>
    2c4c:	82 e0       	ldi	r24, 0x02	; 2
    2c4e:	05 c0       	rjmp	.+10     	; 0x2c5a <_ZN5genos3avrL15tc_divider_codeEj+0x4e>
    2c50:	83 e0       	ldi	r24, 0x03	; 3
    2c52:	03 c0       	rjmp	.+6      	; 0x2c5a <_ZN5genos3avrL15tc_divider_codeEj+0x4e>
    2c54:	84 e0       	ldi	r24, 0x04	; 4
    2c56:	01 c0       	rjmp	.+2      	; 0x2c5a <_ZN5genos3avrL15tc_divider_codeEj+0x4e>
    2c58:	8f ef       	ldi	r24, 0xFF	; 255
    2c5a:	0f 90       	pop	r0
    2c5c:	0f 90       	pop	r0
    2c5e:	df 91       	pop	r29
    2c60:	cf 91       	pop	r28
    2c62:	08 95       	ret

00002c64 <_ZN5genos3avr6timer8C1EP11timer8_regsNS0_10timer_irqsEPVh>:
    2c64:	0f 93       	push	r16
    2c66:	1f 93       	push	r17
    2c68:	cf 93       	push	r28
    2c6a:	df 93       	push	r29
    2c6c:	cd b7       	in	r28, 0x3d	; 61
    2c6e:	de b7       	in	r29, 0x3e	; 62
    2c70:	2a 97       	sbiw	r28, 0x0a	; 10
    2c72:	0f b6       	in	r0, 0x3f	; 63
    2c74:	f8 94       	cli
    2c76:	de bf       	out	0x3e, r29	; 62
    2c78:	0f be       	out	0x3f, r0	; 63
    2c7a:	cd bf       	out	0x3d, r28	; 61
    2c7c:	9a 83       	std	Y+2, r25	; 0x02
    2c7e:	89 83       	std	Y+1, r24	; 0x01
    2c80:	7c 83       	std	Y+4, r23	; 0x04
    2c82:	6b 83       	std	Y+3, r22	; 0x03
    2c84:	2d 83       	std	Y+5, r18	; 0x05
    2c86:	3e 83       	std	Y+6, r19	; 0x06
    2c88:	4f 83       	std	Y+7, r20	; 0x07
    2c8a:	58 87       	std	Y+8, r21	; 0x08
    2c8c:	1a 87       	std	Y+10, r17	; 0x0a
    2c8e:	09 87       	std	Y+9, r16	; 0x09
    2c90:	e9 81       	ldd	r30, Y+1	; 0x01
    2c92:	fa 81       	ldd	r31, Y+2	; 0x02
    2c94:	29 85       	ldd	r18, Y+9	; 0x09
    2c96:	3a 85       	ldd	r19, Y+10	; 0x0a
    2c98:	8d 81       	ldd	r24, Y+5	; 0x05
    2c9a:	9e 81       	ldd	r25, Y+6	; 0x06
    2c9c:	af 81       	ldd	r26, Y+7	; 0x07
    2c9e:	b8 85       	ldd	r27, Y+8	; 0x08
    2ca0:	6b 81       	ldd	r22, Y+3	; 0x03
    2ca2:	7c 81       	ldd	r23, Y+4	; 0x04
    2ca4:	89 01       	movw	r16, r18
    2ca6:	9c 01       	movw	r18, r24
    2ca8:	ad 01       	movw	r20, r26
    2caa:	cf 01       	movw	r24, r30
    2cac:	0e 94 b6 16 	call	0x2d6c	; 0x2d6c <_ZN5genos3avr5timerIhP11timer8_regsEC2ES3_NS0_10timer_irqsEPVh>
    2cb0:	20 e0       	ldi	r18, 0x00	; 0
    2cb2:	35 e4       	ldi	r19, 0x45	; 69
    2cb4:	89 81       	ldd	r24, Y+1	; 0x01
    2cb6:	9a 81       	ldd	r25, Y+2	; 0x02
    2cb8:	fc 01       	movw	r30, r24
    2cba:	31 83       	std	Z+1, r19	; 0x01
    2cbc:	20 83       	st	Z, r18
    2cbe:	2a 96       	adiw	r28, 0x0a	; 10
    2cc0:	0f b6       	in	r0, 0x3f	; 63
    2cc2:	f8 94       	cli
    2cc4:	de bf       	out	0x3e, r29	; 62
    2cc6:	0f be       	out	0x3f, r0	; 63
    2cc8:	cd bf       	out	0x3d, r28	; 61
    2cca:	df 91       	pop	r29
    2ccc:	cf 91       	pop	r28
    2cce:	1f 91       	pop	r17
    2cd0:	0f 91       	pop	r16
    2cd2:	08 95       	ret

00002cd4 <_ZN5genos3avr7timer16C1EP12timer16_regsNS0_10timer_irqsEPVh>:
    2cd4:	0f 93       	push	r16
    2cd6:	1f 93       	push	r17
    2cd8:	cf 93       	push	r28
    2cda:	df 93       	push	r29
    2cdc:	cd b7       	in	r28, 0x3d	; 61
    2cde:	de b7       	in	r29, 0x3e	; 62
    2ce0:	2a 97       	sbiw	r28, 0x0a	; 10
    2ce2:	0f b6       	in	r0, 0x3f	; 63
    2ce4:	f8 94       	cli
    2ce6:	de bf       	out	0x3e, r29	; 62
    2ce8:	0f be       	out	0x3f, r0	; 63
    2cea:	cd bf       	out	0x3d, r28	; 61
    2cec:	9a 83       	std	Y+2, r25	; 0x02
    2cee:	89 83       	std	Y+1, r24	; 0x01
    2cf0:	7c 83       	std	Y+4, r23	; 0x04
    2cf2:	6b 83       	std	Y+3, r22	; 0x03
    2cf4:	2d 83       	std	Y+5, r18	; 0x05
    2cf6:	3e 83       	std	Y+6, r19	; 0x06
    2cf8:	4f 83       	std	Y+7, r20	; 0x07
    2cfa:	58 87       	std	Y+8, r21	; 0x08
    2cfc:	1a 87       	std	Y+10, r17	; 0x0a
    2cfe:	09 87       	std	Y+9, r16	; 0x09
    2d00:	e9 81       	ldd	r30, Y+1	; 0x01
    2d02:	fa 81       	ldd	r31, Y+2	; 0x02
    2d04:	29 85       	ldd	r18, Y+9	; 0x09
    2d06:	3a 85       	ldd	r19, Y+10	; 0x0a
    2d08:	8d 81       	ldd	r24, Y+5	; 0x05
    2d0a:	9e 81       	ldd	r25, Y+6	; 0x06
    2d0c:	af 81       	ldd	r26, Y+7	; 0x07
    2d0e:	b8 85       	ldd	r27, Y+8	; 0x08
    2d10:	6b 81       	ldd	r22, Y+3	; 0x03
    2d12:	7c 81       	ldd	r23, Y+4	; 0x04
    2d14:	89 01       	movw	r16, r18
    2d16:	9c 01       	movw	r18, r24
    2d18:	ad 01       	movw	r20, r26
    2d1a:	cf 01       	movw	r24, r30
    2d1c:	0e 94 fb 16 	call	0x2df6	; 0x2df6 <_ZN5genos3avr5timerIjP12timer16_regsEC2ES3_NS0_10timer_irqsEPVh>
    2d20:	20 ee       	ldi	r18, 0xE0	; 224
    2d22:	34 e4       	ldi	r19, 0x44	; 68
    2d24:	89 81       	ldd	r24, Y+1	; 0x01
    2d26:	9a 81       	ldd	r25, Y+2	; 0x02
    2d28:	fc 01       	movw	r30, r24
    2d2a:	31 83       	std	Z+1, r19	; 0x01
    2d2c:	20 83       	st	Z, r18
    2d2e:	2a 96       	adiw	r28, 0x0a	; 10
    2d30:	0f b6       	in	r0, 0x3f	; 63
    2d32:	f8 94       	cli
    2d34:	de bf       	out	0x3e, r29	; 62
    2d36:	0f be       	out	0x3f, r0	; 63
    2d38:	cd bf       	out	0x3d, r28	; 61
    2d3a:	df 91       	pop	r29
    2d3c:	cf 91       	pop	r28
    2d3e:	1f 91       	pop	r17
    2d40:	0f 91       	pop	r16
    2d42:	08 95       	ret

00002d44 <_ZN5genos3avr10timer_baseC2Ev>:
    2d44:	cf 93       	push	r28
    2d46:	df 93       	push	r29
    2d48:	1f 92       	push	r1
    2d4a:	1f 92       	push	r1
    2d4c:	cd b7       	in	r28, 0x3d	; 61
    2d4e:	de b7       	in	r29, 0x3e	; 62
    2d50:	9a 83       	std	Y+2, r25	; 0x02
    2d52:	89 83       	std	Y+1, r24	; 0x01
    2d54:	20 e2       	ldi	r18, 0x20	; 32
    2d56:	35 e4       	ldi	r19, 0x45	; 69
    2d58:	89 81       	ldd	r24, Y+1	; 0x01
    2d5a:	9a 81       	ldd	r25, Y+2	; 0x02
    2d5c:	fc 01       	movw	r30, r24
    2d5e:	31 83       	std	Z+1, r19	; 0x01
    2d60:	20 83       	st	Z, r18
    2d62:	0f 90       	pop	r0
    2d64:	0f 90       	pop	r0
    2d66:	df 91       	pop	r29
    2d68:	cf 91       	pop	r28
    2d6a:	08 95       	ret

00002d6c <_ZN5genos3avr5timerIhP11timer8_regsEC2ES3_NS0_10timer_irqsEPVh>:
    2d6c:	0f 93       	push	r16
    2d6e:	1f 93       	push	r17
    2d70:	cf 93       	push	r28
    2d72:	df 93       	push	r29
    2d74:	cd b7       	in	r28, 0x3d	; 61
    2d76:	de b7       	in	r29, 0x3e	; 62
    2d78:	2a 97       	sbiw	r28, 0x0a	; 10
    2d7a:	0f b6       	in	r0, 0x3f	; 63
    2d7c:	f8 94       	cli
    2d7e:	de bf       	out	0x3e, r29	; 62
    2d80:	0f be       	out	0x3f, r0	; 63
    2d82:	cd bf       	out	0x3d, r28	; 61
    2d84:	9a 83       	std	Y+2, r25	; 0x02
    2d86:	89 83       	std	Y+1, r24	; 0x01
    2d88:	7c 83       	std	Y+4, r23	; 0x04
    2d8a:	6b 83       	std	Y+3, r22	; 0x03
    2d8c:	2d 83       	std	Y+5, r18	; 0x05
    2d8e:	3e 83       	std	Y+6, r19	; 0x06
    2d90:	4f 83       	std	Y+7, r20	; 0x07
    2d92:	58 87       	std	Y+8, r21	; 0x08
    2d94:	1a 87       	std	Y+10, r17	; 0x0a
    2d96:	09 87       	std	Y+9, r16	; 0x09
    2d98:	89 81       	ldd	r24, Y+1	; 0x01
    2d9a:	9a 81       	ldd	r25, Y+2	; 0x02
    2d9c:	0e 94 a2 16 	call	0x2d44	; 0x2d44 <_ZN5genos3avr10timer_baseC2Ev>
    2da0:	20 e1       	ldi	r18, 0x10	; 16
    2da2:	35 e4       	ldi	r19, 0x45	; 69
    2da4:	89 81       	ldd	r24, Y+1	; 0x01
    2da6:	9a 81       	ldd	r25, Y+2	; 0x02
    2da8:	fc 01       	movw	r30, r24
    2daa:	31 83       	std	Z+1, r19	; 0x01
    2dac:	20 83       	st	Z, r18
    2dae:	89 81       	ldd	r24, Y+1	; 0x01
    2db0:	9a 81       	ldd	r25, Y+2	; 0x02
    2db2:	2b 81       	ldd	r18, Y+3	; 0x03
    2db4:	3c 81       	ldd	r19, Y+4	; 0x04
    2db6:	fc 01       	movw	r30, r24
    2db8:	33 83       	std	Z+3, r19	; 0x03
    2dba:	22 83       	std	Z+2, r18	; 0x02
    2dbc:	29 81       	ldd	r18, Y+1	; 0x01
    2dbe:	3a 81       	ldd	r19, Y+2	; 0x02
    2dc0:	8d 81       	ldd	r24, Y+5	; 0x05
    2dc2:	9e 81       	ldd	r25, Y+6	; 0x06
    2dc4:	af 81       	ldd	r26, Y+7	; 0x07
    2dc6:	b8 85       	ldd	r27, Y+8	; 0x08
    2dc8:	f9 01       	movw	r30, r18
    2dca:	84 83       	std	Z+4, r24	; 0x04
    2dcc:	95 83       	std	Z+5, r25	; 0x05
    2dce:	a6 83       	std	Z+6, r26	; 0x06
    2dd0:	b7 83       	std	Z+7, r27	; 0x07
    2dd2:	89 81       	ldd	r24, Y+1	; 0x01
    2dd4:	9a 81       	ldd	r25, Y+2	; 0x02
    2dd6:	29 85       	ldd	r18, Y+9	; 0x09
    2dd8:	3a 85       	ldd	r19, Y+10	; 0x0a
    2dda:	fc 01       	movw	r30, r24
    2ddc:	31 87       	std	Z+9, r19	; 0x09
    2dde:	20 87       	std	Z+8, r18	; 0x08
    2de0:	2a 96       	adiw	r28, 0x0a	; 10
    2de2:	0f b6       	in	r0, 0x3f	; 63
    2de4:	f8 94       	cli
    2de6:	de bf       	out	0x3e, r29	; 62
    2de8:	0f be       	out	0x3f, r0	; 63
    2dea:	cd bf       	out	0x3d, r28	; 61
    2dec:	df 91       	pop	r29
    2dee:	cf 91       	pop	r28
    2df0:	1f 91       	pop	r17
    2df2:	0f 91       	pop	r16
    2df4:	08 95       	ret

00002df6 <_ZN5genos3avr5timerIjP12timer16_regsEC2ES3_NS0_10timer_irqsEPVh>:
    2df6:	0f 93       	push	r16
    2df8:	1f 93       	push	r17
    2dfa:	cf 93       	push	r28
    2dfc:	df 93       	push	r29
    2dfe:	cd b7       	in	r28, 0x3d	; 61
    2e00:	de b7       	in	r29, 0x3e	; 62
    2e02:	2a 97       	sbiw	r28, 0x0a	; 10
    2e04:	0f b6       	in	r0, 0x3f	; 63
    2e06:	f8 94       	cli
    2e08:	de bf       	out	0x3e, r29	; 62
    2e0a:	0f be       	out	0x3f, r0	; 63
    2e0c:	cd bf       	out	0x3d, r28	; 61
    2e0e:	9a 83       	std	Y+2, r25	; 0x02
    2e10:	89 83       	std	Y+1, r24	; 0x01
    2e12:	7c 83       	std	Y+4, r23	; 0x04
    2e14:	6b 83       	std	Y+3, r22	; 0x03
    2e16:	2d 83       	std	Y+5, r18	; 0x05
    2e18:	3e 83       	std	Y+6, r19	; 0x06
    2e1a:	4f 83       	std	Y+7, r20	; 0x07
    2e1c:	58 87       	std	Y+8, r21	; 0x08
    2e1e:	1a 87       	std	Y+10, r17	; 0x0a
    2e20:	09 87       	std	Y+9, r16	; 0x09
    2e22:	89 81       	ldd	r24, Y+1	; 0x01
    2e24:	9a 81       	ldd	r25, Y+2	; 0x02
    2e26:	0e 94 a2 16 	call	0x2d44	; 0x2d44 <_ZN5genos3avr10timer_baseC2Ev>
    2e2a:	20 ef       	ldi	r18, 0xF0	; 240
    2e2c:	34 e4       	ldi	r19, 0x44	; 68
    2e2e:	89 81       	ldd	r24, Y+1	; 0x01
    2e30:	9a 81       	ldd	r25, Y+2	; 0x02
    2e32:	fc 01       	movw	r30, r24
    2e34:	31 83       	std	Z+1, r19	; 0x01
    2e36:	20 83       	st	Z, r18
    2e38:	89 81       	ldd	r24, Y+1	; 0x01
    2e3a:	9a 81       	ldd	r25, Y+2	; 0x02
    2e3c:	2b 81       	ldd	r18, Y+3	; 0x03
    2e3e:	3c 81       	ldd	r19, Y+4	; 0x04
    2e40:	fc 01       	movw	r30, r24
    2e42:	33 83       	std	Z+3, r19	; 0x03
    2e44:	22 83       	std	Z+2, r18	; 0x02
    2e46:	29 81       	ldd	r18, Y+1	; 0x01
    2e48:	3a 81       	ldd	r19, Y+2	; 0x02
    2e4a:	8d 81       	ldd	r24, Y+5	; 0x05
    2e4c:	9e 81       	ldd	r25, Y+6	; 0x06
    2e4e:	af 81       	ldd	r26, Y+7	; 0x07
    2e50:	b8 85       	ldd	r27, Y+8	; 0x08
    2e52:	f9 01       	movw	r30, r18
    2e54:	84 83       	std	Z+4, r24	; 0x04
    2e56:	95 83       	std	Z+5, r25	; 0x05
    2e58:	a6 83       	std	Z+6, r26	; 0x06
    2e5a:	b7 83       	std	Z+7, r27	; 0x07
    2e5c:	89 81       	ldd	r24, Y+1	; 0x01
    2e5e:	9a 81       	ldd	r25, Y+2	; 0x02
    2e60:	29 85       	ldd	r18, Y+9	; 0x09
    2e62:	3a 85       	ldd	r19, Y+10	; 0x0a
    2e64:	fc 01       	movw	r30, r24
    2e66:	31 87       	std	Z+9, r19	; 0x09
    2e68:	20 87       	std	Z+8, r18	; 0x08
    2e6a:	2a 96       	adiw	r28, 0x0a	; 10
    2e6c:	0f b6       	in	r0, 0x3f	; 63
    2e6e:	f8 94       	cli
    2e70:	de bf       	out	0x3e, r29	; 62
    2e72:	0f be       	out	0x3f, r0	; 63
    2e74:	cd bf       	out	0x3d, r28	; 61
    2e76:	df 91       	pop	r29
    2e78:	cf 91       	pop	r28
    2e7a:	1f 91       	pop	r17
    2e7c:	0f 91       	pop	r16
    2e7e:	08 95       	ret

00002e80 <_Z41__static_initialization_and_destruction_0ii>:
    2e80:	4f 92       	push	r4
    2e82:	5f 92       	push	r5
    2e84:	6f 92       	push	r6
    2e86:	7f 92       	push	r7
    2e88:	8f 92       	push	r8
    2e8a:	9f 92       	push	r9
    2e8c:	af 92       	push	r10
    2e8e:	bf 92       	push	r11
    2e90:	cf 92       	push	r12
    2e92:	df 92       	push	r13
    2e94:	ef 92       	push	r14
    2e96:	ff 92       	push	r15
    2e98:	0f 93       	push	r16
    2e9a:	1f 93       	push	r17
    2e9c:	cf 93       	push	r28
    2e9e:	df 93       	push	r29
    2ea0:	cd b7       	in	r28, 0x3d	; 61
    2ea2:	de b7       	in	r29, 0x3e	; 62
    2ea4:	2c 97       	sbiw	r28, 0x0c	; 12
    2ea6:	0f b6       	in	r0, 0x3f	; 63
    2ea8:	f8 94       	cli
    2eaa:	de bf       	out	0x3e, r29	; 62
    2eac:	0f be       	out	0x3f, r0	; 63
    2eae:	cd bf       	out	0x3d, r28	; 61
    2eb0:	9a 83       	std	Y+2, r25	; 0x02
    2eb2:	89 83       	std	Y+1, r24	; 0x01
    2eb4:	7c 83       	std	Y+4, r23	; 0x04
    2eb6:	6b 83       	std	Y+3, r22	; 0x03
    2eb8:	89 81       	ldd	r24, Y+1	; 0x01
    2eba:	9a 81       	ldd	r25, Y+2	; 0x02
    2ebc:	01 97       	sbiw	r24, 0x01	; 1
    2ebe:	09 f0       	breq	.+2      	; 0x2ec2 <_Z41__static_initialization_and_destruction_0ii+0x42>
    2ec0:	85 c0       	rjmp	.+266    	; 0x2fcc <_Z41__static_initialization_and_destruction_0ii+0x14c>
    2ec2:	8b 81       	ldd	r24, Y+3	; 0x03
    2ec4:	9c 81       	ldd	r25, Y+4	; 0x04
    2ec6:	01 96       	adiw	r24, 0x01	; 1
    2ec8:	09 f0       	breq	.+2      	; 0x2ecc <_Z41__static_initialization_and_destruction_0ii+0x4c>
    2eca:	80 c0       	rjmp	.+256    	; 0x2fcc <_Z41__static_initialization_and_destruction_0ii+0x14c>
    2ecc:	26 e1       	ldi	r18, 0x16	; 22
    2ece:	34 e1       	ldi	r19, 0x14	; 20
    2ed0:	45 e1       	ldi	r20, 0x15	; 21
    2ed2:	50 e0       	ldi	r21, 0x00	; 0
    2ed4:	0e e6       	ldi	r16, 0x6E	; 110
    2ed6:	10 e0       	ldi	r17, 0x00	; 0
    2ed8:	64 e4       	ldi	r22, 0x44	; 68
    2eda:	70 e0       	ldi	r23, 0x00	; 0
    2edc:	83 e2       	ldi	r24, 0x23	; 35
    2ede:	95 e0       	ldi	r25, 0x05	; 5
    2ee0:	0e 94 32 16 	call	0x2c64	; 0x2c64 <_ZN5genos3avr6timer8C1EP11timer8_regsNS0_10timer_irqsEPVh>
    2ee4:	83 e1       	ldi	r24, 0x13	; 19
    2ee6:	89 87       	std	Y+9, r24	; 0x09
    2ee8:	60 e1       	ldi	r22, 0x10	; 16
    2eea:	6a 87       	std	Y+10, r22	; 0x0a
    2eec:	81 e1       	ldi	r24, 0x11	; 17
    2eee:	8b 87       	std	Y+11, r24	; 0x0b
    2ef0:	62 e1       	ldi	r22, 0x12	; 18
    2ef2:	6c 87       	std	Y+12, r22	; 0x0c
    2ef4:	0f e6       	ldi	r16, 0x6F	; 111
    2ef6:	10 e0       	ldi	r17, 0x00	; 0
    2ef8:	29 85       	ldd	r18, Y+9	; 0x09
    2efa:	3a 85       	ldd	r19, Y+10	; 0x0a
    2efc:	4b 85       	ldd	r20, Y+11	; 0x0b
    2efe:	5c 85       	ldd	r21, Y+12	; 0x0c
    2f00:	60 e8       	ldi	r22, 0x80	; 128
    2f02:	70 e0       	ldi	r23, 0x00	; 0
    2f04:	8d e2       	ldi	r24, 0x2D	; 45
    2f06:	95 e0       	ldi	r25, 0x05	; 5
    2f08:	0e 94 6a 16 	call	0x2cd4	; 0x2cd4 <_ZN5genos3avr7timer16C1EP12timer16_regsNS0_10timer_irqsEPVh>
    2f0c:	8e e0       	ldi	r24, 0x0E	; 14
    2f0e:	8d 83       	std	Y+5, r24	; 0x05
    2f10:	6c e0       	ldi	r22, 0x0C	; 12
    2f12:	6e 83       	std	Y+6, r22	; 0x06
    2f14:	8d e0       	ldi	r24, 0x0D	; 13
    2f16:	8f 83       	std	Y+7, r24	; 0x07
    2f18:	18 86       	std	Y+8, r1	; 0x08
    2f1a:	00 e7       	ldi	r16, 0x70	; 112
    2f1c:	10 e0       	ldi	r17, 0x00	; 0
    2f1e:	2d 81       	ldd	r18, Y+5	; 0x05
    2f20:	3e 81       	ldd	r19, Y+6	; 0x06
    2f22:	4f 81       	ldd	r20, Y+7	; 0x07
    2f24:	58 85       	ldd	r21, Y+8	; 0x08
    2f26:	60 eb       	ldi	r22, 0xB0	; 176
    2f28:	70 e0       	ldi	r23, 0x00	; 0
    2f2a:	87 e3       	ldi	r24, 0x37	; 55
    2f2c:	95 e0       	ldi	r25, 0x05	; 5
    2f2e:	0e 94 32 16 	call	0x2c64	; 0x2c64 <_ZN5genos3avr6timer8C1EP11timer8_regsNS0_10timer_irqsEPVh>
    2f32:	0f 2e       	mov	r0, r31
    2f34:	f2 e2       	ldi	r31, 0x22	; 34
    2f36:	4f 2e       	mov	r4, r31
    2f38:	f0 2d       	mov	r31, r0
    2f3a:	0f 2e       	mov	r0, r31
    2f3c:	ff e1       	ldi	r31, 0x1F	; 31
    2f3e:	5f 2e       	mov	r5, r31
    2f40:	f0 2d       	mov	r31, r0
    2f42:	68 94       	set
    2f44:	66 24       	eor	r6, r6
    2f46:	65 f8       	bld	r6, 5
    2f48:	0f 2e       	mov	r0, r31
    2f4a:	f1 e2       	ldi	r31, 0x21	; 33
    2f4c:	7f 2e       	mov	r7, r31
    2f4e:	f0 2d       	mov	r31, r0
    2f50:	01 e7       	ldi	r16, 0x71	; 113
    2f52:	10 e0       	ldi	r17, 0x00	; 0
    2f54:	a3 01       	movw	r20, r6
    2f56:	92 01       	movw	r18, r4
    2f58:	60 e9       	ldi	r22, 0x90	; 144
    2f5a:	70 e0       	ldi	r23, 0x00	; 0
    2f5c:	81 e4       	ldi	r24, 0x41	; 65
    2f5e:	95 e0       	ldi	r25, 0x05	; 5
    2f60:	0e 94 6a 16 	call	0x2cd4	; 0x2cd4 <_ZN5genos3avr7timer16C1EP12timer16_regsNS0_10timer_irqsEPVh>
    2f64:	0f 2e       	mov	r0, r31
    2f66:	fc e2       	ldi	r31, 0x2C	; 44
    2f68:	8f 2e       	mov	r8, r31
    2f6a:	f0 2d       	mov	r31, r0
    2f6c:	0f 2e       	mov	r0, r31
    2f6e:	f9 e2       	ldi	r31, 0x29	; 41
    2f70:	9f 2e       	mov	r9, r31
    2f72:	f0 2d       	mov	r31, r0
    2f74:	0f 2e       	mov	r0, r31
    2f76:	fa e2       	ldi	r31, 0x2A	; 42
    2f78:	af 2e       	mov	r10, r31
    2f7a:	f0 2d       	mov	r31, r0
    2f7c:	0f 2e       	mov	r0, r31
    2f7e:	fb e2       	ldi	r31, 0x2B	; 43
    2f80:	bf 2e       	mov	r11, r31
    2f82:	f0 2d       	mov	r31, r0
    2f84:	02 e7       	ldi	r16, 0x72	; 114
    2f86:	10 e0       	ldi	r17, 0x00	; 0
    2f88:	a5 01       	movw	r20, r10
    2f8a:	94 01       	movw	r18, r8
    2f8c:	60 ea       	ldi	r22, 0xA0	; 160
    2f8e:	70 e0       	ldi	r23, 0x00	; 0
    2f90:	8b e4       	ldi	r24, 0x4B	; 75
    2f92:	95 e0       	ldi	r25, 0x05	; 5
    2f94:	0e 94 6a 16 	call	0x2cd4	; 0x2cd4 <_ZN5genos3avr7timer16C1EP12timer16_regsNS0_10timer_irqsEPVh>
    2f98:	0f 2e       	mov	r0, r31
    2f9a:	f1 e3       	ldi	r31, 0x31	; 49
    2f9c:	cf 2e       	mov	r12, r31
    2f9e:	f0 2d       	mov	r31, r0
    2fa0:	0f 2e       	mov	r0, r31
    2fa2:	fe e2       	ldi	r31, 0x2E	; 46
    2fa4:	df 2e       	mov	r13, r31
    2fa6:	f0 2d       	mov	r31, r0
    2fa8:	0f 2e       	mov	r0, r31
    2faa:	ff e2       	ldi	r31, 0x2F	; 47
    2fac:	ef 2e       	mov	r14, r31
    2fae:	f0 2d       	mov	r31, r0
    2fb0:	0f 2e       	mov	r0, r31
    2fb2:	f0 e3       	ldi	r31, 0x30	; 48
    2fb4:	ff 2e       	mov	r15, r31
    2fb6:	f0 2d       	mov	r31, r0
    2fb8:	03 e7       	ldi	r16, 0x73	; 115
    2fba:	10 e0       	ldi	r17, 0x00	; 0
    2fbc:	a7 01       	movw	r20, r14
    2fbe:	96 01       	movw	r18, r12
    2fc0:	60 e2       	ldi	r22, 0x20	; 32
    2fc2:	71 e0       	ldi	r23, 0x01	; 1
    2fc4:	85 e5       	ldi	r24, 0x55	; 85
    2fc6:	95 e0       	ldi	r25, 0x05	; 5
    2fc8:	0e 94 6a 16 	call	0x2cd4	; 0x2cd4 <_ZN5genos3avr7timer16C1EP12timer16_regsNS0_10timer_irqsEPVh>
    2fcc:	2c 96       	adiw	r28, 0x0c	; 12
    2fce:	0f b6       	in	r0, 0x3f	; 63
    2fd0:	f8 94       	cli
    2fd2:	de bf       	out	0x3e, r29	; 62
    2fd4:	0f be       	out	0x3f, r0	; 63
    2fd6:	cd bf       	out	0x3d, r28	; 61
    2fd8:	df 91       	pop	r29
    2fda:	cf 91       	pop	r28
    2fdc:	1f 91       	pop	r17
    2fde:	0f 91       	pop	r16
    2fe0:	ff 90       	pop	r15
    2fe2:	ef 90       	pop	r14
    2fe4:	df 90       	pop	r13
    2fe6:	cf 90       	pop	r12
    2fe8:	bf 90       	pop	r11
    2fea:	af 90       	pop	r10
    2fec:	9f 90       	pop	r9
    2fee:	8f 90       	pop	r8
    2ff0:	7f 90       	pop	r7
    2ff2:	6f 90       	pop	r6
    2ff4:	5f 90       	pop	r5
    2ff6:	4f 90       	pop	r4
    2ff8:	08 95       	ret

00002ffa <_ZN5genos3avr5timerIjP12timer16_regsE11set_dividerEj>:
    2ffa:	cf 93       	push	r28
    2ffc:	df 93       	push	r29
    2ffe:	00 d0       	rcall	.+0      	; 0x3000 <_ZN5genos3avr5timerIjP12timer16_regsE11set_dividerEj+0x6>
    3000:	00 d0       	rcall	.+0      	; 0x3002 <_ZN5genos3avr5timerIjP12timer16_regsE11set_dividerEj+0x8>
    3002:	cd b7       	in	r28, 0x3d	; 61
    3004:	de b7       	in	r29, 0x3e	; 62
    3006:	9c 83       	std	Y+4, r25	; 0x04
    3008:	8b 83       	std	Y+3, r24	; 0x03
    300a:	7e 83       	std	Y+6, r23	; 0x06
    300c:	6d 83       	std	Y+5, r22	; 0x05
    300e:	8d 81       	ldd	r24, Y+5	; 0x05
    3010:	9e 81       	ldd	r25, Y+6	; 0x06
    3012:	0e 94 06 16 	call	0x2c0c	; 0x2c0c <_ZN5genos3avrL15tc_divider_codeEj>
    3016:	88 2f       	mov	r24, r24
    3018:	90 e0       	ldi	r25, 0x00	; 0
    301a:	9a 83       	std	Y+2, r25	; 0x02
    301c:	89 83       	std	Y+1, r24	; 0x01
    301e:	89 81       	ldd	r24, Y+1	; 0x01
    3020:	9a 81       	ldd	r25, Y+2	; 0x02
    3022:	99 23       	and	r25, r25
    3024:	1c f4       	brge	.+6      	; 0x302c <_ZN5genos3avr5timerIjP12timer16_regsE11set_dividerEj+0x32>
    3026:	8f ef       	ldi	r24, 0xFF	; 255
    3028:	9f ef       	ldi	r25, 0xFF	; 255
    302a:	16 c0       	rjmp	.+44     	; 0x3058 <_ZN5genos3avr5timerIjP12timer16_regsE11set_dividerEj+0x5e>
    302c:	8b 81       	ldd	r24, Y+3	; 0x03
    302e:	9c 81       	ldd	r25, Y+4	; 0x04
    3030:	fc 01       	movw	r30, r24
    3032:	82 81       	ldd	r24, Z+2	; 0x02
    3034:	93 81       	ldd	r25, Z+3	; 0x03
    3036:	2b 81       	ldd	r18, Y+3	; 0x03
    3038:	3c 81       	ldd	r19, Y+4	; 0x04
    303a:	f9 01       	movw	r30, r18
    303c:	22 81       	ldd	r18, Z+2	; 0x02
    303e:	33 81       	ldd	r19, Z+3	; 0x03
    3040:	f9 01       	movw	r30, r18
    3042:	21 81       	ldd	r18, Z+1	; 0x01
    3044:	42 2f       	mov	r20, r18
    3046:	48 7f       	andi	r20, 0xF8	; 248
    3048:	29 81       	ldd	r18, Y+1	; 0x01
    304a:	3a 81       	ldd	r19, Y+2	; 0x02
    304c:	27 70       	andi	r18, 0x07	; 7
    304e:	24 2b       	or	r18, r20
    3050:	fc 01       	movw	r30, r24
    3052:	21 83       	std	Z+1, r18	; 0x01
    3054:	80 e0       	ldi	r24, 0x00	; 0
    3056:	90 e0       	ldi	r25, 0x00	; 0
    3058:	26 96       	adiw	r28, 0x06	; 6
    305a:	0f b6       	in	r0, 0x3f	; 63
    305c:	f8 94       	cli
    305e:	de bf       	out	0x3e, r29	; 62
    3060:	0f be       	out	0x3f, r0	; 63
    3062:	cd bf       	out	0x3d, r28	; 61
    3064:	df 91       	pop	r29
    3066:	cf 91       	pop	r28
    3068:	08 95       	ret

0000306a <_ZN5genos3avr5timerIjP12timer16_regsE11set_divcodeEh>:
    306a:	cf 93       	push	r28
    306c:	df 93       	push	r29
    306e:	00 d0       	rcall	.+0      	; 0x3070 <_ZN5genos3avr5timerIjP12timer16_regsE11set_divcodeEh+0x6>
    3070:	cd b7       	in	r28, 0x3d	; 61
    3072:	de b7       	in	r29, 0x3e	; 62
    3074:	9a 83       	std	Y+2, r25	; 0x02
    3076:	89 83       	std	Y+1, r24	; 0x01
    3078:	6b 83       	std	Y+3, r22	; 0x03
    307a:	89 81       	ldd	r24, Y+1	; 0x01
    307c:	9a 81       	ldd	r25, Y+2	; 0x02
    307e:	fc 01       	movw	r30, r24
    3080:	82 81       	ldd	r24, Z+2	; 0x02
    3082:	93 81       	ldd	r25, Z+3	; 0x03
    3084:	29 81       	ldd	r18, Y+1	; 0x01
    3086:	3a 81       	ldd	r19, Y+2	; 0x02
    3088:	f9 01       	movw	r30, r18
    308a:	22 81       	ldd	r18, Z+2	; 0x02
    308c:	33 81       	ldd	r19, Z+3	; 0x03
    308e:	f9 01       	movw	r30, r18
    3090:	21 81       	ldd	r18, Z+1	; 0x01
    3092:	32 2f       	mov	r19, r18
    3094:	38 7f       	andi	r19, 0xF8	; 248
    3096:	2b 81       	ldd	r18, Y+3	; 0x03
    3098:	27 70       	andi	r18, 0x07	; 7
    309a:	23 2b       	or	r18, r19
    309c:	fc 01       	movw	r30, r24
    309e:	21 83       	std	Z+1, r18	; 0x01
    30a0:	80 e0       	ldi	r24, 0x00	; 0
    30a2:	90 e0       	ldi	r25, 0x00	; 0
    30a4:	0f 90       	pop	r0
    30a6:	0f 90       	pop	r0
    30a8:	0f 90       	pop	r0
    30aa:	df 91       	pop	r29
    30ac:	cf 91       	pop	r28
    30ae:	08 95       	ret

000030b0 <_ZN5genos3avr5timerIjP12timer16_regsE14irq_ovf_enableEb>:
    30b0:	cf 93       	push	r28
    30b2:	df 93       	push	r29
    30b4:	00 d0       	rcall	.+0      	; 0x30b6 <_ZN5genos3avr5timerIjP12timer16_regsE14irq_ovf_enableEb+0x6>
    30b6:	cd b7       	in	r28, 0x3d	; 61
    30b8:	de b7       	in	r29, 0x3e	; 62
    30ba:	9a 83       	std	Y+2, r25	; 0x02
    30bc:	89 83       	std	Y+1, r24	; 0x01
    30be:	6b 83       	std	Y+3, r22	; 0x03
    30c0:	89 81       	ldd	r24, Y+1	; 0x01
    30c2:	9a 81       	ldd	r25, Y+2	; 0x02
    30c4:	fc 01       	movw	r30, r24
    30c6:	80 85       	ldd	r24, Z+8	; 0x08
    30c8:	91 85       	ldd	r25, Z+9	; 0x09
    30ca:	29 81       	ldd	r18, Y+1	; 0x01
    30cc:	3a 81       	ldd	r19, Y+2	; 0x02
    30ce:	f9 01       	movw	r30, r18
    30d0:	20 85       	ldd	r18, Z+8	; 0x08
    30d2:	31 85       	ldd	r19, Z+9	; 0x09
    30d4:	f9 01       	movw	r30, r18
    30d6:	20 81       	ld	r18, Z
    30d8:	32 2f       	mov	r19, r18
    30da:	3e 7f       	andi	r19, 0xFE	; 254
    30dc:	2b 81       	ldd	r18, Y+3	; 0x03
    30de:	21 70       	andi	r18, 0x01	; 1
    30e0:	23 2b       	or	r18, r19
    30e2:	fc 01       	movw	r30, r24
    30e4:	20 83       	st	Z, r18
    30e6:	0f 90       	pop	r0
    30e8:	0f 90       	pop	r0
    30ea:	0f 90       	pop	r0
    30ec:	df 91       	pop	r29
    30ee:	cf 91       	pop	r28
    30f0:	08 95       	ret

000030f2 <_ZN5genos3avr5timerIjP12timer16_regsE15set_ovf_handlerEPFvPvES5_>:
    30f2:	cf 93       	push	r28
    30f4:	df 93       	push	r29
    30f6:	00 d0       	rcall	.+0      	; 0x30f8 <_ZN5genos3avr5timerIjP12timer16_regsE15set_ovf_handlerEPFvPvES5_+0x6>
    30f8:	00 d0       	rcall	.+0      	; 0x30fa <_ZN5genos3avr5timerIjP12timer16_regsE15set_ovf_handlerEPFvPvES5_+0x8>
    30fa:	cd b7       	in	r28, 0x3d	; 61
    30fc:	de b7       	in	r29, 0x3e	; 62
    30fe:	9a 83       	std	Y+2, r25	; 0x02
    3100:	89 83       	std	Y+1, r24	; 0x01
    3102:	7c 83       	std	Y+4, r23	; 0x04
    3104:	6b 83       	std	Y+3, r22	; 0x03
    3106:	5e 83       	std	Y+6, r21	; 0x06
    3108:	4d 83       	std	Y+5, r20	; 0x05
    310a:	89 81       	ldd	r24, Y+1	; 0x01
    310c:	9a 81       	ldd	r25, Y+2	; 0x02
    310e:	fc 01       	movw	r30, r24
    3110:	84 81       	ldd	r24, Z+4	; 0x04
    3112:	88 2f       	mov	r24, r24
    3114:	90 e0       	ldi	r25, 0x00	; 0
    3116:	4d 81       	ldd	r20, Y+5	; 0x05
    3118:	5e 81       	ldd	r21, Y+6	; 0x06
    311a:	2b 81       	ldd	r18, Y+3	; 0x03
    311c:	3c 81       	ldd	r19, Y+4	; 0x04
    311e:	b9 01       	movw	r22, r18
    3120:	0e 94 8e 06 	call	0xd1c	; 0xd1c <irqtable_set_handler>
    3124:	26 96       	adiw	r28, 0x06	; 6
    3126:	0f b6       	in	r0, 0x3f	; 63
    3128:	f8 94       	cli
    312a:	de bf       	out	0x3e, r29	; 62
    312c:	0f be       	out	0x3f, r0	; 63
    312e:	cd bf       	out	0x3d, r28	; 61
    3130:	df 91       	pop	r29
    3132:	cf 91       	pop	r28
    3134:	08 95       	ret

00003136 <_ZN5genos3avr5timerIjP12timer16_regsE4typeEv>:
    3136:	cf 93       	push	r28
    3138:	df 93       	push	r29
    313a:	1f 92       	push	r1
    313c:	1f 92       	push	r1
    313e:	cd b7       	in	r28, 0x3d	; 61
    3140:	de b7       	in	r29, 0x3e	; 62
    3142:	9a 83       	std	Y+2, r25	; 0x02
    3144:	89 83       	std	Y+1, r24	; 0x01
    3146:	82 e0       	ldi	r24, 0x02	; 2
    3148:	88 0f       	add	r24, r24
    314a:	88 0f       	add	r24, r24
    314c:	88 0f       	add	r24, r24
    314e:	0f 90       	pop	r0
    3150:	0f 90       	pop	r0
    3152:	df 91       	pop	r29
    3154:	cf 91       	pop	r28
    3156:	08 95       	ret

00003158 <_ZN5genos3avr5timerIjP12timer16_regsE7value16Ev>:
    3158:	cf 93       	push	r28
    315a:	df 93       	push	r29
    315c:	1f 92       	push	r1
    315e:	1f 92       	push	r1
    3160:	cd b7       	in	r28, 0x3d	; 61
    3162:	de b7       	in	r29, 0x3e	; 62
    3164:	9a 83       	std	Y+2, r25	; 0x02
    3166:	89 83       	std	Y+1, r24	; 0x01
    3168:	89 81       	ldd	r24, Y+1	; 0x01
    316a:	9a 81       	ldd	r25, Y+2	; 0x02
    316c:	fc 01       	movw	r30, r24
    316e:	82 81       	ldd	r24, Z+2	; 0x02
    3170:	93 81       	ldd	r25, Z+3	; 0x03
    3172:	fc 01       	movw	r30, r24
    3174:	84 81       	ldd	r24, Z+4	; 0x04
    3176:	95 81       	ldd	r25, Z+5	; 0x05
    3178:	0f 90       	pop	r0
    317a:	0f 90       	pop	r0
    317c:	df 91       	pop	r29
    317e:	cf 91       	pop	r28
    3180:	08 95       	ret

00003182 <_ZN5genos3avr5timerIhP11timer8_regsE11set_dividerEj>:
    3182:	cf 93       	push	r28
    3184:	df 93       	push	r29
    3186:	00 d0       	rcall	.+0      	; 0x3188 <_ZN5genos3avr5timerIhP11timer8_regsE11set_dividerEj+0x6>
    3188:	00 d0       	rcall	.+0      	; 0x318a <_ZN5genos3avr5timerIhP11timer8_regsE11set_dividerEj+0x8>
    318a:	cd b7       	in	r28, 0x3d	; 61
    318c:	de b7       	in	r29, 0x3e	; 62
    318e:	9c 83       	std	Y+4, r25	; 0x04
    3190:	8b 83       	std	Y+3, r24	; 0x03
    3192:	7e 83       	std	Y+6, r23	; 0x06
    3194:	6d 83       	std	Y+5, r22	; 0x05
    3196:	8d 81       	ldd	r24, Y+5	; 0x05
    3198:	9e 81       	ldd	r25, Y+6	; 0x06
    319a:	0e 94 06 16 	call	0x2c0c	; 0x2c0c <_ZN5genos3avrL15tc_divider_codeEj>
    319e:	88 2f       	mov	r24, r24
    31a0:	90 e0       	ldi	r25, 0x00	; 0
    31a2:	9a 83       	std	Y+2, r25	; 0x02
    31a4:	89 83       	std	Y+1, r24	; 0x01
    31a6:	89 81       	ldd	r24, Y+1	; 0x01
    31a8:	9a 81       	ldd	r25, Y+2	; 0x02
    31aa:	99 23       	and	r25, r25
    31ac:	1c f4       	brge	.+6      	; 0x31b4 <_ZN5genos3avr5timerIhP11timer8_regsE11set_dividerEj+0x32>
    31ae:	8f ef       	ldi	r24, 0xFF	; 255
    31b0:	9f ef       	ldi	r25, 0xFF	; 255
    31b2:	16 c0       	rjmp	.+44     	; 0x31e0 <_ZN5genos3avr5timerIhP11timer8_regsE11set_dividerEj+0x5e>
    31b4:	8b 81       	ldd	r24, Y+3	; 0x03
    31b6:	9c 81       	ldd	r25, Y+4	; 0x04
    31b8:	fc 01       	movw	r30, r24
    31ba:	82 81       	ldd	r24, Z+2	; 0x02
    31bc:	93 81       	ldd	r25, Z+3	; 0x03
    31be:	2b 81       	ldd	r18, Y+3	; 0x03
    31c0:	3c 81       	ldd	r19, Y+4	; 0x04
    31c2:	f9 01       	movw	r30, r18
    31c4:	22 81       	ldd	r18, Z+2	; 0x02
    31c6:	33 81       	ldd	r19, Z+3	; 0x03
    31c8:	f9 01       	movw	r30, r18
    31ca:	21 81       	ldd	r18, Z+1	; 0x01
    31cc:	42 2f       	mov	r20, r18
    31ce:	48 7f       	andi	r20, 0xF8	; 248
    31d0:	29 81       	ldd	r18, Y+1	; 0x01
    31d2:	3a 81       	ldd	r19, Y+2	; 0x02
    31d4:	27 70       	andi	r18, 0x07	; 7
    31d6:	24 2b       	or	r18, r20
    31d8:	fc 01       	movw	r30, r24
    31da:	21 83       	std	Z+1, r18	; 0x01
    31dc:	80 e0       	ldi	r24, 0x00	; 0
    31de:	90 e0       	ldi	r25, 0x00	; 0
    31e0:	26 96       	adiw	r28, 0x06	; 6
    31e2:	0f b6       	in	r0, 0x3f	; 63
    31e4:	f8 94       	cli
    31e6:	de bf       	out	0x3e, r29	; 62
    31e8:	0f be       	out	0x3f, r0	; 63
    31ea:	cd bf       	out	0x3d, r28	; 61
    31ec:	df 91       	pop	r29
    31ee:	cf 91       	pop	r28
    31f0:	08 95       	ret

000031f2 <_ZN5genos3avr5timerIhP11timer8_regsE11set_divcodeEh>:
    31f2:	cf 93       	push	r28
    31f4:	df 93       	push	r29
    31f6:	00 d0       	rcall	.+0      	; 0x31f8 <_ZN5genos3avr5timerIhP11timer8_regsE11set_divcodeEh+0x6>
    31f8:	cd b7       	in	r28, 0x3d	; 61
    31fa:	de b7       	in	r29, 0x3e	; 62
    31fc:	9a 83       	std	Y+2, r25	; 0x02
    31fe:	89 83       	std	Y+1, r24	; 0x01
    3200:	6b 83       	std	Y+3, r22	; 0x03
    3202:	89 81       	ldd	r24, Y+1	; 0x01
    3204:	9a 81       	ldd	r25, Y+2	; 0x02
    3206:	fc 01       	movw	r30, r24
    3208:	82 81       	ldd	r24, Z+2	; 0x02
    320a:	93 81       	ldd	r25, Z+3	; 0x03
    320c:	29 81       	ldd	r18, Y+1	; 0x01
    320e:	3a 81       	ldd	r19, Y+2	; 0x02
    3210:	f9 01       	movw	r30, r18
    3212:	22 81       	ldd	r18, Z+2	; 0x02
    3214:	33 81       	ldd	r19, Z+3	; 0x03
    3216:	f9 01       	movw	r30, r18
    3218:	21 81       	ldd	r18, Z+1	; 0x01
    321a:	32 2f       	mov	r19, r18
    321c:	38 7f       	andi	r19, 0xF8	; 248
    321e:	2b 81       	ldd	r18, Y+3	; 0x03
    3220:	27 70       	andi	r18, 0x07	; 7
    3222:	23 2b       	or	r18, r19
    3224:	fc 01       	movw	r30, r24
    3226:	21 83       	std	Z+1, r18	; 0x01
    3228:	80 e0       	ldi	r24, 0x00	; 0
    322a:	90 e0       	ldi	r25, 0x00	; 0
    322c:	0f 90       	pop	r0
    322e:	0f 90       	pop	r0
    3230:	0f 90       	pop	r0
    3232:	df 91       	pop	r29
    3234:	cf 91       	pop	r28
    3236:	08 95       	ret

00003238 <_ZN5genos3avr5timerIhP11timer8_regsE14irq_ovf_enableEb>:
    3238:	cf 93       	push	r28
    323a:	df 93       	push	r29
    323c:	00 d0       	rcall	.+0      	; 0x323e <_ZN5genos3avr5timerIhP11timer8_regsE14irq_ovf_enableEb+0x6>
    323e:	cd b7       	in	r28, 0x3d	; 61
    3240:	de b7       	in	r29, 0x3e	; 62
    3242:	9a 83       	std	Y+2, r25	; 0x02
    3244:	89 83       	std	Y+1, r24	; 0x01
    3246:	6b 83       	std	Y+3, r22	; 0x03
    3248:	89 81       	ldd	r24, Y+1	; 0x01
    324a:	9a 81       	ldd	r25, Y+2	; 0x02
    324c:	fc 01       	movw	r30, r24
    324e:	80 85       	ldd	r24, Z+8	; 0x08
    3250:	91 85       	ldd	r25, Z+9	; 0x09
    3252:	29 81       	ldd	r18, Y+1	; 0x01
    3254:	3a 81       	ldd	r19, Y+2	; 0x02
    3256:	f9 01       	movw	r30, r18
    3258:	20 85       	ldd	r18, Z+8	; 0x08
    325a:	31 85       	ldd	r19, Z+9	; 0x09
    325c:	f9 01       	movw	r30, r18
    325e:	20 81       	ld	r18, Z
    3260:	32 2f       	mov	r19, r18
    3262:	3e 7f       	andi	r19, 0xFE	; 254
    3264:	2b 81       	ldd	r18, Y+3	; 0x03
    3266:	21 70       	andi	r18, 0x01	; 1
    3268:	23 2b       	or	r18, r19
    326a:	fc 01       	movw	r30, r24
    326c:	20 83       	st	Z, r18
    326e:	0f 90       	pop	r0
    3270:	0f 90       	pop	r0
    3272:	0f 90       	pop	r0
    3274:	df 91       	pop	r29
    3276:	cf 91       	pop	r28
    3278:	08 95       	ret

0000327a <_ZN5genos3avr5timerIhP11timer8_regsE15set_ovf_handlerEPFvPvES5_>:
    327a:	cf 93       	push	r28
    327c:	df 93       	push	r29
    327e:	00 d0       	rcall	.+0      	; 0x3280 <_ZN5genos3avr5timerIhP11timer8_regsE15set_ovf_handlerEPFvPvES5_+0x6>
    3280:	00 d0       	rcall	.+0      	; 0x3282 <_ZN5genos3avr5timerIhP11timer8_regsE15set_ovf_handlerEPFvPvES5_+0x8>
    3282:	cd b7       	in	r28, 0x3d	; 61
    3284:	de b7       	in	r29, 0x3e	; 62
    3286:	9a 83       	std	Y+2, r25	; 0x02
    3288:	89 83       	std	Y+1, r24	; 0x01
    328a:	7c 83       	std	Y+4, r23	; 0x04
    328c:	6b 83       	std	Y+3, r22	; 0x03
    328e:	5e 83       	std	Y+6, r21	; 0x06
    3290:	4d 83       	std	Y+5, r20	; 0x05
    3292:	89 81       	ldd	r24, Y+1	; 0x01
    3294:	9a 81       	ldd	r25, Y+2	; 0x02
    3296:	fc 01       	movw	r30, r24
    3298:	84 81       	ldd	r24, Z+4	; 0x04
    329a:	88 2f       	mov	r24, r24
    329c:	90 e0       	ldi	r25, 0x00	; 0
    329e:	4d 81       	ldd	r20, Y+5	; 0x05
    32a0:	5e 81       	ldd	r21, Y+6	; 0x06
    32a2:	2b 81       	ldd	r18, Y+3	; 0x03
    32a4:	3c 81       	ldd	r19, Y+4	; 0x04
    32a6:	b9 01       	movw	r22, r18
    32a8:	0e 94 8e 06 	call	0xd1c	; 0xd1c <irqtable_set_handler>
    32ac:	26 96       	adiw	r28, 0x06	; 6
    32ae:	0f b6       	in	r0, 0x3f	; 63
    32b0:	f8 94       	cli
    32b2:	de bf       	out	0x3e, r29	; 62
    32b4:	0f be       	out	0x3f, r0	; 63
    32b6:	cd bf       	out	0x3d, r28	; 61
    32b8:	df 91       	pop	r29
    32ba:	cf 91       	pop	r28
    32bc:	08 95       	ret

000032be <_ZN5genos3avr5timerIhP11timer8_regsE4typeEv>:
    32be:	cf 93       	push	r28
    32c0:	df 93       	push	r29
    32c2:	1f 92       	push	r1
    32c4:	1f 92       	push	r1
    32c6:	cd b7       	in	r28, 0x3d	; 61
    32c8:	de b7       	in	r29, 0x3e	; 62
    32ca:	9a 83       	std	Y+2, r25	; 0x02
    32cc:	89 83       	std	Y+1, r24	; 0x01
    32ce:	81 e0       	ldi	r24, 0x01	; 1
    32d0:	88 0f       	add	r24, r24
    32d2:	88 0f       	add	r24, r24
    32d4:	88 0f       	add	r24, r24
    32d6:	0f 90       	pop	r0
    32d8:	0f 90       	pop	r0
    32da:	df 91       	pop	r29
    32dc:	cf 91       	pop	r28
    32de:	08 95       	ret

000032e0 <_ZN5genos3avr5timerIhP11timer8_regsE7value16Ev>:
    32e0:	cf 93       	push	r28
    32e2:	df 93       	push	r29
    32e4:	1f 92       	push	r1
    32e6:	1f 92       	push	r1
    32e8:	cd b7       	in	r28, 0x3d	; 61
    32ea:	de b7       	in	r29, 0x3e	; 62
    32ec:	9a 83       	std	Y+2, r25	; 0x02
    32ee:	89 83       	std	Y+1, r24	; 0x01
    32f0:	89 81       	ldd	r24, Y+1	; 0x01
    32f2:	9a 81       	ldd	r25, Y+2	; 0x02
    32f4:	fc 01       	movw	r30, r24
    32f6:	82 81       	ldd	r24, Z+2	; 0x02
    32f8:	93 81       	ldd	r25, Z+3	; 0x03
    32fa:	fc 01       	movw	r30, r24
    32fc:	82 81       	ldd	r24, Z+2	; 0x02
    32fe:	88 2f       	mov	r24, r24
    3300:	90 e0       	ldi	r25, 0x00	; 0
    3302:	0f 90       	pop	r0
    3304:	0f 90       	pop	r0
    3306:	df 91       	pop	r29
    3308:	cf 91       	pop	r28
    330a:	08 95       	ret

0000330c <_GLOBAL__sub_I__ZN5genos3avr6timer0E>:
    330c:	cf 93       	push	r28
    330e:	df 93       	push	r29
    3310:	cd b7       	in	r28, 0x3d	; 61
    3312:	de b7       	in	r29, 0x3e	; 62
    3314:	6f ef       	ldi	r22, 0xFF	; 255
    3316:	7f ef       	ldi	r23, 0xFF	; 255
    3318:	81 e0       	ldi	r24, 0x01	; 1
    331a:	90 e0       	ldi	r25, 0x00	; 0
    331c:	0e 94 40 17 	call	0x2e80	; 0x2e80 <_Z41__static_initialization_and_destruction_0ii>
    3320:	df 91       	pop	r29
    3322:	cf 91       	pop	r28
    3324:	08 95       	ret

00003326 <_ZL19usart_regs_sendbyteP10usart_regsc.lto_priv.88>:
    3326:	cf 93       	push	r28
    3328:	df 93       	push	r29
    332a:	00 d0       	rcall	.+0      	; 0x332c <_ZL19usart_regs_sendbyteP10usart_regsc.lto_priv.88+0x6>
    332c:	cd b7       	in	r28, 0x3d	; 61
    332e:	de b7       	in	r29, 0x3e	; 62
    3330:	9a 83       	std	Y+2, r25	; 0x02
    3332:	89 83       	std	Y+1, r24	; 0x01
    3334:	6b 83       	std	Y+3, r22	; 0x03
    3336:	2b 81       	ldd	r18, Y+3	; 0x03
    3338:	89 81       	ldd	r24, Y+1	; 0x01
    333a:	9a 81       	ldd	r25, Y+2	; 0x02
    333c:	fc 01       	movw	r30, r24
    333e:	26 83       	std	Z+6, r18	; 0x06
    3340:	81 e0       	ldi	r24, 0x01	; 1
    3342:	90 e0       	ldi	r25, 0x00	; 0
    3344:	0f 90       	pop	r0
    3346:	0f 90       	pop	r0
    3348:	0f 90       	pop	r0
    334a:	df 91       	pop	r29
    334c:	cf 91       	pop	r28
    334e:	08 95       	ret

00003350 <_ZL19usart_regs_recvbyteP10usart_regs.lto_priv.89>:
    3350:	cf 93       	push	r28
    3352:	df 93       	push	r29
    3354:	1f 92       	push	r1
    3356:	1f 92       	push	r1
    3358:	cd b7       	in	r28, 0x3d	; 61
    335a:	de b7       	in	r29, 0x3e	; 62
    335c:	9a 83       	std	Y+2, r25	; 0x02
    335e:	89 83       	std	Y+1, r24	; 0x01
    3360:	89 81       	ldd	r24, Y+1	; 0x01
    3362:	9a 81       	ldd	r25, Y+2	; 0x02
    3364:	fc 01       	movw	r30, r24
    3366:	86 81       	ldd	r24, Z+6	; 0x06
    3368:	88 2f       	mov	r24, r24
    336a:	90 e0       	ldi	r25, 0x00	; 0
    336c:	0f 90       	pop	r0
    336e:	0f 90       	pop	r0
    3370:	df 91       	pop	r29
    3372:	cf 91       	pop	r28
    3374:	08 95       	ret

00003376 <_ZL18usart_regs_cansendP10usart_regs.lto_priv.87>:
    3376:	cf 93       	push	r28
    3378:	df 93       	push	r29
    337a:	1f 92       	push	r1
    337c:	1f 92       	push	r1
    337e:	cd b7       	in	r28, 0x3d	; 61
    3380:	de b7       	in	r29, 0x3e	; 62
    3382:	9a 83       	std	Y+2, r25	; 0x02
    3384:	89 83       	std	Y+1, r24	; 0x01
    3386:	89 81       	ldd	r24, Y+1	; 0x01
    3388:	9a 81       	ldd	r25, Y+2	; 0x02
    338a:	fc 01       	movw	r30, r24
    338c:	80 81       	ld	r24, Z
    338e:	88 2f       	mov	r24, r24
    3390:	90 e0       	ldi	r25, 0x00	; 0
    3392:	80 78       	andi	r24, 0x80	; 128
    3394:	99 27       	eor	r25, r25
    3396:	0f 90       	pop	r0
    3398:	0f 90       	pop	r0
    339a:	df 91       	pop	r29
    339c:	cf 91       	pop	r28
    339e:	08 95       	ret

000033a0 <_ZL18usart_regs_canrecvP10usart_regs.lto_priv.86>:
    33a0:	cf 93       	push	r28
    33a2:	df 93       	push	r29
    33a4:	1f 92       	push	r1
    33a6:	1f 92       	push	r1
    33a8:	cd b7       	in	r28, 0x3d	; 61
    33aa:	de b7       	in	r29, 0x3e	; 62
    33ac:	9a 83       	std	Y+2, r25	; 0x02
    33ae:	89 83       	std	Y+1, r24	; 0x01
    33b0:	89 81       	ldd	r24, Y+1	; 0x01
    33b2:	9a 81       	ldd	r25, Y+2	; 0x02
    33b4:	fc 01       	movw	r30, r24
    33b6:	80 81       	ld	r24, Z
    33b8:	88 2f       	mov	r24, r24
    33ba:	90 e0       	ldi	r25, 0x00	; 0
    33bc:	80 72       	andi	r24, 0x20	; 32
    33be:	99 27       	eor	r25, r25
    33c0:	0f 90       	pop	r0
    33c2:	0f 90       	pop	r0
    33c4:	df 91       	pop	r29
    33c6:	cf 91       	pop	r28
    33c8:	08 95       	ret

000033ca <_ZL20usart_regs_enable_rxP10usart_regsi.lto_priv.84>:
    33ca:	cf 93       	push	r28
    33cc:	df 93       	push	r29
    33ce:	00 d0       	rcall	.+0      	; 0x33d0 <_ZL20usart_regs_enable_rxP10usart_regsi.lto_priv.84+0x6>
    33d0:	1f 92       	push	r1
    33d2:	cd b7       	in	r28, 0x3d	; 61
    33d4:	de b7       	in	r29, 0x3e	; 62
    33d6:	9a 83       	std	Y+2, r25	; 0x02
    33d8:	89 83       	std	Y+1, r24	; 0x01
    33da:	7c 83       	std	Y+4, r23	; 0x04
    33dc:	6b 83       	std	Y+3, r22	; 0x03
    33de:	8b 81       	ldd	r24, Y+3	; 0x03
    33e0:	9c 81       	ldd	r25, Y+4	; 0x04
    33e2:	89 2b       	or	r24, r25
    33e4:	39 f0       	breq	.+14     	; 0x33f4 <_ZL20usart_regs_enable_rxP10usart_regsi.lto_priv.84+0x2a>
    33e6:	89 81       	ldd	r24, Y+1	; 0x01
    33e8:	9a 81       	ldd	r25, Y+2	; 0x02
    33ea:	fc 01       	movw	r30, r24
    33ec:	81 81       	ldd	r24, Z+1	; 0x01
    33ee:	28 2f       	mov	r18, r24
    33f0:	20 61       	ori	r18, 0x10	; 16
    33f2:	06 c0       	rjmp	.+12     	; 0x3400 <_ZL20usart_regs_enable_rxP10usart_regsi.lto_priv.84+0x36>
    33f4:	89 81       	ldd	r24, Y+1	; 0x01
    33f6:	9a 81       	ldd	r25, Y+2	; 0x02
    33f8:	fc 01       	movw	r30, r24
    33fa:	81 81       	ldd	r24, Z+1	; 0x01
    33fc:	28 2f       	mov	r18, r24
    33fe:	2f 7e       	andi	r18, 0xEF	; 239
    3400:	89 81       	ldd	r24, Y+1	; 0x01
    3402:	9a 81       	ldd	r25, Y+2	; 0x02
    3404:	fc 01       	movw	r30, r24
    3406:	21 83       	std	Z+1, r18	; 0x01
    3408:	0f 90       	pop	r0
    340a:	0f 90       	pop	r0
    340c:	0f 90       	pop	r0
    340e:	0f 90       	pop	r0
    3410:	df 91       	pop	r29
    3412:	cf 91       	pop	r28
    3414:	08 95       	ret

00003416 <_ZL20usart_regs_enable_txP10usart_regsi.lto_priv.85>:
    3416:	cf 93       	push	r28
    3418:	df 93       	push	r29
    341a:	00 d0       	rcall	.+0      	; 0x341c <_ZL20usart_regs_enable_txP10usart_regsi.lto_priv.85+0x6>
    341c:	1f 92       	push	r1
    341e:	cd b7       	in	r28, 0x3d	; 61
    3420:	de b7       	in	r29, 0x3e	; 62
    3422:	9a 83       	std	Y+2, r25	; 0x02
    3424:	89 83       	std	Y+1, r24	; 0x01
    3426:	7c 83       	std	Y+4, r23	; 0x04
    3428:	6b 83       	std	Y+3, r22	; 0x03
    342a:	8b 81       	ldd	r24, Y+3	; 0x03
    342c:	9c 81       	ldd	r25, Y+4	; 0x04
    342e:	89 2b       	or	r24, r25
    3430:	39 f0       	breq	.+14     	; 0x3440 <_ZL20usart_regs_enable_txP10usart_regsi.lto_priv.85+0x2a>
    3432:	89 81       	ldd	r24, Y+1	; 0x01
    3434:	9a 81       	ldd	r25, Y+2	; 0x02
    3436:	fc 01       	movw	r30, r24
    3438:	81 81       	ldd	r24, Z+1	; 0x01
    343a:	28 2f       	mov	r18, r24
    343c:	28 60       	ori	r18, 0x08	; 8
    343e:	06 c0       	rjmp	.+12     	; 0x344c <_ZL20usart_regs_enable_txP10usart_regsi.lto_priv.85+0x36>
    3440:	89 81       	ldd	r24, Y+1	; 0x01
    3442:	9a 81       	ldd	r25, Y+2	; 0x02
    3444:	fc 01       	movw	r30, r24
    3446:	81 81       	ldd	r24, Z+1	; 0x01
    3448:	28 2f       	mov	r18, r24
    344a:	27 7f       	andi	r18, 0xF7	; 247
    344c:	89 81       	ldd	r24, Y+1	; 0x01
    344e:	9a 81       	ldd	r25, Y+2	; 0x02
    3450:	fc 01       	movw	r30, r24
    3452:	21 83       	std	Z+1, r18	; 0x01
    3454:	0f 90       	pop	r0
    3456:	0f 90       	pop	r0
    3458:	0f 90       	pop	r0
    345a:	0f 90       	pop	r0
    345c:	df 91       	pop	r29
    345e:	cf 91       	pop	r28
    3460:	08 95       	ret

00003462 <_ZL16usart_regs_rxirqP10usart_regsi.lto_priv.82>:
    3462:	cf 93       	push	r28
    3464:	df 93       	push	r29
    3466:	00 d0       	rcall	.+0      	; 0x3468 <_ZL16usart_regs_rxirqP10usart_regsi.lto_priv.82+0x6>
    3468:	1f 92       	push	r1
    346a:	cd b7       	in	r28, 0x3d	; 61
    346c:	de b7       	in	r29, 0x3e	; 62
    346e:	9a 83       	std	Y+2, r25	; 0x02
    3470:	89 83       	std	Y+1, r24	; 0x01
    3472:	7c 83       	std	Y+4, r23	; 0x04
    3474:	6b 83       	std	Y+3, r22	; 0x03
    3476:	8b 81       	ldd	r24, Y+3	; 0x03
    3478:	9c 81       	ldd	r25, Y+4	; 0x04
    347a:	89 2b       	or	r24, r25
    347c:	39 f0       	breq	.+14     	; 0x348c <_ZL16usart_regs_rxirqP10usart_regsi.lto_priv.82+0x2a>
    347e:	89 81       	ldd	r24, Y+1	; 0x01
    3480:	9a 81       	ldd	r25, Y+2	; 0x02
    3482:	fc 01       	movw	r30, r24
    3484:	81 81       	ldd	r24, Z+1	; 0x01
    3486:	28 2f       	mov	r18, r24
    3488:	20 68       	ori	r18, 0x80	; 128
    348a:	06 c0       	rjmp	.+12     	; 0x3498 <_ZL16usart_regs_rxirqP10usart_regsi.lto_priv.82+0x36>
    348c:	89 81       	ldd	r24, Y+1	; 0x01
    348e:	9a 81       	ldd	r25, Y+2	; 0x02
    3490:	fc 01       	movw	r30, r24
    3492:	81 81       	ldd	r24, Z+1	; 0x01
    3494:	28 2f       	mov	r18, r24
    3496:	2f 77       	andi	r18, 0x7F	; 127
    3498:	89 81       	ldd	r24, Y+1	; 0x01
    349a:	9a 81       	ldd	r25, Y+2	; 0x02
    349c:	fc 01       	movw	r30, r24
    349e:	21 83       	std	Z+1, r18	; 0x01
    34a0:	0f 90       	pop	r0
    34a2:	0f 90       	pop	r0
    34a4:	0f 90       	pop	r0
    34a6:	0f 90       	pop	r0
    34a8:	df 91       	pop	r29
    34aa:	cf 91       	pop	r28
    34ac:	08 95       	ret

000034ae <_ZL16usart_regs_txirqP10usart_regsi.lto_priv.91>:
    34ae:	cf 93       	push	r28
    34b0:	df 93       	push	r29
    34b2:	00 d0       	rcall	.+0      	; 0x34b4 <_ZL16usart_regs_txirqP10usart_regsi.lto_priv.91+0x6>
    34b4:	1f 92       	push	r1
    34b6:	cd b7       	in	r28, 0x3d	; 61
    34b8:	de b7       	in	r29, 0x3e	; 62
    34ba:	9a 83       	std	Y+2, r25	; 0x02
    34bc:	89 83       	std	Y+1, r24	; 0x01
    34be:	7c 83       	std	Y+4, r23	; 0x04
    34c0:	6b 83       	std	Y+3, r22	; 0x03
    34c2:	8b 81       	ldd	r24, Y+3	; 0x03
    34c4:	9c 81       	ldd	r25, Y+4	; 0x04
    34c6:	89 2b       	or	r24, r25
    34c8:	39 f0       	breq	.+14     	; 0x34d8 <_ZL16usart_regs_txirqP10usart_regsi.lto_priv.91+0x2a>
    34ca:	89 81       	ldd	r24, Y+1	; 0x01
    34cc:	9a 81       	ldd	r25, Y+2	; 0x02
    34ce:	fc 01       	movw	r30, r24
    34d0:	81 81       	ldd	r24, Z+1	; 0x01
    34d2:	28 2f       	mov	r18, r24
    34d4:	20 62       	ori	r18, 0x20	; 32
    34d6:	06 c0       	rjmp	.+12     	; 0x34e4 <_ZL16usart_regs_txirqP10usart_regsi.lto_priv.91+0x36>
    34d8:	89 81       	ldd	r24, Y+1	; 0x01
    34da:	9a 81       	ldd	r25, Y+2	; 0x02
    34dc:	fc 01       	movw	r30, r24
    34de:	81 81       	ldd	r24, Z+1	; 0x01
    34e0:	28 2f       	mov	r18, r24
    34e2:	2f 7d       	andi	r18, 0xDF	; 223
    34e4:	89 81       	ldd	r24, Y+1	; 0x01
    34e6:	9a 81       	ldd	r25, Y+2	; 0x02
    34e8:	fc 01       	movw	r30, r24
    34ea:	21 83       	std	Z+1, r18	; 0x01
    34ec:	0f 90       	pop	r0
    34ee:	0f 90       	pop	r0
    34f0:	0f 90       	pop	r0
    34f2:	0f 90       	pop	r0
    34f4:	df 91       	pop	r29
    34f6:	cf 91       	pop	r28
    34f8:	08 95       	ret

000034fa <_ZL16usart_regs_tcirqP10usart_regsi.lto_priv.90>:
    34fa:	cf 93       	push	r28
    34fc:	df 93       	push	r29
    34fe:	00 d0       	rcall	.+0      	; 0x3500 <_ZL16usart_regs_tcirqP10usart_regsi.lto_priv.90+0x6>
    3500:	1f 92       	push	r1
    3502:	cd b7       	in	r28, 0x3d	; 61
    3504:	de b7       	in	r29, 0x3e	; 62
    3506:	9a 83       	std	Y+2, r25	; 0x02
    3508:	89 83       	std	Y+1, r24	; 0x01
    350a:	7c 83       	std	Y+4, r23	; 0x04
    350c:	6b 83       	std	Y+3, r22	; 0x03
    350e:	8b 81       	ldd	r24, Y+3	; 0x03
    3510:	9c 81       	ldd	r25, Y+4	; 0x04
    3512:	89 2b       	or	r24, r25
    3514:	39 f0       	breq	.+14     	; 0x3524 <_ZL16usart_regs_tcirqP10usart_regsi.lto_priv.90+0x2a>
    3516:	89 81       	ldd	r24, Y+1	; 0x01
    3518:	9a 81       	ldd	r25, Y+2	; 0x02
    351a:	fc 01       	movw	r30, r24
    351c:	81 81       	ldd	r24, Z+1	; 0x01
    351e:	28 2f       	mov	r18, r24
    3520:	20 64       	ori	r18, 0x40	; 64
    3522:	06 c0       	rjmp	.+12     	; 0x3530 <_ZL16usart_regs_tcirqP10usart_regsi.lto_priv.90+0x36>
    3524:	89 81       	ldd	r24, Y+1	; 0x01
    3526:	9a 81       	ldd	r25, Y+2	; 0x02
    3528:	fc 01       	movw	r30, r24
    352a:	81 81       	ldd	r24, Z+1	; 0x01
    352c:	28 2f       	mov	r18, r24
    352e:	2f 7b       	andi	r18, 0xBF	; 191
    3530:	89 81       	ldd	r24, Y+1	; 0x01
    3532:	9a 81       	ldd	r25, Y+2	; 0x02
    3534:	fc 01       	movw	r30, r24
    3536:	21 83       	std	Z+1, r18	; 0x01
    3538:	0f 90       	pop	r0
    353a:	0f 90       	pop	r0
    353c:	0f 90       	pop	r0
    353e:	0f 90       	pop	r0
    3540:	df 91       	pop	r29
    3542:	cf 91       	pop	r28
    3544:	08 95       	ret

00003546 <_ZL16usart_regs_setupP10usart_regslchh.lto_priv.83>:
    3546:	ef 92       	push	r14
    3548:	0f 93       	push	r16
    354a:	cf 93       	push	r28
    354c:	df 93       	push	r29
    354e:	cd b7       	in	r28, 0x3d	; 61
    3550:	de b7       	in	r29, 0x3e	; 62
    3552:	2b 97       	sbiw	r28, 0x0b	; 11
    3554:	0f b6       	in	r0, 0x3f	; 63
    3556:	f8 94       	cli
    3558:	de bf       	out	0x3e, r29	; 62
    355a:	0f be       	out	0x3f, r0	; 63
    355c:	cd bf       	out	0x3d, r28	; 61
    355e:	9c 83       	std	Y+4, r25	; 0x04
    3560:	8b 83       	std	Y+3, r24	; 0x03
    3562:	4d 83       	std	Y+5, r20	; 0x05
    3564:	5e 83       	std	Y+6, r21	; 0x06
    3566:	6f 83       	std	Y+7, r22	; 0x07
    3568:	78 87       	std	Y+8, r23	; 0x08
    356a:	29 87       	std	Y+9, r18	; 0x09
    356c:	0a 87       	std	Y+10, r16	; 0x0a
    356e:	eb 86       	std	Y+11, r14	; 0x0b
    3570:	8b 81       	ldd	r24, Y+3	; 0x03
    3572:	9c 81       	ldd	r25, Y+4	; 0x04
    3574:	fc 01       	movw	r30, r24
    3576:	80 81       	ld	r24, Z
    3578:	28 2f       	mov	r18, r24
    357a:	22 60       	ori	r18, 0x02	; 2
    357c:	8b 81       	ldd	r24, Y+3	; 0x03
    357e:	9c 81       	ldd	r25, Y+4	; 0x04
    3580:	fc 01       	movw	r30, r24
    3582:	20 83       	st	Z, r18
    3584:	80 e0       	ldi	r24, 0x00	; 0
    3586:	99 e0       	ldi	r25, 0x09	; 9
    3588:	ad e3       	ldi	r26, 0x3D	; 61
    358a:	b0 e0       	ldi	r27, 0x00	; 0
    358c:	2d 81       	ldd	r18, Y+5	; 0x05
    358e:	3e 81       	ldd	r19, Y+6	; 0x06
    3590:	4f 81       	ldd	r20, Y+7	; 0x07
    3592:	58 85       	ldd	r21, Y+8	; 0x08
    3594:	bc 01       	movw	r22, r24
    3596:	cd 01       	movw	r24, r26
    3598:	0e 94 96 21 	call	0x432c	; 0x432c <__divmodsi4>
    359c:	da 01       	movw	r26, r20
    359e:	c9 01       	movw	r24, r18
    35a0:	01 97       	sbiw	r24, 0x01	; 1
    35a2:	a1 09       	sbc	r26, r1
    35a4:	b1 09       	sbc	r27, r1
    35a6:	bb 23       	and	r27, r27
    35a8:	1c f4       	brge	.+6      	; 0x35b0 <_ZL16usart_regs_setupP10usart_regslchh.lto_priv.83+0x6a>
    35aa:	01 96       	adiw	r24, 0x01	; 1
    35ac:	a1 1d       	adc	r26, r1
    35ae:	b1 1d       	adc	r27, r1
    35b0:	b5 95       	asr	r27
    35b2:	a7 95       	ror	r26
    35b4:	97 95       	ror	r25
    35b6:	87 95       	ror	r24
    35b8:	9a 83       	std	Y+2, r25	; 0x02
    35ba:	89 83       	std	Y+1, r24	; 0x01
    35bc:	89 81       	ldd	r24, Y+1	; 0x01
    35be:	9a 81       	ldd	r25, Y+2	; 0x02
    35c0:	89 2f       	mov	r24, r25
    35c2:	99 27       	eor	r25, r25
    35c4:	28 2f       	mov	r18, r24
    35c6:	8b 81       	ldd	r24, Y+3	; 0x03
    35c8:	9c 81       	ldd	r25, Y+4	; 0x04
    35ca:	fc 01       	movw	r30, r24
    35cc:	25 83       	std	Z+5, r18	; 0x05
    35ce:	29 81       	ldd	r18, Y+1	; 0x01
    35d0:	8b 81       	ldd	r24, Y+3	; 0x03
    35d2:	9c 81       	ldd	r25, Y+4	; 0x04
    35d4:	fc 01       	movw	r30, r24
    35d6:	24 83       	std	Z+4, r18	; 0x04
    35d8:	2b 96       	adiw	r28, 0x0b	; 11
    35da:	0f b6       	in	r0, 0x3f	; 63
    35dc:	f8 94       	cli
    35de:	de bf       	out	0x3e, r29	; 62
    35e0:	0f be       	out	0x3f, r0	; 63
    35e2:	cd bf       	out	0x3d, r28	; 61
    35e4:	df 91       	pop	r29
    35e6:	cf 91       	pop	r28
    35e8:	0f 91       	pop	r16
    35ea:	ef 90       	pop	r14
    35ec:	08 95       	ret

000035ee <cpu_delay.lto_priv.92>:
    35ee:	af 92       	push	r10
    35f0:	bf 92       	push	r11
    35f2:	cf 92       	push	r12
    35f4:	df 92       	push	r13
    35f6:	ef 92       	push	r14
    35f8:	ff 92       	push	r15
    35fa:	0f 93       	push	r16
    35fc:	1f 93       	push	r17
    35fe:	cf 93       	push	r28
    3600:	df 93       	push	r29
    3602:	cd b7       	in	r28, 0x3d	; 61
    3604:	de b7       	in	r29, 0x3e	; 62
    3606:	60 97       	sbiw	r28, 0x10	; 16
    3608:	0f b6       	in	r0, 0x3f	; 63
    360a:	f8 94       	cli
    360c:	de bf       	out	0x3e, r29	; 62
    360e:	0f be       	out	0x3f, r0	; 63
    3610:	cd bf       	out	0x3d, r28	; 61
    3612:	29 87       	std	Y+9, r18	; 0x09
    3614:	3a 87       	std	Y+10, r19	; 0x0a
    3616:	4b 87       	std	Y+11, r20	; 0x0b
    3618:	5c 87       	std	Y+12, r21	; 0x0c
    361a:	6d 87       	std	Y+13, r22	; 0x0d
    361c:	7e 87       	std	Y+14, r23	; 0x0e
    361e:	8f 87       	std	Y+15, r24	; 0x0f
    3620:	98 8b       	std	Y+16, r25	; 0x10
    3622:	89 85       	ldd	r24, Y+9	; 0x09
    3624:	89 83       	std	Y+1, r24	; 0x01
    3626:	8a 85       	ldd	r24, Y+10	; 0x0a
    3628:	8a 83       	std	Y+2, r24	; 0x02
    362a:	8b 85       	ldd	r24, Y+11	; 0x0b
    362c:	8b 83       	std	Y+3, r24	; 0x03
    362e:	8c 85       	ldd	r24, Y+12	; 0x0c
    3630:	8c 83       	std	Y+4, r24	; 0x04
    3632:	8d 85       	ldd	r24, Y+13	; 0x0d
    3634:	8d 83       	std	Y+5, r24	; 0x05
    3636:	8e 85       	ldd	r24, Y+14	; 0x0e
    3638:	8e 83       	std	Y+6, r24	; 0x06
    363a:	8f 85       	ldd	r24, Y+15	; 0x0f
    363c:	8f 83       	std	Y+7, r24	; 0x07
    363e:	88 89       	ldd	r24, Y+16	; 0x10
    3640:	88 87       	std	Y+8, r24	; 0x08
    3642:	a9 80       	ldd	r10, Y+1	; 0x01
    3644:	ba 80       	ldd	r11, Y+2	; 0x02
    3646:	cb 80       	ldd	r12, Y+3	; 0x03
    3648:	dc 80       	ldd	r13, Y+4	; 0x04
    364a:	ed 80       	ldd	r14, Y+5	; 0x05
    364c:	fe 80       	ldd	r15, Y+6	; 0x06
    364e:	0f 81       	ldd	r16, Y+7	; 0x07
    3650:	18 85       	ldd	r17, Y+8	; 0x08
    3652:	2a 2d       	mov	r18, r10
    3654:	3b 2d       	mov	r19, r11
    3656:	4c 2d       	mov	r20, r12
    3658:	5d 2d       	mov	r21, r13
    365a:	6e 2d       	mov	r22, r14
    365c:	7f 2d       	mov	r23, r15
    365e:	80 2f       	mov	r24, r16
    3660:	91 2f       	mov	r25, r17
    3662:	af ef       	ldi	r26, 0xFF	; 255
    3664:	0e 94 24 22 	call	0x4448	; 0x4448 <__adddi3_s8>
    3668:	a2 2e       	mov	r10, r18
    366a:	b3 2e       	mov	r11, r19
    366c:	c4 2e       	mov	r12, r20
    366e:	d5 2e       	mov	r13, r21
    3670:	e6 2e       	mov	r14, r22
    3672:	f7 2e       	mov	r15, r23
    3674:	08 2f       	mov	r16, r24
    3676:	19 2f       	mov	r17, r25
    3678:	a9 82       	std	Y+1, r10	; 0x01
    367a:	ba 82       	std	Y+2, r11	; 0x02
    367c:	cb 82       	std	Y+3, r12	; 0x03
    367e:	dc 82       	std	Y+4, r13	; 0x04
    3680:	ed 82       	std	Y+5, r14	; 0x05
    3682:	fe 82       	std	Y+6, r15	; 0x06
    3684:	0f 83       	std	Y+7, r16	; 0x07
    3686:	18 87       	std	Y+8, r17	; 0x08
    3688:	e1 e0       	ldi	r30, 0x01	; 1
    368a:	2a 2d       	mov	r18, r10
    368c:	3b 2d       	mov	r19, r11
    368e:	4c 2d       	mov	r20, r12
    3690:	5d 2d       	mov	r21, r13
    3692:	6e 2d       	mov	r22, r14
    3694:	7f 2d       	mov	r23, r15
    3696:	80 2f       	mov	r24, r16
    3698:	91 2f       	mov	r25, r17
    369a:	a0 e0       	ldi	r26, 0x00	; 0
    369c:	0e 94 30 22 	call	0x4460	; 0x4460 <__cmpdi2_s8>
    36a0:	09 f4       	brne	.+2      	; 0x36a4 <cpu_delay.lto_priv.92+0xb6>
    36a2:	e0 e0       	ldi	r30, 0x00	; 0
    36a4:	ee 23       	and	r30, r30
    36a6:	69 f6       	brne	.-102    	; 0x3642 <cpu_delay.lto_priv.92+0x54>
    36a8:	60 96       	adiw	r28, 0x10	; 16
    36aa:	0f b6       	in	r0, 0x3f	; 63
    36ac:	f8 94       	cli
    36ae:	de bf       	out	0x3e, r29	; 62
    36b0:	0f be       	out	0x3f, r0	; 63
    36b2:	cd bf       	out	0x3d, r28	; 61
    36b4:	df 91       	pop	r29
    36b6:	cf 91       	pop	r28
    36b8:	1f 91       	pop	r17
    36ba:	0f 91       	pop	r16
    36bc:	ff 90       	pop	r15
    36be:	ef 90       	pop	r14
    36c0:	df 90       	pop	r13
    36c2:	cf 90       	pop	r12
    36c4:	bf 90       	pop	r11
    36c6:	af 90       	pop	r10
    36c8:	08 95       	ret

000036ca <strcmp>:
    36ca:	cf 93       	push	r28
    36cc:	df 93       	push	r29
    36ce:	cd b7       	in	r28, 0x3d	; 61
    36d0:	de b7       	in	r29, 0x3e	; 62
    36d2:	28 97       	sbiw	r28, 0x08	; 8
    36d4:	0f b6       	in	r0, 0x3f	; 63
    36d6:	f8 94       	cli
    36d8:	de bf       	out	0x3e, r29	; 62
    36da:	0f be       	out	0x3f, r0	; 63
    36dc:	cd bf       	out	0x3d, r28	; 61
    36de:	9e 83       	std	Y+6, r25	; 0x06
    36e0:	8d 83       	std	Y+5, r24	; 0x05
    36e2:	78 87       	std	Y+8, r23	; 0x08
    36e4:	6f 83       	std	Y+7, r22	; 0x07
    36e6:	8d 81       	ldd	r24, Y+5	; 0x05
    36e8:	9e 81       	ldd	r25, Y+6	; 0x06
    36ea:	9a 83       	std	Y+2, r25	; 0x02
    36ec:	89 83       	std	Y+1, r24	; 0x01
    36ee:	8f 81       	ldd	r24, Y+7	; 0x07
    36f0:	98 85       	ldd	r25, Y+8	; 0x08
    36f2:	9c 83       	std	Y+4, r25	; 0x04
    36f4:	8b 83       	std	Y+3, r24	; 0x03
    36f6:	0a c0       	rjmp	.+20     	; 0x370c <strcmp+0x42>
    36f8:	89 81       	ldd	r24, Y+1	; 0x01
    36fa:	9a 81       	ldd	r25, Y+2	; 0x02
    36fc:	01 96       	adiw	r24, 0x01	; 1
    36fe:	9a 83       	std	Y+2, r25	; 0x02
    3700:	89 83       	std	Y+1, r24	; 0x01
    3702:	8b 81       	ldd	r24, Y+3	; 0x03
    3704:	9c 81       	ldd	r25, Y+4	; 0x04
    3706:	01 96       	adiw	r24, 0x01	; 1
    3708:	9c 83       	std	Y+4, r25	; 0x04
    370a:	8b 83       	std	Y+3, r24	; 0x03
    370c:	89 81       	ldd	r24, Y+1	; 0x01
    370e:	9a 81       	ldd	r25, Y+2	; 0x02
    3710:	fc 01       	movw	r30, r24
    3712:	80 81       	ld	r24, Z
    3714:	88 23       	and	r24, r24
    3716:	51 f0       	breq	.+20     	; 0x372c <strcmp+0x62>
    3718:	89 81       	ldd	r24, Y+1	; 0x01
    371a:	9a 81       	ldd	r25, Y+2	; 0x02
    371c:	fc 01       	movw	r30, r24
    371e:	20 81       	ld	r18, Z
    3720:	8b 81       	ldd	r24, Y+3	; 0x03
    3722:	9c 81       	ldd	r25, Y+4	; 0x04
    3724:	fc 01       	movw	r30, r24
    3726:	80 81       	ld	r24, Z
    3728:	28 17       	cp	r18, r24
    372a:	31 f3       	breq	.-52     	; 0x36f8 <strcmp+0x2e>
    372c:	89 81       	ldd	r24, Y+1	; 0x01
    372e:	9a 81       	ldd	r25, Y+2	; 0x02
    3730:	fc 01       	movw	r30, r24
    3732:	80 81       	ld	r24, Z
    3734:	28 2f       	mov	r18, r24
    3736:	30 e0       	ldi	r19, 0x00	; 0
    3738:	8b 81       	ldd	r24, Y+3	; 0x03
    373a:	9c 81       	ldd	r25, Y+4	; 0x04
    373c:	fc 01       	movw	r30, r24
    373e:	80 81       	ld	r24, Z
    3740:	88 2f       	mov	r24, r24
    3742:	90 e0       	ldi	r25, 0x00	; 0
    3744:	a9 01       	movw	r20, r18
    3746:	48 1b       	sub	r20, r24
    3748:	59 0b       	sbc	r21, r25
    374a:	ca 01       	movw	r24, r20
    374c:	28 96       	adiw	r28, 0x08	; 8
    374e:	0f b6       	in	r0, 0x3f	; 63
    3750:	f8 94       	cli
    3752:	de bf       	out	0x3e, r29	; 62
    3754:	0f be       	out	0x3f, r0	; 63
    3756:	cd bf       	out	0x3d, r28	; 61
    3758:	df 91       	pop	r29
    375a:	cf 91       	pop	r28
    375c:	08 95       	ret

0000375e <strlen>:
    375e:	cf 93       	push	r28
    3760:	df 93       	push	r29
    3762:	00 d0       	rcall	.+0      	; 0x3764 <strlen+0x6>
    3764:	1f 92       	push	r1
    3766:	cd b7       	in	r28, 0x3d	; 61
    3768:	de b7       	in	r29, 0x3e	; 62
    376a:	9c 83       	std	Y+4, r25	; 0x04
    376c:	8b 83       	std	Y+3, r24	; 0x03
    376e:	8b 81       	ldd	r24, Y+3	; 0x03
    3770:	9c 81       	ldd	r25, Y+4	; 0x04
    3772:	9a 83       	std	Y+2, r25	; 0x02
    3774:	89 83       	std	Y+1, r24	; 0x01
    3776:	89 81       	ldd	r24, Y+1	; 0x01
    3778:	9a 81       	ldd	r25, Y+2	; 0x02
    377a:	9c 01       	movw	r18, r24
    377c:	2f 5f       	subi	r18, 0xFF	; 255
    377e:	3f 4f       	sbci	r19, 0xFF	; 255
    3780:	3a 83       	std	Y+2, r19	; 0x02
    3782:	29 83       	std	Y+1, r18	; 0x01
    3784:	fc 01       	movw	r30, r24
    3786:	80 81       	ld	r24, Z
    3788:	88 23       	and	r24, r24
    378a:	a9 f7       	brne	.-22     	; 0x3776 <strlen+0x18>
    378c:	29 81       	ldd	r18, Y+1	; 0x01
    378e:	3a 81       	ldd	r19, Y+2	; 0x02
    3790:	8b 81       	ldd	r24, Y+3	; 0x03
    3792:	9c 81       	ldd	r25, Y+4	; 0x04
    3794:	a9 01       	movw	r20, r18
    3796:	48 1b       	sub	r20, r24
    3798:	59 0b       	sbc	r21, r25
    379a:	ca 01       	movw	r24, r20
    379c:	01 97       	sbiw	r24, 0x01	; 1
    379e:	0f 90       	pop	r0
    37a0:	0f 90       	pop	r0
    37a2:	0f 90       	pop	r0
    37a4:	0f 90       	pop	r0
    37a6:	df 91       	pop	r29
    37a8:	cf 91       	pop	r28
    37aa:	08 95       	ret

000037ac <puts>:
    37ac:	cf 93       	push	r28
    37ae:	df 93       	push	r29
    37b0:	00 d0       	rcall	.+0      	; 0x37b2 <puts+0x6>
    37b2:	1f 92       	push	r1
    37b4:	1f 92       	push	r1
    37b6:	cd b7       	in	r28, 0x3d	; 61
    37b8:	de b7       	in	r29, 0x3e	; 62
    37ba:	9d 83       	std	Y+5, r25	; 0x05
    37bc:	8c 83       	std	Y+4, r24	; 0x04
    37be:	8a e0       	ldi	r24, 0x0A	; 10
    37c0:	8b 83       	std	Y+3, r24	; 0x03
    37c2:	8c 81       	ldd	r24, Y+4	; 0x04
    37c4:	9d 81       	ldd	r25, Y+5	; 0x05
    37c6:	0e 94 af 1b 	call	0x375e	; 0x375e <strlen>
    37ca:	9c 01       	movw	r18, r24
    37cc:	8c 81       	ldd	r24, Y+4	; 0x04
    37ce:	9d 81       	ldd	r25, Y+5	; 0x05
    37d0:	a9 01       	movw	r20, r18
    37d2:	bc 01       	movw	r22, r24
    37d4:	81 e0       	ldi	r24, 0x01	; 1
    37d6:	90 e0       	ldi	r25, 0x00	; 0
    37d8:	0e 94 f6 0a 	call	0x15ec	; 0x15ec <write>
    37dc:	9a 83       	std	Y+2, r25	; 0x02
    37de:	89 83       	std	Y+1, r24	; 0x01
    37e0:	ce 01       	movw	r24, r28
    37e2:	03 96       	adiw	r24, 0x03	; 3
    37e4:	41 e0       	ldi	r20, 0x01	; 1
    37e6:	50 e0       	ldi	r21, 0x00	; 0
    37e8:	bc 01       	movw	r22, r24
    37ea:	81 e0       	ldi	r24, 0x01	; 1
    37ec:	90 e0       	ldi	r25, 0x00	; 0
    37ee:	0e 94 f6 0a 	call	0x15ec	; 0x15ec <write>
    37f2:	9c 01       	movw	r18, r24
    37f4:	89 81       	ldd	r24, Y+1	; 0x01
    37f6:	9a 81       	ldd	r25, Y+2	; 0x02
    37f8:	82 0f       	add	r24, r18
    37fa:	93 1f       	adc	r25, r19
    37fc:	9a 83       	std	Y+2, r25	; 0x02
    37fe:	89 83       	std	Y+1, r24	; 0x01
    3800:	89 81       	ldd	r24, Y+1	; 0x01
    3802:	9a 81       	ldd	r25, Y+2	; 0x02
    3804:	0f 90       	pop	r0
    3806:	0f 90       	pop	r0
    3808:	0f 90       	pop	r0
    380a:	0f 90       	pop	r0
    380c:	0f 90       	pop	r0
    380e:	df 91       	pop	r29
    3810:	cf 91       	pop	r28
    3812:	08 95       	ret

00003814 <irqs_save>:
    3814:	cf 93       	push	r28
    3816:	df 93       	push	r29
    3818:	1f 92       	push	r1
    381a:	cd b7       	in	r28, 0x3d	; 61
    381c:	de b7       	in	r29, 0x3e	; 62
    381e:	8f e5       	ldi	r24, 0x5F	; 95
    3820:	90 e0       	ldi	r25, 0x00	; 0
    3822:	fc 01       	movw	r30, r24
    3824:	80 81       	ld	r24, Z
    3826:	89 83       	std	Y+1, r24	; 0x01
    3828:	f8 94       	cli
    382a:	89 81       	ldd	r24, Y+1	; 0x01
    382c:	0f 90       	pop	r0
    382e:	df 91       	pop	r29
    3830:	cf 91       	pop	r28
    3832:	08 95       	ret

00003834 <irqs_restore>:
    3834:	cf 93       	push	r28
    3836:	df 93       	push	r29
    3838:	1f 92       	push	r1
    383a:	cd b7       	in	r28, 0x3d	; 61
    383c:	de b7       	in	r29, 0x3e	; 62
    383e:	89 83       	std	Y+1, r24	; 0x01
    3840:	8f e5       	ldi	r24, 0x5F	; 95
    3842:	90 e0       	ldi	r25, 0x00	; 0
    3844:	29 81       	ldd	r18, Y+1	; 0x01
    3846:	fc 01       	movw	r30, r24
    3848:	20 83       	st	Z, r18
    384a:	0f 90       	pop	r0
    384c:	df 91       	pop	r29
    384e:	cf 91       	pop	r28
    3850:	08 95       	ret

00003852 <usart0_diag_putchar>:
    3852:	cf 93       	push	r28
    3854:	df 93       	push	r29
    3856:	00 d0       	rcall	.+0      	; 0x3858 <usart0_diag_putchar+0x6>
    3858:	1f 92       	push	r1
    385a:	cd b7       	in	r28, 0x3d	; 61
    385c:	de b7       	in	r29, 0x3e	; 62
    385e:	9b 83       	std	Y+3, r25	; 0x03
    3860:	8a 83       	std	Y+2, r24	; 0x02
    3862:	6c 83       	std	Y+4, r22	; 0x04
    3864:	0e 94 0a 1c 	call	0x3814	; 0x3814 <irqs_save>
    3868:	89 83       	std	Y+1, r24	; 0x01
    386a:	80 ec       	ldi	r24, 0xC0	; 192
    386c:	90 e0       	ldi	r25, 0x00	; 0
    386e:	20 ec       	ldi	r18, 0xC0	; 192
    3870:	30 e0       	ldi	r19, 0x00	; 0
    3872:	f9 01       	movw	r30, r18
    3874:	20 81       	ld	r18, Z
    3876:	20 64       	ori	r18, 0x40	; 64
    3878:	fc 01       	movw	r30, r24
    387a:	20 83       	st	Z, r18
    387c:	80 ec       	ldi	r24, 0xC0	; 192
    387e:	90 e0       	ldi	r25, 0x00	; 0
    3880:	fc 01       	movw	r30, r24
    3882:	80 81       	ld	r24, Z
    3884:	88 2f       	mov	r24, r24
    3886:	90 e0       	ldi	r25, 0x00	; 0
    3888:	80 72       	andi	r24, 0x20	; 32
    388a:	99 27       	eor	r25, r25
    388c:	89 2b       	or	r24, r25
    388e:	b1 f3       	breq	.-20     	; 0x387c <usart0_diag_putchar+0x2a>
    3890:	86 ec       	ldi	r24, 0xC6	; 198
    3892:	90 e0       	ldi	r25, 0x00	; 0
    3894:	2c 81       	ldd	r18, Y+4	; 0x04
    3896:	fc 01       	movw	r30, r24
    3898:	20 83       	st	Z, r18
    389a:	80 ec       	ldi	r24, 0xC0	; 192
    389c:	90 e0       	ldi	r25, 0x00	; 0
    389e:	fc 01       	movw	r30, r24
    38a0:	80 81       	ld	r24, Z
    38a2:	88 2f       	mov	r24, r24
    38a4:	90 e0       	ldi	r25, 0x00	; 0
    38a6:	80 74       	andi	r24, 0x40	; 64
    38a8:	99 27       	eor	r25, r25
    38aa:	89 2b       	or	r24, r25
    38ac:	b1 f3       	breq	.-20     	; 0x389a <usart0_diag_putchar+0x48>
    38ae:	89 81       	ldd	r24, Y+1	; 0x01
    38b0:	0e 94 1a 1c 	call	0x3834	; 0x3834 <irqs_restore>
    38b4:	80 e0       	ldi	r24, 0x00	; 0
    38b6:	90 e0       	ldi	r25, 0x00	; 0
    38b8:	0f 90       	pop	r0
    38ba:	0f 90       	pop	r0
    38bc:	0f 90       	pop	r0
    38be:	0f 90       	pop	r0
    38c0:	df 91       	pop	r29
    38c2:	cf 91       	pop	r28
    38c4:	08 95       	ret

000038c6 <usart0_diag_init>:
    38c6:	cf 93       	push	r28
    38c8:	df 93       	push	r29
    38ca:	00 d0       	rcall	.+0      	; 0x38cc <usart0_diag_init+0x6>
    38cc:	cd b7       	in	r28, 0x3d	; 61
    38ce:	de b7       	in	r29, 0x3e	; 62
    38d0:	80 ec       	ldi	r24, 0xC0	; 192
    38d2:	90 e0       	ldi	r25, 0x00	; 0
    38d4:	fc 01       	movw	r30, r24
    38d6:	10 82       	st	Z, r1
    38d8:	88 e0       	ldi	r24, 0x08	; 8
    38da:	90 e0       	ldi	r25, 0x00	; 0
    38dc:	9a 83       	std	Y+2, r25	; 0x02
    38de:	89 83       	std	Y+1, r24	; 0x01
    38e0:	85 ec       	ldi	r24, 0xC5	; 197
    38e2:	90 e0       	ldi	r25, 0x00	; 0
    38e4:	29 81       	ldd	r18, Y+1	; 0x01
    38e6:	3a 81       	ldd	r19, Y+2	; 0x02
    38e8:	23 2f       	mov	r18, r19
    38ea:	33 27       	eor	r19, r19
    38ec:	fc 01       	movw	r30, r24
    38ee:	20 83       	st	Z, r18
    38f0:	84 ec       	ldi	r24, 0xC4	; 196
    38f2:	90 e0       	ldi	r25, 0x00	; 0
    38f4:	29 81       	ldd	r18, Y+1	; 0x01
    38f6:	fc 01       	movw	r30, r24
    38f8:	20 83       	st	Z, r18
    38fa:	86 e0       	ldi	r24, 0x06	; 6
    38fc:	8b 83       	std	Y+3, r24	; 0x03
    38fe:	82 ec       	ldi	r24, 0xC2	; 194
    3900:	90 e0       	ldi	r25, 0x00	; 0
    3902:	2b 81       	ldd	r18, Y+3	; 0x03
    3904:	fc 01       	movw	r30, r24
    3906:	20 83       	st	Z, r18
    3908:	81 ec       	ldi	r24, 0xC1	; 193
    390a:	90 e0       	ldi	r25, 0x00	; 0
    390c:	21 ec       	ldi	r18, 0xC1	; 193
    390e:	30 e0       	ldi	r19, 0x00	; 0
    3910:	f9 01       	movw	r30, r18
    3912:	20 81       	ld	r18, Z
    3914:	28 60       	ori	r18, 0x08	; 8
    3916:	fc 01       	movw	r30, r24
    3918:	20 83       	st	Z, r18
    391a:	80 e0       	ldi	r24, 0x00	; 0
    391c:	90 e0       	ldi	r25, 0x00	; 0
    391e:	0f 90       	pop	r0
    3920:	0f 90       	pop	r0
    3922:	0f 90       	pop	r0
    3924:	df 91       	pop	r29
    3926:	cf 91       	pop	r28
    3928:	08 95       	ret

0000392a <_ZN12avr_gpio_pin6toggleEv>:
    392a:	cf 93       	push	r28
    392c:	df 93       	push	r29
    392e:	1f 92       	push	r1
    3930:	1f 92       	push	r1
    3932:	cd b7       	in	r28, 0x3d	; 61
    3934:	de b7       	in	r29, 0x3e	; 62
    3936:	9a 83       	std	Y+2, r25	; 0x02
    3938:	89 83       	std	Y+1, r24	; 0x01
    393a:	89 81       	ldd	r24, Y+1	; 0x01
    393c:	9a 81       	ldd	r25, Y+2	; 0x02
    393e:	fc 01       	movw	r30, r24
    3940:	24 81       	ldd	r18, Z+4	; 0x04
    3942:	35 81       	ldd	r19, Z+5	; 0x05
    3944:	89 81       	ldd	r24, Y+1	; 0x01
    3946:	9a 81       	ldd	r25, Y+2	; 0x02
    3948:	fc 01       	movw	r30, r24
    394a:	82 81       	ldd	r24, Z+2	; 0x02
    394c:	93 81       	ldd	r25, Z+3	; 0x03
    394e:	b9 01       	movw	r22, r18
    3950:	0e 94 4e 1f 	call	0x3e9c	; 0x3e9c <avr_gpio_toggle>
    3954:	0f 90       	pop	r0
    3956:	0f 90       	pop	r0
    3958:	df 91       	pop	r29
    395a:	cf 91       	pop	r28
    395c:	08 95       	ret

0000395e <cpu_delay>:
    395e:	af 92       	push	r10
    3960:	bf 92       	push	r11
    3962:	cf 92       	push	r12
    3964:	df 92       	push	r13
    3966:	ef 92       	push	r14
    3968:	ff 92       	push	r15
    396a:	0f 93       	push	r16
    396c:	1f 93       	push	r17
    396e:	cf 93       	push	r28
    3970:	df 93       	push	r29
    3972:	cd b7       	in	r28, 0x3d	; 61
    3974:	de b7       	in	r29, 0x3e	; 62
    3976:	60 97       	sbiw	r28, 0x10	; 16
    3978:	0f b6       	in	r0, 0x3f	; 63
    397a:	f8 94       	cli
    397c:	de bf       	out	0x3e, r29	; 62
    397e:	0f be       	out	0x3f, r0	; 63
    3980:	cd bf       	out	0x3d, r28	; 61
    3982:	29 87       	std	Y+9, r18	; 0x09
    3984:	3a 87       	std	Y+10, r19	; 0x0a
    3986:	4b 87       	std	Y+11, r20	; 0x0b
    3988:	5c 87       	std	Y+12, r21	; 0x0c
    398a:	6d 87       	std	Y+13, r22	; 0x0d
    398c:	7e 87       	std	Y+14, r23	; 0x0e
    398e:	8f 87       	std	Y+15, r24	; 0x0f
    3990:	98 8b       	std	Y+16, r25	; 0x10
    3992:	89 85       	ldd	r24, Y+9	; 0x09
    3994:	89 83       	std	Y+1, r24	; 0x01
    3996:	8a 85       	ldd	r24, Y+10	; 0x0a
    3998:	8a 83       	std	Y+2, r24	; 0x02
    399a:	8b 85       	ldd	r24, Y+11	; 0x0b
    399c:	8b 83       	std	Y+3, r24	; 0x03
    399e:	8c 85       	ldd	r24, Y+12	; 0x0c
    39a0:	8c 83       	std	Y+4, r24	; 0x04
    39a2:	8d 85       	ldd	r24, Y+13	; 0x0d
    39a4:	8d 83       	std	Y+5, r24	; 0x05
    39a6:	8e 85       	ldd	r24, Y+14	; 0x0e
    39a8:	8e 83       	std	Y+6, r24	; 0x06
    39aa:	8f 85       	ldd	r24, Y+15	; 0x0f
    39ac:	8f 83       	std	Y+7, r24	; 0x07
    39ae:	88 89       	ldd	r24, Y+16	; 0x10
    39b0:	88 87       	std	Y+8, r24	; 0x08
    39b2:	a9 80       	ldd	r10, Y+1	; 0x01
    39b4:	ba 80       	ldd	r11, Y+2	; 0x02
    39b6:	cb 80       	ldd	r12, Y+3	; 0x03
    39b8:	dc 80       	ldd	r13, Y+4	; 0x04
    39ba:	ed 80       	ldd	r14, Y+5	; 0x05
    39bc:	fe 80       	ldd	r15, Y+6	; 0x06
    39be:	0f 81       	ldd	r16, Y+7	; 0x07
    39c0:	18 85       	ldd	r17, Y+8	; 0x08
    39c2:	2a 2d       	mov	r18, r10
    39c4:	3b 2d       	mov	r19, r11
    39c6:	4c 2d       	mov	r20, r12
    39c8:	5d 2d       	mov	r21, r13
    39ca:	6e 2d       	mov	r22, r14
    39cc:	7f 2d       	mov	r23, r15
    39ce:	80 2f       	mov	r24, r16
    39d0:	91 2f       	mov	r25, r17
    39d2:	af ef       	ldi	r26, 0xFF	; 255
    39d4:	0e 94 24 22 	call	0x4448	; 0x4448 <__adddi3_s8>
    39d8:	a2 2e       	mov	r10, r18
    39da:	b3 2e       	mov	r11, r19
    39dc:	c4 2e       	mov	r12, r20
    39de:	d5 2e       	mov	r13, r21
    39e0:	e6 2e       	mov	r14, r22
    39e2:	f7 2e       	mov	r15, r23
    39e4:	08 2f       	mov	r16, r24
    39e6:	19 2f       	mov	r17, r25
    39e8:	a9 82       	std	Y+1, r10	; 0x01
    39ea:	ba 82       	std	Y+2, r11	; 0x02
    39ec:	cb 82       	std	Y+3, r12	; 0x03
    39ee:	dc 82       	std	Y+4, r13	; 0x04
    39f0:	ed 82       	std	Y+5, r14	; 0x05
    39f2:	fe 82       	std	Y+6, r15	; 0x06
    39f4:	0f 83       	std	Y+7, r16	; 0x07
    39f6:	18 87       	std	Y+8, r17	; 0x08
    39f8:	e1 e0       	ldi	r30, 0x01	; 1
    39fa:	2a 2d       	mov	r18, r10
    39fc:	3b 2d       	mov	r19, r11
    39fe:	4c 2d       	mov	r20, r12
    3a00:	5d 2d       	mov	r21, r13
    3a02:	6e 2d       	mov	r22, r14
    3a04:	7f 2d       	mov	r23, r15
    3a06:	80 2f       	mov	r24, r16
    3a08:	91 2f       	mov	r25, r17
    3a0a:	a0 e0       	ldi	r26, 0x00	; 0
    3a0c:	0e 94 30 22 	call	0x4460	; 0x4460 <__cmpdi2_s8>
    3a10:	09 f4       	brne	.+2      	; 0x3a14 <cpu_delay+0xb6>
    3a12:	e0 e0       	ldi	r30, 0x00	; 0
    3a14:	ee 23       	and	r30, r30
    3a16:	69 f6       	brne	.-102    	; 0x39b2 <cpu_delay+0x54>
    3a18:	60 96       	adiw	r28, 0x10	; 16
    3a1a:	0f b6       	in	r0, 0x3f	; 63
    3a1c:	f8 94       	cli
    3a1e:	de bf       	out	0x3e, r29	; 62
    3a20:	0f be       	out	0x3f, r0	; 63
    3a22:	cd bf       	out	0x3d, r28	; 61
    3a24:	df 91       	pop	r29
    3a26:	cf 91       	pop	r28
    3a28:	1f 91       	pop	r17
    3a2a:	0f 91       	pop	r16
    3a2c:	ff 90       	pop	r15
    3a2e:	ef 90       	pop	r14
    3a30:	df 90       	pop	r13
    3a32:	cf 90       	pop	r12
    3a34:	bf 90       	pop	r11
    3a36:	af 90       	pop	r10
    3a38:	08 95       	ret

00003a3a <main>:
    3a3a:	cf 93       	push	r28
    3a3c:	df 93       	push	r29
    3a3e:	cd b7       	in	r28, 0x3d	; 61
    3a40:	de b7       	in	r29, 0x3e	; 62
    3a42:	0e 94 30 1e 	call	0x3c60	; 0x3c60 <board_init>
    3a46:	84 e1       	ldi	r24, 0x14	; 20
    3a48:	95 e0       	ldi	r25, 0x05	; 5
    3a4a:	0e 94 95 1c 	call	0x392a	; 0x392a <_ZN12avr_gpio_pin6toggleEv>
    3a4e:	20 e2       	ldi	r18, 0x20	; 32
    3a50:	31 ea       	ldi	r19, 0xA1	; 161
    3a52:	47 e0       	ldi	r20, 0x07	; 7
    3a54:	50 e0       	ldi	r21, 0x00	; 0
    3a56:	60 e0       	ldi	r22, 0x00	; 0
    3a58:	70 e0       	ldi	r23, 0x00	; 0
    3a5a:	80 e0       	ldi	r24, 0x00	; 0
    3a5c:	90 e0       	ldi	r25, 0x00	; 0
    3a5e:	0e 94 af 1c 	call	0x395e	; 0x395e <cpu_delay>
    3a62:	f1 cf       	rjmp	.-30     	; 0x3a46 <main+0xc>

00003a64 <_ZN8gpio_pin9alternateEh>:
    3a64:	cf 93       	push	r28
    3a66:	df 93       	push	r29
    3a68:	00 d0       	rcall	.+0      	; 0x3a6a <_ZN8gpio_pin9alternateEh+0x6>
    3a6a:	cd b7       	in	r28, 0x3d	; 61
    3a6c:	de b7       	in	r29, 0x3e	; 62
    3a6e:	9a 83       	std	Y+2, r25	; 0x02
    3a70:	89 83       	std	Y+1, r24	; 0x01
    3a72:	6b 83       	std	Y+3, r22	; 0x03
    3a74:	8f ef       	ldi	r24, 0xFF	; 255
    3a76:	9f ef       	ldi	r25, 0xFF	; 255
    3a78:	0f 90       	pop	r0
    3a7a:	0f 90       	pop	r0
    3a7c:	0f 90       	pop	r0
    3a7e:	df 91       	pop	r29
    3a80:	cf 91       	pop	r28
    3a82:	08 95       	ret

00003a84 <_ZN8gpio_pinC2Ev>:
    3a84:	cf 93       	push	r28
    3a86:	df 93       	push	r29
    3a88:	1f 92       	push	r1
    3a8a:	1f 92       	push	r1
    3a8c:	cd b7       	in	r28, 0x3d	; 61
    3a8e:	de b7       	in	r29, 0x3e	; 62
    3a90:	9a 83       	std	Y+2, r25	; 0x02
    3a92:	89 83       	std	Y+1, r24	; 0x01
    3a94:	2c e9       	ldi	r18, 0x9C	; 156
    3a96:	34 e4       	ldi	r19, 0x44	; 68
    3a98:	89 81       	ldd	r24, Y+1	; 0x01
    3a9a:	9a 81       	ldd	r25, Y+2	; 0x02
    3a9c:	fc 01       	movw	r30, r24
    3a9e:	31 83       	std	Z+1, r19	; 0x01
    3aa0:	20 83       	st	Z, r18
    3aa2:	0f 90       	pop	r0
    3aa4:	0f 90       	pop	r0
    3aa6:	df 91       	pop	r29
    3aa8:	cf 91       	pop	r28
    3aaa:	08 95       	ret

00003aac <_ZN12avr_gpio_pinC1EP9gpio_regsj>:
    3aac:	cf 93       	push	r28
    3aae:	df 93       	push	r29
    3ab0:	00 d0       	rcall	.+0      	; 0x3ab2 <_ZN12avr_gpio_pinC1EP9gpio_regsj+0x6>
    3ab2:	00 d0       	rcall	.+0      	; 0x3ab4 <_ZN12avr_gpio_pinC1EP9gpio_regsj+0x8>
    3ab4:	cd b7       	in	r28, 0x3d	; 61
    3ab6:	de b7       	in	r29, 0x3e	; 62
    3ab8:	9a 83       	std	Y+2, r25	; 0x02
    3aba:	89 83       	std	Y+1, r24	; 0x01
    3abc:	7c 83       	std	Y+4, r23	; 0x04
    3abe:	6b 83       	std	Y+3, r22	; 0x03
    3ac0:	5e 83       	std	Y+6, r21	; 0x06
    3ac2:	4d 83       	std	Y+5, r20	; 0x05
    3ac4:	89 81       	ldd	r24, Y+1	; 0x01
    3ac6:	9a 81       	ldd	r25, Y+2	; 0x02
    3ac8:	0e 94 42 1d 	call	0x3a84	; 0x3a84 <_ZN8gpio_pinC2Ev>
    3acc:	2e e8       	ldi	r18, 0x8E	; 142
    3ace:	34 e4       	ldi	r19, 0x44	; 68
    3ad0:	89 81       	ldd	r24, Y+1	; 0x01
    3ad2:	9a 81       	ldd	r25, Y+2	; 0x02
    3ad4:	fc 01       	movw	r30, r24
    3ad6:	31 83       	std	Z+1, r19	; 0x01
    3ad8:	20 83       	st	Z, r18
    3ada:	89 81       	ldd	r24, Y+1	; 0x01
    3adc:	9a 81       	ldd	r25, Y+2	; 0x02
    3ade:	2b 81       	ldd	r18, Y+3	; 0x03
    3ae0:	3c 81       	ldd	r19, Y+4	; 0x04
    3ae2:	fc 01       	movw	r30, r24
    3ae4:	33 83       	std	Z+3, r19	; 0x03
    3ae6:	22 83       	std	Z+2, r18	; 0x02
    3ae8:	89 81       	ldd	r24, Y+1	; 0x01
    3aea:	9a 81       	ldd	r25, Y+2	; 0x02
    3aec:	2d 81       	ldd	r18, Y+5	; 0x05
    3aee:	3e 81       	ldd	r19, Y+6	; 0x06
    3af0:	fc 01       	movw	r30, r24
    3af2:	35 83       	std	Z+5, r19	; 0x05
    3af4:	24 83       	std	Z+4, r18	; 0x04
    3af6:	26 96       	adiw	r28, 0x06	; 6
    3af8:	0f b6       	in	r0, 0x3f	; 63
    3afa:	f8 94       	cli
    3afc:	de bf       	out	0x3e, r29	; 62
    3afe:	0f be       	out	0x3f, r0	; 63
    3b00:	cd bf       	out	0x3d, r28	; 61
    3b02:	df 91       	pop	r29
    3b04:	cf 91       	pop	r28
    3b06:	08 95       	ret

00003b08 <_ZN12avr_gpio_pin5setupEm>:
    3b08:	cf 93       	push	r28
    3b0a:	df 93       	push	r29
    3b0c:	cd b7       	in	r28, 0x3d	; 61
    3b0e:	de b7       	in	r29, 0x3e	; 62
    3b10:	28 97       	sbiw	r28, 0x08	; 8
    3b12:	0f b6       	in	r0, 0x3f	; 63
    3b14:	f8 94       	cli
    3b16:	de bf       	out	0x3e, r29	; 62
    3b18:	0f be       	out	0x3f, r0	; 63
    3b1a:	cd bf       	out	0x3d, r28	; 61
    3b1c:	9a 83       	std	Y+2, r25	; 0x02
    3b1e:	89 83       	std	Y+1, r24	; 0x01
    3b20:	4b 83       	std	Y+3, r20	; 0x03
    3b22:	5c 83       	std	Y+4, r21	; 0x04
    3b24:	6d 83       	std	Y+5, r22	; 0x05
    3b26:	7e 83       	std	Y+6, r23	; 0x06
    3b28:	8b 81       	ldd	r24, Y+3	; 0x03
    3b2a:	9c 81       	ldd	r25, Y+4	; 0x04
    3b2c:	ad 81       	ldd	r26, Y+5	; 0x05
    3b2e:	be 81       	ldd	r27, Y+6	; 0x06
    3b30:	29 81       	ldd	r18, Y+1	; 0x01
    3b32:	3a 81       	ldd	r19, Y+2	; 0x02
    3b34:	f9 01       	movw	r30, r18
    3b36:	64 81       	ldd	r22, Z+4	; 0x04
    3b38:	75 81       	ldd	r23, Z+5	; 0x05
    3b3a:	29 81       	ldd	r18, Y+1	; 0x01
    3b3c:	3a 81       	ldd	r19, Y+2	; 0x02
    3b3e:	f9 01       	movw	r30, r18
    3b40:	02 80       	ldd	r0, Z+2	; 0x02
    3b42:	f3 81       	ldd	r31, Z+3	; 0x03
    3b44:	e0 2d       	mov	r30, r0
    3b46:	f8 87       	std	Y+8, r31	; 0x08
    3b48:	ef 83       	std	Y+7, r30	; 0x07
    3b4a:	9c 01       	movw	r18, r24
    3b4c:	ad 01       	movw	r20, r26
    3b4e:	8f 81       	ldd	r24, Y+7	; 0x07
    3b50:	98 85       	ldd	r25, Y+8	; 0x08
    3b52:	0e 94 66 1f 	call	0x3ecc	; 0x3ecc <avr_gpio_setup>
    3b56:	28 96       	adiw	r28, 0x08	; 8
    3b58:	0f b6       	in	r0, 0x3f	; 63
    3b5a:	f8 94       	cli
    3b5c:	de bf       	out	0x3e, r29	; 62
    3b5e:	0f be       	out	0x3f, r0	; 63
    3b60:	cd bf       	out	0x3d, r28	; 61
    3b62:	df 91       	pop	r29
    3b64:	cf 91       	pop	r28
    3b66:	08 95       	ret

00003b68 <_ZN12avr_gpio_pin3setEh>:
    3b68:	cf 93       	push	r28
    3b6a:	df 93       	push	r29
    3b6c:	00 d0       	rcall	.+0      	; 0x3b6e <_ZN12avr_gpio_pin3setEh+0x6>
    3b6e:	cd b7       	in	r28, 0x3d	; 61
    3b70:	de b7       	in	r29, 0x3e	; 62
    3b72:	9a 83       	std	Y+2, r25	; 0x02
    3b74:	89 83       	std	Y+1, r24	; 0x01
    3b76:	6b 83       	std	Y+3, r22	; 0x03
    3b78:	89 81       	ldd	r24, Y+1	; 0x01
    3b7a:	9a 81       	ldd	r25, Y+2	; 0x02
    3b7c:	fc 01       	movw	r30, r24
    3b7e:	24 81       	ldd	r18, Z+4	; 0x04
    3b80:	35 81       	ldd	r19, Z+5	; 0x05
    3b82:	89 81       	ldd	r24, Y+1	; 0x01
    3b84:	9a 81       	ldd	r25, Y+2	; 0x02
    3b86:	fc 01       	movw	r30, r24
    3b88:	82 81       	ldd	r24, Z+2	; 0x02
    3b8a:	93 81       	ldd	r25, Z+3	; 0x03
    3b8c:	4b 81       	ldd	r20, Y+3	; 0x03
    3b8e:	b9 01       	movw	r22, r18
    3b90:	0e 94 06 1f 	call	0x3e0c	; 0x3e0c <avr_gpio_set>
    3b94:	0f 90       	pop	r0
    3b96:	0f 90       	pop	r0
    3b98:	0f 90       	pop	r0
    3b9a:	df 91       	pop	r29
    3b9c:	cf 91       	pop	r28
    3b9e:	08 95       	ret

00003ba0 <_ZN12avr_gpio_pin3getEv>:
    3ba0:	cf 93       	push	r28
    3ba2:	df 93       	push	r29
    3ba4:	1f 92       	push	r1
    3ba6:	1f 92       	push	r1
    3ba8:	cd b7       	in	r28, 0x3d	; 61
    3baa:	de b7       	in	r29, 0x3e	; 62
    3bac:	9a 83       	std	Y+2, r25	; 0x02
    3bae:	89 83       	std	Y+1, r24	; 0x01
    3bb0:	89 81       	ldd	r24, Y+1	; 0x01
    3bb2:	9a 81       	ldd	r25, Y+2	; 0x02
    3bb4:	fc 01       	movw	r30, r24
    3bb6:	24 81       	ldd	r18, Z+4	; 0x04
    3bb8:	35 81       	ldd	r19, Z+5	; 0x05
    3bba:	89 81       	ldd	r24, Y+1	; 0x01
    3bbc:	9a 81       	ldd	r25, Y+2	; 0x02
    3bbe:	fc 01       	movw	r30, r24
    3bc0:	82 81       	ldd	r24, Z+2	; 0x02
    3bc2:	93 81       	ldd	r25, Z+3	; 0x03
    3bc4:	b9 01       	movw	r22, r18
    3bc6:	0e 94 37 1f 	call	0x3e6e	; 0x3e6e <avr_gpio_get>
    3bca:	21 e0       	ldi	r18, 0x01	; 1
    3bcc:	89 2b       	or	r24, r25
    3bce:	09 f4       	brne	.+2      	; 0x3bd2 <_ZN12avr_gpio_pin3getEv+0x32>
    3bd0:	20 e0       	ldi	r18, 0x00	; 0
    3bd2:	82 2f       	mov	r24, r18
    3bd4:	90 e0       	ldi	r25, 0x00	; 0
    3bd6:	0f 90       	pop	r0
    3bd8:	0f 90       	pop	r0
    3bda:	df 91       	pop	r29
    3bdc:	cf 91       	pop	r28
    3bde:	08 95       	ret

00003be0 <_ZN5genos4uartC2Ev>:
    3be0:	cf 93       	push	r28
    3be2:	df 93       	push	r29
    3be4:	1f 92       	push	r1
    3be6:	1f 92       	push	r1
    3be8:	cd b7       	in	r28, 0x3d	; 61
    3bea:	de b7       	in	r29, 0x3e	; 62
    3bec:	9a 83       	std	Y+2, r25	; 0x02
    3bee:	89 83       	std	Y+1, r24	; 0x01
    3bf0:	2c e7       	ldi	r18, 0x7C	; 124
    3bf2:	34 e4       	ldi	r19, 0x44	; 68
    3bf4:	89 81       	ldd	r24, Y+1	; 0x01
    3bf6:	9a 81       	ldd	r25, Y+2	; 0x02
    3bf8:	fc 01       	movw	r30, r24
    3bfa:	31 83       	std	Z+1, r19	; 0x01
    3bfc:	20 83       	st	Z, r18
    3bfe:	0f 90       	pop	r0
    3c00:	0f 90       	pop	r0
    3c02:	df 91       	pop	r29
    3c04:	cf 91       	pop	r28
    3c06:	08 95       	ret

00003c08 <_ZN16avr_usart_deviceC1EP10usart_regsi>:
    3c08:	cf 93       	push	r28
    3c0a:	df 93       	push	r29
    3c0c:	00 d0       	rcall	.+0      	; 0x3c0e <_ZN16avr_usart_deviceC1EP10usart_regsi+0x6>
    3c0e:	00 d0       	rcall	.+0      	; 0x3c10 <_ZN16avr_usart_deviceC1EP10usart_regsi+0x8>
    3c10:	cd b7       	in	r28, 0x3d	; 61
    3c12:	de b7       	in	r29, 0x3e	; 62
    3c14:	9a 83       	std	Y+2, r25	; 0x02
    3c16:	89 83       	std	Y+1, r24	; 0x01
    3c18:	7c 83       	std	Y+4, r23	; 0x04
    3c1a:	6b 83       	std	Y+3, r22	; 0x03
    3c1c:	5e 83       	std	Y+6, r21	; 0x06
    3c1e:	4d 83       	std	Y+5, r20	; 0x05
    3c20:	89 81       	ldd	r24, Y+1	; 0x01
    3c22:	9a 81       	ldd	r25, Y+2	; 0x02
    3c24:	0e 94 f0 1d 	call	0x3be0	; 0x3be0 <_ZN5genos4uartC2Ev>
    3c28:	2e ec       	ldi	r18, 0xCE	; 206
    3c2a:	34 e4       	ldi	r19, 0x44	; 68
    3c2c:	89 81       	ldd	r24, Y+1	; 0x01
    3c2e:	9a 81       	ldd	r25, Y+2	; 0x02
    3c30:	fc 01       	movw	r30, r24
    3c32:	31 83       	std	Z+1, r19	; 0x01
    3c34:	20 83       	st	Z, r18
    3c36:	89 81       	ldd	r24, Y+1	; 0x01
    3c38:	9a 81       	ldd	r25, Y+2	; 0x02
    3c3a:	2b 81       	ldd	r18, Y+3	; 0x03
    3c3c:	3c 81       	ldd	r19, Y+4	; 0x04
    3c3e:	fc 01       	movw	r30, r24
    3c40:	37 83       	std	Z+7, r19	; 0x07
    3c42:	26 83       	std	Z+6, r18	; 0x06
    3c44:	2d 81       	ldd	r18, Y+5	; 0x05
    3c46:	89 81       	ldd	r24, Y+1	; 0x01
    3c48:	9a 81       	ldd	r25, Y+2	; 0x02
    3c4a:	fc 01       	movw	r30, r24
    3c4c:	20 87       	std	Z+8, r18	; 0x08
    3c4e:	26 96       	adiw	r28, 0x06	; 6
    3c50:	0f b6       	in	r0, 0x3f	; 63
    3c52:	f8 94       	cli
    3c54:	de bf       	out	0x3e, r29	; 62
    3c56:	0f be       	out	0x3f, r0	; 63
    3c58:	cd bf       	out	0x3d, r28	; 61
    3c5a:	df 91       	pop	r29
    3c5c:	cf 91       	pop	r28
    3c5e:	08 95       	ret

00003c60 <board_init>:
    3c60:	cf 93       	push	r28
    3c62:	df 93       	push	r29
    3c64:	cd b7       	in	r28, 0x3d	; 61
    3c66:	de b7       	in	r29, 0x3e	; 62
    3c68:	0e 94 9c 1e 	call	0x3d38	; 0x3d38 <arch_init>
    3c6c:	40 e0       	ldi	r20, 0x00	; 0
    3c6e:	51 e0       	ldi	r21, 0x01	; 1
    3c70:	60 e0       	ldi	r22, 0x00	; 0
    3c72:	70 e0       	ldi	r23, 0x00	; 0
    3c74:	84 e1       	ldi	r24, 0x14	; 20
    3c76:	95 e0       	ldi	r25, 0x05	; 5
    3c78:	0e 94 84 1d 	call	0x3b08	; 0x3b08 <_ZN12avr_gpio_pin5setupEm>
    3c7c:	61 e0       	ldi	r22, 0x01	; 1
    3c7e:	84 e1       	ldi	r24, 0x14	; 20
    3c80:	95 e0       	ldi	r25, 0x05	; 5
    3c82:	0e 94 b4 1d 	call	0x3b68	; 0x3b68 <_ZN12avr_gpio_pin3setEh>
    3c86:	df 91       	pop	r29
    3c88:	cf 91       	pop	r28
    3c8a:	08 95       	ret

00003c8c <_Z41__static_initialization_and_destruction_0ii>:
    3c8c:	cf 93       	push	r28
    3c8e:	df 93       	push	r29
    3c90:	00 d0       	rcall	.+0      	; 0x3c92 <_Z41__static_initialization_and_destruction_0ii+0x6>
    3c92:	1f 92       	push	r1
    3c94:	cd b7       	in	r28, 0x3d	; 61
    3c96:	de b7       	in	r29, 0x3e	; 62
    3c98:	9a 83       	std	Y+2, r25	; 0x02
    3c9a:	89 83       	std	Y+1, r24	; 0x01
    3c9c:	7c 83       	std	Y+4, r23	; 0x04
    3c9e:	6b 83       	std	Y+3, r22	; 0x03
    3ca0:	89 81       	ldd	r24, Y+1	; 0x01
    3ca2:	9a 81       	ldd	r25, Y+2	; 0x02
    3ca4:	01 97       	sbiw	r24, 0x01	; 1
    3ca6:	a1 f4       	brne	.+40     	; 0x3cd0 <_Z41__static_initialization_and_destruction_0ii+0x44>
    3ca8:	8b 81       	ldd	r24, Y+3	; 0x03
    3caa:	9c 81       	ldd	r25, Y+4	; 0x04
    3cac:	01 96       	adiw	r24, 0x01	; 1
    3cae:	81 f4       	brne	.+32     	; 0x3cd0 <_Z41__static_initialization_and_destruction_0ii+0x44>
    3cb0:	47 e0       	ldi	r20, 0x07	; 7
    3cb2:	50 e0       	ldi	r21, 0x00	; 0
    3cb4:	63 e2       	ldi	r22, 0x23	; 35
    3cb6:	70 e0       	ldi	r23, 0x00	; 0
    3cb8:	84 e1       	ldi	r24, 0x14	; 20
    3cba:	95 e0       	ldi	r25, 0x05	; 5
    3cbc:	0e 94 56 1d 	call	0x3aac	; 0x3aac <_ZN12avr_gpio_pinC1EP9gpio_regsj>
    3cc0:	48 e1       	ldi	r20, 0x18	; 24
    3cc2:	50 e0       	ldi	r21, 0x00	; 0
    3cc4:	60 ec       	ldi	r22, 0xC0	; 192
    3cc6:	70 e0       	ldi	r23, 0x00	; 0
    3cc8:	8a e1       	ldi	r24, 0x1A	; 26
    3cca:	95 e0       	ldi	r25, 0x05	; 5
    3ccc:	0e 94 04 1e 	call	0x3c08	; 0x3c08 <_ZN16avr_usart_deviceC1EP10usart_regsi>
    3cd0:	0f 90       	pop	r0
    3cd2:	0f 90       	pop	r0
    3cd4:	0f 90       	pop	r0
    3cd6:	0f 90       	pop	r0
    3cd8:	df 91       	pop	r29
    3cda:	cf 91       	pop	r28
    3cdc:	08 95       	ret

00003cde <_GLOBAL__sub_I_board_sysled>:
    3cde:	cf 93       	push	r28
    3ce0:	df 93       	push	r29
    3ce2:	cd b7       	in	r28, 0x3d	; 61
    3ce4:	de b7       	in	r29, 0x3e	; 62
    3ce6:	6f ef       	ldi	r22, 0xFF	; 255
    3ce8:	7f ef       	ldi	r23, 0xFF	; 255
    3cea:	81 e0       	ldi	r24, 0x01	; 1
    3cec:	90 e0       	ldi	r25, 0x00	; 0
    3cee:	0e 94 46 1e 	call	0x3c8c	; 0x3c8c <_Z41__static_initialization_and_destruction_0ii>
    3cf2:	df 91       	pop	r29
    3cf4:	cf 91       	pop	r28
    3cf6:	08 95       	ret

00003cf8 <irqs_save.lto_priv.153>:
    3cf8:	cf 93       	push	r28
    3cfa:	df 93       	push	r29
    3cfc:	1f 92       	push	r1
    3cfe:	cd b7       	in	r28, 0x3d	; 61
    3d00:	de b7       	in	r29, 0x3e	; 62
    3d02:	8f e5       	ldi	r24, 0x5F	; 95
    3d04:	90 e0       	ldi	r25, 0x00	; 0
    3d06:	fc 01       	movw	r30, r24
    3d08:	80 81       	ld	r24, Z
    3d0a:	89 83       	std	Y+1, r24	; 0x01
    3d0c:	f8 94       	cli
    3d0e:	89 81       	ldd	r24, Y+1	; 0x01
    3d10:	0f 90       	pop	r0
    3d12:	df 91       	pop	r29
    3d14:	cf 91       	pop	r28
    3d16:	08 95       	ret

00003d18 <irqs_disable.lto_priv.150>:
    3d18:	cf 93       	push	r28
    3d1a:	df 93       	push	r29
    3d1c:	cd b7       	in	r28, 0x3d	; 61
    3d1e:	de b7       	in	r29, 0x3e	; 62
    3d20:	0e 94 7c 1e 	call	0x3cf8	; 0x3cf8 <irqs_save.lto_priv.153>
    3d24:	df 91       	pop	r29
    3d26:	cf 91       	pop	r28
    3d28:	08 95       	ret

00003d2a <end_of_programm>:
    3d2a:	cf 93       	push	r28
    3d2c:	df 93       	push	r29
    3d2e:	cd b7       	in	r28, 0x3d	; 61
    3d30:	de b7       	in	r29, 0x3e	; 62
    3d32:	0e 94 8c 1e 	call	0x3d18	; 0x3d18 <irqs_disable.lto_priv.150>
    3d36:	ff cf       	rjmp	.-2      	; 0x3d36 <end_of_programm+0xc>

00003d38 <arch_init>:
    3d38:	cf 93       	push	r28
    3d3a:	df 93       	push	r29
    3d3c:	cd b7       	in	r28, 0x3d	; 61
    3d3e:	de b7       	in	r29, 0x3e	; 62
    3d40:	0e 94 49 06 	call	0xc92	; 0xc92 <irqtable_init>
    3d44:	0e 94 63 1c 	call	0x38c6	; 0x38c6 <usart0_diag_init>
    3d48:	60 e0       	ldi	r22, 0x00	; 0
    3d4a:	70 e0       	ldi	r23, 0x00	; 0
    3d4c:	82 ec       	ldi	r24, 0xC2	; 194
    3d4e:	94 e4       	ldi	r25, 0x44	; 68
    3d50:	0e 94 f4 04 	call	0x9e8	; 0x9e8 <diag_setup>
    3d54:	40 e0       	ldi	r20, 0x00	; 0
    3d56:	50 e0       	ldi	r21, 0x00	; 0
    3d58:	68 ee       	ldi	r22, 0xE8	; 232
    3d5a:	77 e0       	ldi	r23, 0x07	; 7
    3d5c:	86 e1       	ldi	r24, 0x16	; 22
    3d5e:	90 e0       	ldi	r25, 0x00	; 0
    3d60:	0e 94 8e 06 	call	0xd1c	; 0xd1c <irqtable_set_handler>
    3d64:	61 e0       	ldi	r22, 0x01	; 1
    3d66:	84 e4       	ldi	r24, 0x44	; 68
    3d68:	90 e0       	ldi	r25, 0x00	; 0
    3d6a:	0e 94 2c 21 	call	0x4258	; 0x4258 <avr_timer8_ovfirq_enable>
    3d6e:	60 e4       	ldi	r22, 0x40	; 64
    3d70:	70 e0       	ldi	r23, 0x00	; 0
    3d72:	84 e4       	ldi	r24, 0x44	; 68
    3d74:	90 e0       	ldi	r25, 0x00	; 0
    3d76:	0e 94 bf 20 	call	0x417e	; 0x417e <avr_timer8_divider>
    3d7a:	60 ed       	ldi	r22, 0xD0	; 208
    3d7c:	73 e0       	ldi	r23, 0x03	; 3
    3d7e:	80 e0       	ldi	r24, 0x00	; 0
    3d80:	90 e0       	ldi	r25, 0x00	; 0
    3d82:	0e 94 a9 07 	call	0xf52	; 0xf52 <systime_set_frequency>
    3d86:	df 91       	pop	r29
    3d88:	cf 91       	pop	r28
    3d8a:	08 95       	ret

00003d8c <debug_print_newline.lto_priv.147>:
    3d8c:	cf 93       	push	r28
    3d8e:	df 93       	push	r29
    3d90:	cd b7       	in	r28, 0x3d	; 61
    3d92:	de b7       	in	r29, 0x3e	; 62
    3d94:	8d e0       	ldi	r24, 0x0D	; 13
    3d96:	0e 94 71 0e 	call	0x1ce2	; 0x1ce2 <debug_putchar>
    3d9a:	8a e0       	ldi	r24, 0x0A	; 10
    3d9c:	0e 94 71 0e 	call	0x1ce2	; 0x1ce2 <debug_putchar>
    3da0:	df 91       	pop	r29
    3da2:	cf 91       	pop	r28
    3da4:	08 95       	ret

00003da6 <debug_print_location.lto_priv.145>:
    3da6:	cf 93       	push	r28
    3da8:	df 93       	push	r29
    3daa:	00 d0       	rcall	.+0      	; 0x3dac <debug_print_location.lto_priv.145+0x6>
    3dac:	00 d0       	rcall	.+0      	; 0x3dae <debug_print_location.lto_priv.145+0x8>
    3dae:	cd b7       	in	r28, 0x3d	; 61
    3db0:	de b7       	in	r29, 0x3e	; 62
    3db2:	49 83       	std	Y+1, r20	; 0x01
    3db4:	5a 83       	std	Y+2, r21	; 0x02
    3db6:	6b 83       	std	Y+3, r22	; 0x03
    3db8:	7c 83       	std	Y+4, r23	; 0x04
    3dba:	8d 83       	std	Y+5, r24	; 0x05
    3dbc:	9e 83       	std	Y+6, r25	; 0x06
    3dbe:	82 e7       	ldi	r24, 0x72	; 114
    3dc0:	94 e0       	ldi	r25, 0x04	; 4
    3dc2:	0e 94 ae 03 	call	0x75c	; 0x75c <debug_print>
    3dc6:	8b 81       	ldd	r24, Y+3	; 0x03
    3dc8:	9c 81       	ldd	r25, Y+4	; 0x04
    3dca:	0e 94 ae 03 	call	0x75c	; 0x75c <debug_print>
    3dce:	0e 94 c6 1e 	call	0x3d8c	; 0x3d8c <debug_print_newline.lto_priv.147>
    3dd2:	89 e7       	ldi	r24, 0x79	; 121
    3dd4:	94 e0       	ldi	r25, 0x04	; 4
    3dd6:	0e 94 ae 03 	call	0x75c	; 0x75c <debug_print>
    3dda:	8d 81       	ldd	r24, Y+5	; 0x05
    3ddc:	9e 81       	ldd	r25, Y+6	; 0x06
    3dde:	0e 94 ae 03 	call	0x75c	; 0x75c <debug_print>
    3de2:	0e 94 c6 1e 	call	0x3d8c	; 0x3d8c <debug_print_newline.lto_priv.147>
    3de6:	80 e8       	ldi	r24, 0x80	; 128
    3de8:	94 e0       	ldi	r25, 0x04	; 4
    3dea:	0e 94 ae 03 	call	0x75c	; 0x75c <debug_print>
    3dee:	89 81       	ldd	r24, Y+1	; 0x01
    3df0:	9a 81       	ldd	r25, Y+2	; 0x02
    3df2:	0e 94 77 04 	call	0x8ee	; 0x8ee <debug_printdec_unsigned_int>
    3df6:	0e 94 c6 1e 	call	0x3d8c	; 0x3d8c <debug_print_newline.lto_priv.147>
    3dfa:	26 96       	adiw	r28, 0x06	; 6
    3dfc:	0f b6       	in	r0, 0x3f	; 63
    3dfe:	f8 94       	cli
    3e00:	de bf       	out	0x3e, r29	; 62
    3e02:	0f be       	out	0x3f, r0	; 63
    3e04:	cd bf       	out	0x3d, r28	; 61
    3e06:	df 91       	pop	r29
    3e08:	cf 91       	pop	r28
    3e0a:	08 95       	ret

00003e0c <avr_gpio_set>:
    3e0c:	cf 93       	push	r28
    3e0e:	df 93       	push	r29
    3e10:	00 d0       	rcall	.+0      	; 0x3e12 <avr_gpio_set+0x6>
    3e12:	1f 92       	push	r1
    3e14:	1f 92       	push	r1
    3e16:	cd b7       	in	r28, 0x3d	; 61
    3e18:	de b7       	in	r29, 0x3e	; 62
    3e1a:	9a 83       	std	Y+2, r25	; 0x02
    3e1c:	89 83       	std	Y+1, r24	; 0x01
    3e1e:	7c 83       	std	Y+4, r23	; 0x04
    3e20:	6b 83       	std	Y+3, r22	; 0x03
    3e22:	4d 83       	std	Y+5, r20	; 0x05
    3e24:	8d 81       	ldd	r24, Y+5	; 0x05
    3e26:	88 23       	and	r24, r24
    3e28:	61 f0       	breq	.+24     	; 0x3e42 <avr_gpio_set+0x36>
    3e2a:	89 81       	ldd	r24, Y+1	; 0x01
    3e2c:	9a 81       	ldd	r25, Y+2	; 0x02
    3e2e:	fc 01       	movw	r30, r24
    3e30:	92 81       	ldd	r25, Z+2	; 0x02
    3e32:	8b 81       	ldd	r24, Y+3	; 0x03
    3e34:	29 2f       	mov	r18, r25
    3e36:	28 2b       	or	r18, r24
    3e38:	89 81       	ldd	r24, Y+1	; 0x01
    3e3a:	9a 81       	ldd	r25, Y+2	; 0x02
    3e3c:	fc 01       	movw	r30, r24
    3e3e:	22 83       	std	Z+2, r18	; 0x02
    3e40:	0c c0       	rjmp	.+24     	; 0x3e5a <avr_gpio_set+0x4e>
    3e42:	89 81       	ldd	r24, Y+1	; 0x01
    3e44:	9a 81       	ldd	r25, Y+2	; 0x02
    3e46:	fc 01       	movw	r30, r24
    3e48:	92 81       	ldd	r25, Z+2	; 0x02
    3e4a:	8b 81       	ldd	r24, Y+3	; 0x03
    3e4c:	80 95       	com	r24
    3e4e:	29 2f       	mov	r18, r25
    3e50:	28 23       	and	r18, r24
    3e52:	89 81       	ldd	r24, Y+1	; 0x01
    3e54:	9a 81       	ldd	r25, Y+2	; 0x02
    3e56:	fc 01       	movw	r30, r24
    3e58:	22 83       	std	Z+2, r18	; 0x02
    3e5a:	80 e0       	ldi	r24, 0x00	; 0
    3e5c:	90 e0       	ldi	r25, 0x00	; 0
    3e5e:	0f 90       	pop	r0
    3e60:	0f 90       	pop	r0
    3e62:	0f 90       	pop	r0
    3e64:	0f 90       	pop	r0
    3e66:	0f 90       	pop	r0
    3e68:	df 91       	pop	r29
    3e6a:	cf 91       	pop	r28
    3e6c:	08 95       	ret

00003e6e <avr_gpio_get>:
    3e6e:	cf 93       	push	r28
    3e70:	df 93       	push	r29
    3e72:	00 d0       	rcall	.+0      	; 0x3e74 <avr_gpio_get+0x6>
    3e74:	1f 92       	push	r1
    3e76:	cd b7       	in	r28, 0x3d	; 61
    3e78:	de b7       	in	r29, 0x3e	; 62
    3e7a:	9a 83       	std	Y+2, r25	; 0x02
    3e7c:	89 83       	std	Y+1, r24	; 0x01
    3e7e:	7c 83       	std	Y+4, r23	; 0x04
    3e80:	6b 83       	std	Y+3, r22	; 0x03
    3e82:	89 81       	ldd	r24, Y+1	; 0x01
    3e84:	9a 81       	ldd	r25, Y+2	; 0x02
    3e86:	fc 01       	movw	r30, r24
    3e88:	80 81       	ld	r24, Z
    3e8a:	88 2f       	mov	r24, r24
    3e8c:	90 e0       	ldi	r25, 0x00	; 0
    3e8e:	0f 90       	pop	r0
    3e90:	0f 90       	pop	r0
    3e92:	0f 90       	pop	r0
    3e94:	0f 90       	pop	r0
    3e96:	df 91       	pop	r29
    3e98:	cf 91       	pop	r28
    3e9a:	08 95       	ret

00003e9c <avr_gpio_toggle>:
    3e9c:	cf 93       	push	r28
    3e9e:	df 93       	push	r29
    3ea0:	00 d0       	rcall	.+0      	; 0x3ea2 <avr_gpio_toggle+0x6>
    3ea2:	1f 92       	push	r1
    3ea4:	cd b7       	in	r28, 0x3d	; 61
    3ea6:	de b7       	in	r29, 0x3e	; 62
    3ea8:	9a 83       	std	Y+2, r25	; 0x02
    3eaa:	89 83       	std	Y+1, r24	; 0x01
    3eac:	7c 83       	std	Y+4, r23	; 0x04
    3eae:	6b 83       	std	Y+3, r22	; 0x03
    3eb0:	2b 81       	ldd	r18, Y+3	; 0x03
    3eb2:	89 81       	ldd	r24, Y+1	; 0x01
    3eb4:	9a 81       	ldd	r25, Y+2	; 0x02
    3eb6:	fc 01       	movw	r30, r24
    3eb8:	20 83       	st	Z, r18
    3eba:	80 e0       	ldi	r24, 0x00	; 0
    3ebc:	90 e0       	ldi	r25, 0x00	; 0
    3ebe:	0f 90       	pop	r0
    3ec0:	0f 90       	pop	r0
    3ec2:	0f 90       	pop	r0
    3ec4:	0f 90       	pop	r0
    3ec6:	df 91       	pop	r29
    3ec8:	cf 91       	pop	r28
    3eca:	08 95       	ret

00003ecc <avr_gpio_setup>:
    3ecc:	cf 93       	push	r28
    3ece:	df 93       	push	r29
    3ed0:	cd b7       	in	r28, 0x3d	; 61
    3ed2:	de b7       	in	r29, 0x3e	; 62
    3ed4:	a0 97       	sbiw	r28, 0x20	; 32
    3ed6:	0f b6       	in	r0, 0x3f	; 63
    3ed8:	f8 94       	cli
    3eda:	de bf       	out	0x3e, r29	; 62
    3edc:	0f be       	out	0x3f, r0	; 63
    3ede:	cd bf       	out	0x3d, r28	; 61
    3ee0:	9a 8f       	std	Y+26, r25	; 0x1a
    3ee2:	89 8f       	std	Y+25, r24	; 0x19
    3ee4:	7c 8f       	std	Y+28, r23	; 0x1c
    3ee6:	6b 8f       	std	Y+27, r22	; 0x1b
    3ee8:	2d 8f       	std	Y+29, r18	; 0x1d
    3eea:	3e 8f       	std	Y+30, r19	; 0x1e
    3eec:	4f 8f       	std	Y+31, r20	; 0x1f
    3eee:	58 a3       	std	Y+32, r21	; 0x20
    3ef0:	8d 8d       	ldd	r24, Y+29	; 0x1d
    3ef2:	9e 8d       	ldd	r25, Y+30	; 0x1e
    3ef4:	af 8d       	ldd	r26, Y+31	; 0x1f
    3ef6:	b8 a1       	ldd	r27, Y+32	; 0x20
    3ef8:	88 27       	eor	r24, r24
    3efa:	aa 27       	eor	r26, r26
    3efc:	bb 27       	eor	r27, r27
    3efe:	89 2b       	or	r24, r25
    3f00:	8a 2b       	or	r24, r26
    3f02:	8b 2b       	or	r24, r27
    3f04:	71 f0       	breq	.+28     	; 0x3f22 <avr_gpio_setup+0x56>
    3f06:	8d 8d       	ldd	r24, Y+29	; 0x1d
    3f08:	9e 8d       	ldd	r25, Y+30	; 0x1e
    3f0a:	af 8d       	ldd	r26, Y+31	; 0x1f
    3f0c:	b8 a1       	ldd	r27, Y+32	; 0x20
    3f0e:	99 27       	eor	r25, r25
    3f10:	aa 27       	eor	r26, r26
    3f12:	bb 27       	eor	r27, r27
    3f14:	89 2b       	or	r24, r25
    3f16:	8a 2b       	or	r24, r26
    3f18:	8b 2b       	or	r24, r27
    3f1a:	19 f0       	breq	.+6      	; 0x3f22 <avr_gpio_setup+0x56>
    3f1c:	8f ef       	ldi	r24, 0xFF	; 255
    3f1e:	9f ef       	ldi	r25, 0xFF	; 255
    3f20:	b3 c0       	rjmp	.+358    	; 0x4088 <avr_gpio_setup+0x1bc>
    3f22:	8d 8d       	ldd	r24, Y+29	; 0x1d
    3f24:	9e 8d       	ldd	r25, Y+30	; 0x1e
    3f26:	af 8d       	ldd	r26, Y+31	; 0x1f
    3f28:	b8 a1       	ldd	r27, Y+32	; 0x20
    3f2a:	81 70       	andi	r24, 0x01	; 1
    3f2c:	99 27       	eor	r25, r25
    3f2e:	aa 27       	eor	r26, r26
    3f30:	bb 27       	eor	r27, r27
    3f32:	89 2b       	or	r24, r25
    3f34:	8a 2b       	or	r24, r26
    3f36:	8b 2b       	or	r24, r27
    3f38:	09 f4       	brne	.+2      	; 0x3f3c <avr_gpio_setup+0x70>
    3f3a:	8c c0       	rjmp	.+280    	; 0x4054 <avr_gpio_setup+0x188>
    3f3c:	89 8d       	ldd	r24, Y+25	; 0x19
    3f3e:	9a 8d       	ldd	r25, Y+26	; 0x1a
    3f40:	fc 01       	movw	r30, r24
    3f42:	91 81       	ldd	r25, Z+1	; 0x01
    3f44:	8b 8d       	ldd	r24, Y+27	; 0x1b
    3f46:	80 95       	com	r24
    3f48:	29 2f       	mov	r18, r25
    3f4a:	28 23       	and	r18, r24
    3f4c:	89 8d       	ldd	r24, Y+25	; 0x19
    3f4e:	9a 8d       	ldd	r25, Y+26	; 0x1a
    3f50:	fc 01       	movw	r30, r24
    3f52:	21 83       	std	Z+1, r18	; 0x01
    3f54:	8d 8d       	ldd	r24, Y+29	; 0x1d
    3f56:	9e 8d       	ldd	r25, Y+30	; 0x1e
    3f58:	af 8d       	ldd	r26, Y+31	; 0x1f
    3f5a:	b8 a1       	ldd	r27, Y+32	; 0x20
    3f5c:	80 71       	andi	r24, 0x10	; 16
    3f5e:	99 27       	eor	r25, r25
    3f60:	aa 27       	eor	r26, r26
    3f62:	bb 27       	eor	r27, r27
    3f64:	89 2b       	or	r24, r25
    3f66:	8a 2b       	or	r24, r26
    3f68:	8b 2b       	or	r24, r27
    3f6a:	99 f0       	breq	.+38     	; 0x3f92 <avr_gpio_setup+0xc6>
    3f6c:	86 e0       	ldi	r24, 0x06	; 6
    3f6e:	ea eb       	ldi	r30, 0xBA	; 186
    3f70:	f4 e0       	ldi	r31, 0x04	; 4
    3f72:	de 01       	movw	r26, r28
    3f74:	53 96       	adiw	r26, 0x13	; 19
    3f76:	01 90       	ld	r0, Z+
    3f78:	0d 92       	st	X+, r0
    3f7a:	8a 95       	dec	r24
    3f7c:	e1 f7       	brne	.-8      	; 0x3f76 <avr_gpio_setup+0xaa>
    3f7e:	4b 89       	ldd	r20, Y+19	; 0x13
    3f80:	5c 89       	ldd	r21, Y+20	; 0x14
    3f82:	6d 89       	ldd	r22, Y+21	; 0x15
    3f84:	7e 89       	ldd	r23, Y+22	; 0x16
    3f86:	8f 89       	ldd	r24, Y+23	; 0x17
    3f88:	98 8d       	ldd	r25, Y+24	; 0x18
    3f8a:	0e 94 d3 1e 	call	0x3da6	; 0x3da6 <debug_print_location.lto_priv.145>
    3f8e:	0e 94 6b 0e 	call	0x1cd6	; 0x1cd6 <bug_impl>
    3f92:	8d 8d       	ldd	r24, Y+29	; 0x1d
    3f94:	9e 8d       	ldd	r25, Y+30	; 0x1e
    3f96:	af 8d       	ldd	r26, Y+31	; 0x1f
    3f98:	b8 a1       	ldd	r27, Y+32	; 0x20
    3f9a:	82 70       	andi	r24, 0x02	; 2
    3f9c:	99 27       	eor	r25, r25
    3f9e:	aa 27       	eor	r26, r26
    3fa0:	bb 27       	eor	r27, r27
    3fa2:	89 2b       	or	r24, r25
    3fa4:	8a 2b       	or	r24, r26
    3fa6:	8b 2b       	or	r24, r27
    3fa8:	99 f0       	breq	.+38     	; 0x3fd0 <avr_gpio_setup+0x104>
    3faa:	86 e0       	ldi	r24, 0x06	; 6
    3fac:	e0 ec       	ldi	r30, 0xC0	; 192
    3fae:	f4 e0       	ldi	r31, 0x04	; 4
    3fb0:	de 01       	movw	r26, r28
    3fb2:	1d 96       	adiw	r26, 0x0d	; 13
    3fb4:	01 90       	ld	r0, Z+
    3fb6:	0d 92       	st	X+, r0
    3fb8:	8a 95       	dec	r24
    3fba:	e1 f7       	brne	.-8      	; 0x3fb4 <avr_gpio_setup+0xe8>
    3fbc:	4d 85       	ldd	r20, Y+13	; 0x0d
    3fbe:	5e 85       	ldd	r21, Y+14	; 0x0e
    3fc0:	6f 85       	ldd	r22, Y+15	; 0x0f
    3fc2:	78 89       	ldd	r23, Y+16	; 0x10
    3fc4:	89 89       	ldd	r24, Y+17	; 0x11
    3fc6:	9a 89       	ldd	r25, Y+18	; 0x12
    3fc8:	0e 94 d3 1e 	call	0x3da6	; 0x3da6 <debug_print_location.lto_priv.145>
    3fcc:	0e 94 6b 0e 	call	0x1cd6	; 0x1cd6 <bug_impl>
    3fd0:	8d 8d       	ldd	r24, Y+29	; 0x1d
    3fd2:	9e 8d       	ldd	r25, Y+30	; 0x1e
    3fd4:	af 8d       	ldd	r26, Y+31	; 0x1f
    3fd6:	b8 a1       	ldd	r27, Y+32	; 0x20
    3fd8:	84 70       	andi	r24, 0x04	; 4
    3fda:	99 27       	eor	r25, r25
    3fdc:	aa 27       	eor	r26, r26
    3fde:	bb 27       	eor	r27, r27
    3fe0:	89 2b       	or	r24, r25
    3fe2:	8a 2b       	or	r24, r26
    3fe4:	8b 2b       	or	r24, r27
    3fe6:	99 f0       	breq	.+38     	; 0x400e <avr_gpio_setup+0x142>
    3fe8:	86 e0       	ldi	r24, 0x06	; 6
    3fea:	e6 ec       	ldi	r30, 0xC6	; 198
    3fec:	f4 e0       	ldi	r31, 0x04	; 4
    3fee:	de 01       	movw	r26, r28
    3ff0:	17 96       	adiw	r26, 0x07	; 7
    3ff2:	01 90       	ld	r0, Z+
    3ff4:	0d 92       	st	X+, r0
    3ff6:	8a 95       	dec	r24
    3ff8:	e1 f7       	brne	.-8      	; 0x3ff2 <avr_gpio_setup+0x126>
    3ffa:	4f 81       	ldd	r20, Y+7	; 0x07
    3ffc:	58 85       	ldd	r21, Y+8	; 0x08
    3ffe:	69 85       	ldd	r22, Y+9	; 0x09
    4000:	7a 85       	ldd	r23, Y+10	; 0x0a
    4002:	8b 85       	ldd	r24, Y+11	; 0x0b
    4004:	9c 85       	ldd	r25, Y+12	; 0x0c
    4006:	0e 94 d3 1e 	call	0x3da6	; 0x3da6 <debug_print_location.lto_priv.145>
    400a:	0e 94 6b 0e 	call	0x1cd6	; 0x1cd6 <bug_impl>
    400e:	8d 8d       	ldd	r24, Y+29	; 0x1d
    4010:	9e 8d       	ldd	r25, Y+30	; 0x1e
    4012:	af 8d       	ldd	r26, Y+31	; 0x1f
    4014:	b8 a1       	ldd	r27, Y+32	; 0x20
    4016:	88 70       	andi	r24, 0x08	; 8
    4018:	99 27       	eor	r25, r25
    401a:	aa 27       	eor	r26, r26
    401c:	bb 27       	eor	r27, r27
    401e:	89 2b       	or	r24, r25
    4020:	8a 2b       	or	r24, r26
    4022:	8b 2b       	or	r24, r27
    4024:	a1 f0       	breq	.+40     	; 0x404e <avr_gpio_setup+0x182>
    4026:	26 e0       	ldi	r18, 0x06	; 6
    4028:	ec ec       	ldi	r30, 0xCC	; 204
    402a:	f4 e0       	ldi	r31, 0x04	; 4
    402c:	ce 01       	movw	r24, r28
    402e:	01 96       	adiw	r24, 0x01	; 1
    4030:	dc 01       	movw	r26, r24
    4032:	01 90       	ld	r0, Z+
    4034:	0d 92       	st	X+, r0
    4036:	2a 95       	dec	r18
    4038:	e1 f7       	brne	.-8      	; 0x4032 <avr_gpio_setup+0x166>
    403a:	49 81       	ldd	r20, Y+1	; 0x01
    403c:	5a 81       	ldd	r21, Y+2	; 0x02
    403e:	6b 81       	ldd	r22, Y+3	; 0x03
    4040:	7c 81       	ldd	r23, Y+4	; 0x04
    4042:	8d 81       	ldd	r24, Y+5	; 0x05
    4044:	9e 81       	ldd	r25, Y+6	; 0x06
    4046:	0e 94 d3 1e 	call	0x3da6	; 0x3da6 <debug_print_location.lto_priv.145>
    404a:	0e 94 6b 0e 	call	0x1cd6	; 0x1cd6 <bug_impl>
    404e:	80 e0       	ldi	r24, 0x00	; 0
    4050:	90 e0       	ldi	r25, 0x00	; 0
    4052:	1a c0       	rjmp	.+52     	; 0x4088 <avr_gpio_setup+0x1bc>
    4054:	8d 8d       	ldd	r24, Y+29	; 0x1d
    4056:	9e 8d       	ldd	r25, Y+30	; 0x1e
    4058:	af 8d       	ldd	r26, Y+31	; 0x1f
    405a:	b8 a1       	ldd	r27, Y+32	; 0x20
    405c:	88 27       	eor	r24, r24
    405e:	91 70       	andi	r25, 0x01	; 1
    4060:	aa 27       	eor	r26, r26
    4062:	bb 27       	eor	r27, r27
    4064:	89 2b       	or	r24, r25
    4066:	8a 2b       	or	r24, r26
    4068:	8b 2b       	or	r24, r27
    406a:	71 f0       	breq	.+28     	; 0x4088 <avr_gpio_setup+0x1bc>
    406c:	89 8d       	ldd	r24, Y+25	; 0x19
    406e:	9a 8d       	ldd	r25, Y+26	; 0x1a
    4070:	fc 01       	movw	r30, r24
    4072:	91 81       	ldd	r25, Z+1	; 0x01
    4074:	8b 8d       	ldd	r24, Y+27	; 0x1b
    4076:	29 2f       	mov	r18, r25
    4078:	28 2b       	or	r18, r24
    407a:	89 8d       	ldd	r24, Y+25	; 0x19
    407c:	9a 8d       	ldd	r25, Y+26	; 0x1a
    407e:	fc 01       	movw	r30, r24
    4080:	21 83       	std	Z+1, r18	; 0x01
    4082:	80 e0       	ldi	r24, 0x00	; 0
    4084:	90 e0       	ldi	r25, 0x00	; 0
    4086:	00 c0       	rjmp	.+0      	; 0x4088 <avr_gpio_setup+0x1bc>
    4088:	a0 96       	adiw	r28, 0x20	; 32
    408a:	0f b6       	in	r0, 0x3f	; 63
    408c:	f8 94       	cli
    408e:	de bf       	out	0x3e, r29	; 62
    4090:	0f be       	out	0x3f, r0	; 63
    4092:	cd bf       	out	0x3d, r28	; 61
    4094:	df 91       	pop	r29
    4096:	cf 91       	pop	r28
    4098:	08 95       	ret

0000409a <debug_print_newline.lto_priv.148>:
    409a:	cf 93       	push	r28
    409c:	df 93       	push	r29
    409e:	cd b7       	in	r28, 0x3d	; 61
    40a0:	de b7       	in	r29, 0x3e	; 62
    40a2:	8d e0       	ldi	r24, 0x0D	; 13
    40a4:	0e 94 71 0e 	call	0x1ce2	; 0x1ce2 <debug_putchar>
    40a8:	8a e0       	ldi	r24, 0x0A	; 10
    40aa:	0e 94 71 0e 	call	0x1ce2	; 0x1ce2 <debug_putchar>
    40ae:	df 91       	pop	r29
    40b0:	cf 91       	pop	r28
    40b2:	08 95       	ret

000040b4 <debug_print_location.lto_priv.146>:
    40b4:	cf 93       	push	r28
    40b6:	df 93       	push	r29
    40b8:	00 d0       	rcall	.+0      	; 0x40ba <debug_print_location.lto_priv.146+0x6>
    40ba:	00 d0       	rcall	.+0      	; 0x40bc <debug_print_location.lto_priv.146+0x8>
    40bc:	cd b7       	in	r28, 0x3d	; 61
    40be:	de b7       	in	r29, 0x3e	; 62
    40c0:	49 83       	std	Y+1, r20	; 0x01
    40c2:	5a 83       	std	Y+2, r21	; 0x02
    40c4:	6b 83       	std	Y+3, r22	; 0x03
    40c6:	7c 83       	std	Y+4, r23	; 0x04
    40c8:	8d 83       	std	Y+5, r24	; 0x05
    40ca:	9e 83       	std	Y+6, r25	; 0x06
    40cc:	82 e7       	ldi	r24, 0x72	; 114
    40ce:	94 e0       	ldi	r25, 0x04	; 4
    40d0:	0e 94 ae 03 	call	0x75c	; 0x75c <debug_print>
    40d4:	8b 81       	ldd	r24, Y+3	; 0x03
    40d6:	9c 81       	ldd	r25, Y+4	; 0x04
    40d8:	0e 94 ae 03 	call	0x75c	; 0x75c <debug_print>
    40dc:	0e 94 4d 20 	call	0x409a	; 0x409a <debug_print_newline.lto_priv.148>
    40e0:	89 e7       	ldi	r24, 0x79	; 121
    40e2:	94 e0       	ldi	r25, 0x04	; 4
    40e4:	0e 94 ae 03 	call	0x75c	; 0x75c <debug_print>
    40e8:	8d 81       	ldd	r24, Y+5	; 0x05
    40ea:	9e 81       	ldd	r25, Y+6	; 0x06
    40ec:	0e 94 ae 03 	call	0x75c	; 0x75c <debug_print>
    40f0:	0e 94 4d 20 	call	0x409a	; 0x409a <debug_print_newline.lto_priv.148>
    40f4:	80 e8       	ldi	r24, 0x80	; 128
    40f6:	94 e0       	ldi	r25, 0x04	; 4
    40f8:	0e 94 ae 03 	call	0x75c	; 0x75c <debug_print>
    40fc:	89 81       	ldd	r24, Y+1	; 0x01
    40fe:	9a 81       	ldd	r25, Y+2	; 0x02
    4100:	0e 94 77 04 	call	0x8ee	; 0x8ee <debug_printdec_unsigned_int>
    4104:	0e 94 4d 20 	call	0x409a	; 0x409a <debug_print_newline.lto_priv.148>
    4108:	26 96       	adiw	r28, 0x06	; 6
    410a:	0f b6       	in	r0, 0x3f	; 63
    410c:	f8 94       	cli
    410e:	de bf       	out	0x3e, r29	; 62
    4110:	0f be       	out	0x3f, r0	; 63
    4112:	cd bf       	out	0x3d, r28	; 61
    4114:	df 91       	pop	r29
    4116:	cf 91       	pop	r28
    4118:	08 95       	ret

0000411a <avr_timer_divider_code>:
    411a:	cf 93       	push	r28
    411c:	df 93       	push	r29
    411e:	1f 92       	push	r1
    4120:	1f 92       	push	r1
    4122:	cd b7       	in	r28, 0x3d	; 61
    4124:	de b7       	in	r29, 0x3e	; 62
    4126:	9a 83       	std	Y+2, r25	; 0x02
    4128:	89 83       	std	Y+1, r24	; 0x01
    412a:	89 81       	ldd	r24, Y+1	; 0x01
    412c:	9a 81       	ldd	r25, Y+2	; 0x02
    412e:	88 30       	cpi	r24, 0x08	; 8
    4130:	91 05       	cpc	r25, r1
    4132:	a9 f0       	breq	.+42     	; 0x415e <avr_timer_divider_code+0x44>
    4134:	89 30       	cpi	r24, 0x09	; 9
    4136:	91 05       	cpc	r25, r1
    4138:	28 f4       	brcc	.+10     	; 0x4144 <avr_timer_divider_code+0x2a>
    413a:	00 97       	sbiw	r24, 0x00	; 0
    413c:	51 f0       	breq	.+20     	; 0x4152 <avr_timer_divider_code+0x38>
    413e:	01 97       	sbiw	r24, 0x01	; 1
    4140:	59 f0       	breq	.+22     	; 0x4158 <avr_timer_divider_code+0x3e>
    4142:	16 c0       	rjmp	.+44     	; 0x4170 <avr_timer_divider_code+0x56>
    4144:	80 34       	cpi	r24, 0x40	; 64
    4146:	91 05       	cpc	r25, r1
    4148:	69 f0       	breq	.+26     	; 0x4164 <avr_timer_divider_code+0x4a>
    414a:	81 15       	cp	r24, r1
    414c:	91 40       	sbci	r25, 0x01	; 1
    414e:	69 f0       	breq	.+26     	; 0x416a <avr_timer_divider_code+0x50>
    4150:	0f c0       	rjmp	.+30     	; 0x4170 <avr_timer_divider_code+0x56>
    4152:	80 e0       	ldi	r24, 0x00	; 0
    4154:	90 e0       	ldi	r25, 0x00	; 0
    4156:	0e c0       	rjmp	.+28     	; 0x4174 <avr_timer_divider_code+0x5a>
    4158:	81 e0       	ldi	r24, 0x01	; 1
    415a:	90 e0       	ldi	r25, 0x00	; 0
    415c:	0b c0       	rjmp	.+22     	; 0x4174 <avr_timer_divider_code+0x5a>
    415e:	82 e0       	ldi	r24, 0x02	; 2
    4160:	90 e0       	ldi	r25, 0x00	; 0
    4162:	08 c0       	rjmp	.+16     	; 0x4174 <avr_timer_divider_code+0x5a>
    4164:	83 e0       	ldi	r24, 0x03	; 3
    4166:	90 e0       	ldi	r25, 0x00	; 0
    4168:	05 c0       	rjmp	.+10     	; 0x4174 <avr_timer_divider_code+0x5a>
    416a:	84 e0       	ldi	r24, 0x04	; 4
    416c:	90 e0       	ldi	r25, 0x00	; 0
    416e:	02 c0       	rjmp	.+4      	; 0x4174 <avr_timer_divider_code+0x5a>
    4170:	8f ef       	ldi	r24, 0xFF	; 255
    4172:	9f ef       	ldi	r25, 0xFF	; 255
    4174:	0f 90       	pop	r0
    4176:	0f 90       	pop	r0
    4178:	df 91       	pop	r29
    417a:	cf 91       	pop	r28
    417c:	08 95       	ret

0000417e <avr_timer8_divider>:
    417e:	1f 93       	push	r17
    4180:	cf 93       	push	r28
    4182:	df 93       	push	r29
    4184:	00 d0       	rcall	.+0      	; 0x4186 <avr_timer8_divider+0x8>
    4186:	1f 92       	push	r1
    4188:	cd b7       	in	r28, 0x3d	; 61
    418a:	de b7       	in	r29, 0x3e	; 62
    418c:	9a 83       	std	Y+2, r25	; 0x02
    418e:	89 83       	std	Y+1, r24	; 0x01
    4190:	7c 83       	std	Y+4, r23	; 0x04
    4192:	6b 83       	std	Y+3, r22	; 0x03
    4194:	89 81       	ldd	r24, Y+1	; 0x01
    4196:	9a 81       	ldd	r25, Y+2	; 0x02
    4198:	fc 01       	movw	r30, r24
    419a:	81 81       	ldd	r24, Z+1	; 0x01
    419c:	18 2f       	mov	r17, r24
    419e:	18 7f       	andi	r17, 0xF8	; 248
    41a0:	8b 81       	ldd	r24, Y+3	; 0x03
    41a2:	9c 81       	ldd	r25, Y+4	; 0x04
    41a4:	0e 94 8d 20 	call	0x411a	; 0x411a <avr_timer_divider_code>
    41a8:	87 70       	andi	r24, 0x07	; 7
    41aa:	81 2b       	or	r24, r17
    41ac:	28 2f       	mov	r18, r24
    41ae:	89 81       	ldd	r24, Y+1	; 0x01
    41b0:	9a 81       	ldd	r25, Y+2	; 0x02
    41b2:	fc 01       	movw	r30, r24
    41b4:	21 83       	std	Z+1, r18	; 0x01
    41b6:	0f 90       	pop	r0
    41b8:	0f 90       	pop	r0
    41ba:	0f 90       	pop	r0
    41bc:	0f 90       	pop	r0
    41be:	df 91       	pop	r29
    41c0:	cf 91       	pop	r28
    41c2:	1f 91       	pop	r17
    41c4:	08 95       	ret

000041c6 <avr_timer_no>:
    41c6:	cf 93       	push	r28
    41c8:	df 93       	push	r29
    41ca:	cd b7       	in	r28, 0x3d	; 61
    41cc:	de b7       	in	r29, 0x3e	; 62
    41ce:	28 97       	sbiw	r28, 0x08	; 8
    41d0:	0f b6       	in	r0, 0x3f	; 63
    41d2:	f8 94       	cli
    41d4:	de bf       	out	0x3e, r29	; 62
    41d6:	0f be       	out	0x3f, r0	; 63
    41d8:	cd bf       	out	0x3d, r28	; 61
    41da:	98 87       	std	Y+8, r25	; 0x08
    41dc:	8f 83       	std	Y+7, r24	; 0x07
    41de:	8f 81       	ldd	r24, Y+7	; 0x07
    41e0:	98 85       	ldd	r25, Y+8	; 0x08
    41e2:	80 39       	cpi	r24, 0x90	; 144
    41e4:	91 05       	cpc	r25, r1
    41e6:	b9 f0       	breq	.+46     	; 0x4216 <avr_timer_no+0x50>
    41e8:	81 39       	cpi	r24, 0x91	; 145
    41ea:	91 05       	cpc	r25, r1
    41ec:	38 f4       	brcc	.+14     	; 0x41fc <avr_timer_no+0x36>
    41ee:	84 34       	cpi	r24, 0x44	; 68
    41f0:	91 05       	cpc	r25, r1
    41f2:	59 f0       	breq	.+22     	; 0x420a <avr_timer_no+0x44>
    41f4:	80 38       	cpi	r24, 0x80	; 128
    41f6:	91 05       	cpc	r25, r1
    41f8:	51 f0       	breq	.+20     	; 0x420e <avr_timer_no+0x48>
    41fa:	11 c0       	rjmp	.+34     	; 0x421e <avr_timer_no+0x58>
    41fc:	80 3a       	cpi	r24, 0xA0	; 160
    41fe:	91 05       	cpc	r25, r1
    4200:	61 f0       	breq	.+24     	; 0x421a <avr_timer_no+0x54>
    4202:	80 3b       	cpi	r24, 0xB0	; 176
    4204:	91 05       	cpc	r25, r1
    4206:	29 f0       	breq	.+10     	; 0x4212 <avr_timer_no+0x4c>
    4208:	0a c0       	rjmp	.+20     	; 0x421e <avr_timer_no+0x58>
    420a:	80 e0       	ldi	r24, 0x00	; 0
    420c:	1c c0       	rjmp	.+56     	; 0x4246 <avr_timer_no+0x80>
    420e:	81 e0       	ldi	r24, 0x01	; 1
    4210:	1a c0       	rjmp	.+52     	; 0x4246 <avr_timer_no+0x80>
    4212:	82 e0       	ldi	r24, 0x02	; 2
    4214:	18 c0       	rjmp	.+48     	; 0x4246 <avr_timer_no+0x80>
    4216:	83 e0       	ldi	r24, 0x03	; 3
    4218:	16 c0       	rjmp	.+44     	; 0x4246 <avr_timer_no+0x80>
    421a:	84 e0       	ldi	r24, 0x04	; 4
    421c:	14 c0       	rjmp	.+40     	; 0x4246 <avr_timer_no+0x80>
    421e:	26 e0       	ldi	r18, 0x06	; 6
    4220:	e6 e0       	ldi	r30, 0x06	; 6
    4222:	f5 e0       	ldi	r31, 0x05	; 5
    4224:	ce 01       	movw	r24, r28
    4226:	01 96       	adiw	r24, 0x01	; 1
    4228:	dc 01       	movw	r26, r24
    422a:	01 90       	ld	r0, Z+
    422c:	0d 92       	st	X+, r0
    422e:	2a 95       	dec	r18
    4230:	e1 f7       	brne	.-8      	; 0x422a <avr_timer_no+0x64>
    4232:	49 81       	ldd	r20, Y+1	; 0x01
    4234:	5a 81       	ldd	r21, Y+2	; 0x02
    4236:	6b 81       	ldd	r22, Y+3	; 0x03
    4238:	7c 81       	ldd	r23, Y+4	; 0x04
    423a:	8d 81       	ldd	r24, Y+5	; 0x05
    423c:	9e 81       	ldd	r25, Y+6	; 0x06
    423e:	0e 94 5a 20 	call	0x40b4	; 0x40b4 <debug_print_location.lto_priv.146>
    4242:	0e 94 6b 0e 	call	0x1cd6	; 0x1cd6 <bug_impl>
    4246:	28 96       	adiw	r28, 0x08	; 8
    4248:	0f b6       	in	r0, 0x3f	; 63
    424a:	f8 94       	cli
    424c:	de bf       	out	0x3e, r29	; 62
    424e:	0f be       	out	0x3f, r0	; 63
    4250:	cd bf       	out	0x3d, r28	; 61
    4252:	df 91       	pop	r29
    4254:	cf 91       	pop	r28
    4256:	08 95       	ret

00004258 <avr_timer8_ovfirq_enable>:
    4258:	cf 92       	push	r12
    425a:	df 92       	push	r13
    425c:	ef 92       	push	r14
    425e:	ff 92       	push	r15
    4260:	0f 93       	push	r16
    4262:	1f 93       	push	r17
    4264:	cf 93       	push	r28
    4266:	df 93       	push	r29
    4268:	00 d0       	rcall	.+0      	; 0x426a <avr_timer8_ovfirq_enable+0x12>
    426a:	cd b7       	in	r28, 0x3d	; 61
    426c:	de b7       	in	r29, 0x3e	; 62
    426e:	9a 83       	std	Y+2, r25	; 0x02
    4270:	89 83       	std	Y+1, r24	; 0x01
    4272:	6b 83       	std	Y+3, r22	; 0x03
    4274:	0f 2e       	mov	r0, r31
    4276:	fe e6       	ldi	r31, 0x6E	; 110
    4278:	ef 2e       	mov	r14, r31
    427a:	f1 2c       	mov	r15, r1
    427c:	f0 2d       	mov	r31, r0
    427e:	89 81       	ldd	r24, Y+1	; 0x01
    4280:	9a 81       	ldd	r25, Y+2	; 0x02
    4282:	0e 94 e3 20 	call	0x41c6	; 0x41c6 <avr_timer_no>
    4286:	08 2f       	mov	r16, r24
    4288:	10 e0       	ldi	r17, 0x00	; 0
    428a:	0f 2e       	mov	r0, r31
    428c:	fe e6       	ldi	r31, 0x6E	; 110
    428e:	cf 2e       	mov	r12, r31
    4290:	d1 2c       	mov	r13, r1
    4292:	f0 2d       	mov	r31, r0
    4294:	89 81       	ldd	r24, Y+1	; 0x01
    4296:	9a 81       	ldd	r25, Y+2	; 0x02
    4298:	0e 94 e3 20 	call	0x41c6	; 0x41c6 <avr_timer_no>
    429c:	88 2f       	mov	r24, r24
    429e:	90 e0       	ldi	r25, 0x00	; 0
    42a0:	8c 0d       	add	r24, r12
    42a2:	9d 1d       	adc	r25, r13
    42a4:	fc 01       	movw	r30, r24
    42a6:	80 81       	ld	r24, Z
    42a8:	98 2f       	mov	r25, r24
    42aa:	9e 7f       	andi	r25, 0xFE	; 254
    42ac:	8b 81       	ldd	r24, Y+3	; 0x03
    42ae:	81 70       	andi	r24, 0x01	; 1
    42b0:	89 2b       	or	r24, r25
    42b2:	28 2f       	mov	r18, r24
    42b4:	c7 01       	movw	r24, r14
    42b6:	80 0f       	add	r24, r16
    42b8:	91 1f       	adc	r25, r17
    42ba:	fc 01       	movw	r30, r24
    42bc:	20 83       	st	Z, r18
    42be:	0f 90       	pop	r0
    42c0:	0f 90       	pop	r0
    42c2:	0f 90       	pop	r0
    42c4:	df 91       	pop	r29
    42c6:	cf 91       	pop	r28
    42c8:	1f 91       	pop	r17
    42ca:	0f 91       	pop	r16
    42cc:	ff 90       	pop	r15
    42ce:	ef 90       	pop	r14
    42d0:	df 90       	pop	r13
    42d2:	cf 90       	pop	r12
    42d4:	08 95       	ret

000042d6 <abort>:
    42d6:	cf 93       	push	r28
    42d8:	df 93       	push	r29
    42da:	cd b7       	in	r28, 0x3d	; 61
    42dc:	de b7       	in	r29, 0x3e	; 62
    42de:	8c e0       	ldi	r24, 0x0C	; 12
    42e0:	95 e0       	ldi	r25, 0x05	; 5
    42e2:	0e 94 ae 03 	call	0x75c	; 0x75c <debug_print>
    42e6:	ff cf       	rjmp	.-2      	; 0x42e6 <abort+0x10>

000042e8 <__udivmodsi4>:
    42e8:	a1 e2       	ldi	r26, 0x21	; 33
    42ea:	1a 2e       	mov	r1, r26
    42ec:	aa 1b       	sub	r26, r26
    42ee:	bb 1b       	sub	r27, r27
    42f0:	fd 01       	movw	r30, r26
    42f2:	0d c0       	rjmp	.+26     	; 0x430e <__udivmodsi4_ep>

000042f4 <__udivmodsi4_loop>:
    42f4:	aa 1f       	adc	r26, r26
    42f6:	bb 1f       	adc	r27, r27
    42f8:	ee 1f       	adc	r30, r30
    42fa:	ff 1f       	adc	r31, r31
    42fc:	a2 17       	cp	r26, r18
    42fe:	b3 07       	cpc	r27, r19
    4300:	e4 07       	cpc	r30, r20
    4302:	f5 07       	cpc	r31, r21
    4304:	20 f0       	brcs	.+8      	; 0x430e <__udivmodsi4_ep>
    4306:	a2 1b       	sub	r26, r18
    4308:	b3 0b       	sbc	r27, r19
    430a:	e4 0b       	sbc	r30, r20
    430c:	f5 0b       	sbc	r31, r21

0000430e <__udivmodsi4_ep>:
    430e:	66 1f       	adc	r22, r22
    4310:	77 1f       	adc	r23, r23
    4312:	88 1f       	adc	r24, r24
    4314:	99 1f       	adc	r25, r25
    4316:	1a 94       	dec	r1
    4318:	69 f7       	brne	.-38     	; 0x42f4 <__udivmodsi4_loop>
    431a:	60 95       	com	r22
    431c:	70 95       	com	r23
    431e:	80 95       	com	r24
    4320:	90 95       	com	r25
    4322:	9b 01       	movw	r18, r22
    4324:	ac 01       	movw	r20, r24
    4326:	bd 01       	movw	r22, r26
    4328:	cf 01       	movw	r24, r30
    432a:	08 95       	ret

0000432c <__divmodsi4>:
    432c:	05 2e       	mov	r0, r21
    432e:	97 fb       	bst	r25, 7
    4330:	1e f4       	brtc	.+6      	; 0x4338 <__divmodsi4+0xc>
    4332:	00 94       	com	r0
    4334:	0e 94 ad 21 	call	0x435a	; 0x435a <__negsi2>
    4338:	57 fd       	sbrc	r21, 7
    433a:	07 d0       	rcall	.+14     	; 0x434a <__divmodsi4_neg2>
    433c:	0e 94 74 21 	call	0x42e8	; 0x42e8 <__udivmodsi4>
    4340:	07 fc       	sbrc	r0, 7
    4342:	03 d0       	rcall	.+6      	; 0x434a <__divmodsi4_neg2>
    4344:	4e f4       	brtc	.+18     	; 0x4358 <__divmodsi4_exit>
    4346:	0c 94 ad 21 	jmp	0x435a	; 0x435a <__negsi2>

0000434a <__divmodsi4_neg2>:
    434a:	50 95       	com	r21
    434c:	40 95       	com	r20
    434e:	30 95       	com	r19
    4350:	21 95       	neg	r18
    4352:	3f 4f       	sbci	r19, 0xFF	; 255
    4354:	4f 4f       	sbci	r20, 0xFF	; 255
    4356:	5f 4f       	sbci	r21, 0xFF	; 255

00004358 <__divmodsi4_exit>:
    4358:	08 95       	ret

0000435a <__negsi2>:
    435a:	90 95       	com	r25
    435c:	80 95       	com	r24
    435e:	70 95       	com	r23
    4360:	61 95       	neg	r22
    4362:	7f 4f       	sbci	r23, 0xFF	; 255
    4364:	8f 4f       	sbci	r24, 0xFF	; 255
    4366:	9f 4f       	sbci	r25, 0xFF	; 255
    4368:	08 95       	ret

0000436a <__umoddi3>:
    436a:	68 94       	set
    436c:	01 c0       	rjmp	.+2      	; 0x4370 <__udivdi3_umoddi3>

0000436e <__udivdi3>:
    436e:	e8 94       	clt

00004370 <__udivdi3_umoddi3>:
    4370:	8f 92       	push	r8
    4372:	9f 92       	push	r9
    4374:	cf 93       	push	r28
    4376:	df 93       	push	r29
    4378:	0e 94 c3 21 	call	0x4386	; 0x4386 <__udivmod64>
    437c:	df 91       	pop	r29
    437e:	cf 91       	pop	r28
    4380:	9f 90       	pop	r9
    4382:	8f 90       	pop	r8
    4384:	08 95       	ret

00004386 <__udivmod64>:
    4386:	88 24       	eor	r8, r8
    4388:	99 24       	eor	r9, r9
    438a:	f4 01       	movw	r30, r8
    438c:	e4 01       	movw	r28, r8
    438e:	b0 e4       	ldi	r27, 0x40	; 64
    4390:	9f 93       	push	r25
    4392:	aa 27       	eor	r26, r26
    4394:	9a 15       	cp	r25, r10
    4396:	8b 04       	cpc	r8, r11
    4398:	9c 04       	cpc	r9, r12
    439a:	ed 05       	cpc	r30, r13
    439c:	fe 05       	cpc	r31, r14
    439e:	cf 05       	cpc	r28, r15
    43a0:	d0 07       	cpc	r29, r16
    43a2:	a1 07       	cpc	r26, r17
    43a4:	98 f4       	brcc	.+38     	; 0x43cc <__udivmod64+0x46>
    43a6:	ad 2f       	mov	r26, r29
    43a8:	dc 2f       	mov	r29, r28
    43aa:	cf 2f       	mov	r28, r31
    43ac:	fe 2f       	mov	r31, r30
    43ae:	e9 2d       	mov	r30, r9
    43b0:	98 2c       	mov	r9, r8
    43b2:	89 2e       	mov	r8, r25
    43b4:	98 2f       	mov	r25, r24
    43b6:	87 2f       	mov	r24, r23
    43b8:	76 2f       	mov	r23, r22
    43ba:	65 2f       	mov	r22, r21
    43bc:	54 2f       	mov	r21, r20
    43be:	43 2f       	mov	r20, r19
    43c0:	32 2f       	mov	r19, r18
    43c2:	22 27       	eor	r18, r18
    43c4:	b8 50       	subi	r27, 0x08	; 8
    43c6:	31 f7       	brne	.-52     	; 0x4394 <__udivmod64+0xe>
    43c8:	bf 91       	pop	r27
    43ca:	27 c0       	rjmp	.+78     	; 0x441a <__udivmod64+0x94>
    43cc:	1b 2e       	mov	r1, r27
    43ce:	bf 91       	pop	r27
    43d0:	bb 27       	eor	r27, r27
    43d2:	22 0f       	add	r18, r18
    43d4:	33 1f       	adc	r19, r19
    43d6:	44 1f       	adc	r20, r20
    43d8:	55 1f       	adc	r21, r21
    43da:	66 1f       	adc	r22, r22
    43dc:	77 1f       	adc	r23, r23
    43de:	88 1f       	adc	r24, r24
    43e0:	99 1f       	adc	r25, r25
    43e2:	88 1c       	adc	r8, r8
    43e4:	99 1c       	adc	r9, r9
    43e6:	ee 1f       	adc	r30, r30
    43e8:	ff 1f       	adc	r31, r31
    43ea:	cc 1f       	adc	r28, r28
    43ec:	dd 1f       	adc	r29, r29
    43ee:	aa 1f       	adc	r26, r26
    43f0:	bb 1f       	adc	r27, r27
    43f2:	8a 14       	cp	r8, r10
    43f4:	9b 04       	cpc	r9, r11
    43f6:	ec 05       	cpc	r30, r12
    43f8:	fd 05       	cpc	r31, r13
    43fa:	ce 05       	cpc	r28, r14
    43fc:	df 05       	cpc	r29, r15
    43fe:	a0 07       	cpc	r26, r16
    4400:	b1 07       	cpc	r27, r17
    4402:	48 f0       	brcs	.+18     	; 0x4416 <__udivmod64+0x90>
    4404:	8a 18       	sub	r8, r10
    4406:	9b 08       	sbc	r9, r11
    4408:	ec 09       	sbc	r30, r12
    440a:	fd 09       	sbc	r31, r13
    440c:	ce 09       	sbc	r28, r14
    440e:	df 09       	sbc	r29, r15
    4410:	a0 0b       	sbc	r26, r16
    4412:	b1 0b       	sbc	r27, r17
    4414:	21 60       	ori	r18, 0x01	; 1
    4416:	1a 94       	dec	r1
    4418:	e1 f6       	brne	.-72     	; 0x43d2 <__udivmod64+0x4c>
    441a:	2e f4       	brtc	.+10     	; 0x4426 <__udivmod64+0xa0>
    441c:	94 01       	movw	r18, r8
    441e:	af 01       	movw	r20, r30
    4420:	be 01       	movw	r22, r28
    4422:	cd 01       	movw	r24, r26
    4424:	00 0c       	add	r0, r0
    4426:	08 95       	ret

00004428 <__negdi2>:
    4428:	60 95       	com	r22
    442a:	70 95       	com	r23
    442c:	80 95       	com	r24
    442e:	90 95       	com	r25
    4430:	30 95       	com	r19
    4432:	40 95       	com	r20
    4434:	50 95       	com	r21
    4436:	21 95       	neg	r18
    4438:	3f 4f       	sbci	r19, 0xFF	; 255
    443a:	4f 4f       	sbci	r20, 0xFF	; 255
    443c:	5f 4f       	sbci	r21, 0xFF	; 255
    443e:	6f 4f       	sbci	r22, 0xFF	; 255
    4440:	7f 4f       	sbci	r23, 0xFF	; 255
    4442:	8f 4f       	sbci	r24, 0xFF	; 255
    4444:	9f 4f       	sbci	r25, 0xFF	; 255
    4446:	08 95       	ret

00004448 <__adddi3_s8>:
    4448:	00 24       	eor	r0, r0
    444a:	a7 fd       	sbrc	r26, 7
    444c:	00 94       	com	r0
    444e:	2a 0f       	add	r18, r26
    4450:	30 1d       	adc	r19, r0
    4452:	40 1d       	adc	r20, r0
    4454:	50 1d       	adc	r21, r0
    4456:	60 1d       	adc	r22, r0
    4458:	70 1d       	adc	r23, r0
    445a:	80 1d       	adc	r24, r0
    445c:	90 1d       	adc	r25, r0
    445e:	08 95       	ret

00004460 <__cmpdi2_s8>:
    4460:	00 24       	eor	r0, r0
    4462:	a7 fd       	sbrc	r26, 7
    4464:	00 94       	com	r0
    4466:	2a 17       	cp	r18, r26
    4468:	30 05       	cpc	r19, r0
    446a:	40 05       	cpc	r20, r0
    446c:	50 05       	cpc	r21, r0
    446e:	60 05       	cpc	r22, r0
    4470:	70 05       	cpc	r23, r0
    4472:	80 05       	cpc	r24, r0
    4474:	90 05       	cpc	r25, r0
    4476:	08 95       	ret

Disassembly of section .rodata._ZTVN5genos4uartE:

00004478 <_ZTVN5genos4uartE>:
    4478:	00 00       	nop
    447a:	00 00       	nop
    447c:	0d 0f       	add	r16, r29
    447e:	0d 0f       	add	r16, r29
    4480:	0d 0f       	add	r16, r29
    4482:	0d 0f       	add	r16, r29
    4484:	0d 0f       	add	r16, r29
    4486:	0d 0f       	add	r16, r29
    4488:	0d 0f       	add	r16, r29

Disassembly of section .rodata._ZTV12avr_gpio_pin:

0000448a <_ZTV12avr_gpio_pin>:
    448a:	00 00       	nop
    448c:	00 00       	nop
    448e:	b4 1d       	adc	r27, r4
    4490:	d0 1d       	adc	r29, r0
    4492:	95 1c       	adc	r9, r5
    4494:	84 1d       	adc	r24, r4
    4496:	32 1d       	adc	r19, r2

Disassembly of section .rodata._ZTV8gpio_pin:

00004498 <_ZTV8gpio_pin>:
    4498:	00 00       	nop
    449a:	00 00       	nop
    449c:	0d 0f       	add	r16, r29
    449e:	0d 0f       	add	r16, r29
    44a0:	0d 0f       	add	r16, r29
    44a2:	0d 0f       	add	r16, r29
    44a4:	32 1d       	adc	r19, r2

Disassembly of section .rodata.__func__.1764.lto_priv.156:

000044a6 <__func__.1764.lto_priv.156>:
    44a6:	61 76       	andi	r22, 0x61	; 97
    44a8:	72 5f       	subi	r23, 0xF2	; 242
    44aa:	67 70       	andi	r22, 0x07	; 7
    44ac:	69 6f       	ori	r22, 0xF9	; 249
    44ae:	5f 73       	andi	r21, 0x3F	; 63
    44b0:	65 74       	andi	r22, 0x45	; 69
    44b2:	75 70       	andi	r23, 0x05	; 5
	...

Disassembly of section .rodata.__func__.1887.lto_priv.155:

000044b5 <__func__.1887.lto_priv.155>:
    44b5:	61 76       	andi	r22, 0x61	; 97
    44b7:	72 5f       	subi	r23, 0xF2	; 242
    44b9:	74 69       	ori	r23, 0x94	; 148
    44bb:	6d 65       	ori	r22, 0x5D	; 93
    44bd:	72 5f       	subi	r23, 0xF2	; 242
    44bf:	6e 6f       	ori	r22, 0xFE	; 254
	...

Disassembly of section .rodata.usart0_diag:

000044c2 <usart0_diag>:
    44c2:	29 1c       	adc	r2, r9
    44c4:	00 00       	nop
    44c6:	5d 05       	cpc	r21, r13
	...

Disassembly of section .rodata._ZTV16avr_usart_device:

000044ca <_ZTV16avr_usart_device>:
    44ca:	00 00       	nop
    44cc:	00 00       	nop
    44ce:	b0 15       	cp	r27, r0
    44d0:	ee 13       	cpse	r30, r30
    44d2:	3b 14       	cp	r3, r11
    44d4:	aa 14       	cp	r10, r10
    44d6:	be 14       	cp	r11, r14
    44d8:	d8 14       	cp	r13, r8
    44da:	ec 14       	cp	r14, r12

Disassembly of section .rodata._ZTVN5genos3avr7timer16E:

000044dc <_ZTVN5genos3avr7timer16E>:
    44dc:	00 00       	nop
    44de:	00 00       	nop
    44e0:	fd 17       	cp	r31, r29
    44e2:	35 18       	sub	r3, r5
    44e4:	58 18       	sub	r5, r8
    44e6:	79 18       	sub	r7, r9
    44e8:	9b 18       	sub	r9, r11
    44ea:	ac 18       	sub	r10, r12

Disassembly of section .rodata._ZTVN5genos3avr5timerIjP12timer16_regsEE:

000044ec <_ZTVN5genos3avr5timerIjP12timer16_regsEE>:
    44ec:	00 00       	nop
    44ee:	00 00       	nop
    44f0:	fd 17       	cp	r31, r29
    44f2:	35 18       	sub	r3, r5
    44f4:	58 18       	sub	r5, r8
    44f6:	79 18       	sub	r7, r9
    44f8:	9b 18       	sub	r9, r11
    44fa:	ac 18       	sub	r10, r12

Disassembly of section .rodata._ZTVN5genos3avr6timer8E:

000044fc <_ZTVN5genos3avr6timer8E>:
    44fc:	00 00       	nop
    44fe:	00 00       	nop
    4500:	c1 18       	sub	r12, r1
    4502:	f9 18       	sub	r15, r9
    4504:	1c 19       	sub	r17, r12
    4506:	3d 19       	sub	r19, r13
    4508:	5f 19       	sub	r21, r15
    450a:	70 19       	sub	r23, r0

Disassembly of section .rodata._ZTVN5genos3avr5timerIhP11timer8_regsEE:

0000450c <_ZTVN5genos3avr5timerIhP11timer8_regsEE>:
    450c:	00 00       	nop
    450e:	00 00       	nop
    4510:	c1 18       	sub	r12, r1
    4512:	f9 18       	sub	r15, r9
    4514:	1c 19       	sub	r17, r12
    4516:	3d 19       	sub	r19, r13
    4518:	5f 19       	sub	r21, r15
    451a:	70 19       	sub	r23, r0

Disassembly of section .rodata._ZTVN5genos3avr10timer_baseE:

0000451c <_ZTVN5genos3avr10timer_baseE>:
    451c:	00 00       	nop
    451e:	00 00       	nop
    4520:	0d 0f       	add	r16, r29
    4522:	0d 0f       	add	r16, r29
    4524:	0d 0f       	add	r16, r29
    4526:	0d 0f       	add	r16, r29
    4528:	0d 0f       	add	r16, r29
    452a:	0d 0f       	add	r16, r29

Disassembly of section .rodata._ZZ12__schedule__E8__func__.lto_priv.68:

0000452c <_ZZ12__schedule__E8__func__.lto_priv.68>:
    452c:	5f 5f       	subi	r21, 0xFF	; 255
    452e:	73 63       	ori	r23, 0x33	; 51
    4530:	68 65       	ori	r22, 0x58	; 88
    4532:	64 75       	andi	r22, 0x54	; 84
    4534:	6c 65       	ori	r22, 0x5C	; 92
    4536:	5f 5f       	subi	r21, 0xFF	; 255
	...

Disassembly of section .rodata._ZTVN5genos7schedeeE:

00004539 <_ZTVN5genos7schedeeE>:
    4539:	00 00       	nop
    453b:	00 00       	nop
    453d:	0d 0f       	add	r16, r29
    453f:	0d 0f       	add	r16, r29
    4541:	0d 0f       	add	r16, r29
    4543:	52 13       	cpse	r21, r18

Disassembly of section .rodata._ZZ6msleepE8__func__.lto_priv.42:

00004545 <_ZZ6msleepE8__func__.lto_priv.42>:
    4545:	6d 73       	andi	r22, 0x3D	; 61
    4547:	6c 65       	ori	r22, 0x5C	; 92
    4549:	65 70       	andi	r22, 0x05	; 5
	...

Disassembly of section .rodata._ZZN5genos13autom_schedee8finalizeEvE8__func__.lto_priv.41:

0000454c <_ZZN5genos13autom_schedee8finalizeEvE8__func__.lto_priv.41>:
    454c:	66 69       	ori	r22, 0x96	; 150
    454e:	6e 61       	ori	r22, 0x1E	; 30
    4550:	6c 69       	ori	r22, 0x9C	; 156
    4552:	7a 65       	ori	r23, 0x5A	; 90
	...

Disassembly of section .rodata._ZTVN5genos11coopschedeeE:

00004555 <_ZTVN5genos11coopschedeeE>:
    4555:	00 00       	nop
    4557:	00 00       	nop
    4559:	09 0a       	sbc	r0, r25
    455b:	1b 0a       	sbc	r1, r27
    455d:	36 0a       	sbc	r3, r22
    455f:	52 13       	cpse	r21, r18

Disassembly of section .rodata._ZZN5genos11coopschedee8finalizeEvE8__func__.lto_priv.40:

00004561 <_ZZN5genos11coopschedee8finalizeEvE8__func__.lto_priv.40>:
    4561:	66 69       	ori	r22, 0x96	; 150
    4563:	6e 61       	ori	r22, 0x1E	; 30
    4565:	6c 69       	ori	r22, 0x9C	; 156
    4567:	7a 65       	ori	r23, 0x5A	; 90
	...

Disassembly of section .rodata._ZTVN5genos14device_managerE:

0000456a <_ZTVN5genos14device_managerE>:
    456a:	00 00       	nop
    456c:	00 00       	nop
    456e:	0f 0e       	add	r0, r31
    4570:	70 0d       	add	r23, r0
    4572:	83 0d       	add	r24, r3
    4574:	f8 ff       	.word	0xfff8	; ????
    4576:	00 00       	nop
    4578:	8e 0c       	add	r8, r14
    457a:	9d 0c       	add	r9, r13
    457c:	0a 0d       	add	r16, r10
    457e:	2d 0d       	add	r18, r13
    4580:	dc 0c       	add	r13, r12
    4582:	f3 0c       	add	r15, r3

Disassembly of section .rodata._ZTVN5genos7resmngrE:

00004584 <_ZTVN5genos7resmngrE>:
    4584:	00 00       	nop
    4586:	00 00       	nop
    4588:	0d 0f       	add	r16, r29
    458a:	70 0d       	add	r23, r0
    458c:	83 0d       	add	r24, r3

Disassembly of section .rodata._ZTVN5genos15named_node_listE:

0000458e <_ZTVN5genos15named_node_listE>:
    458e:	00 00       	nop
    4590:	00 00       	nop
    4592:	8e 0c       	add	r8, r14
    4594:	9d 0c       	add	r9, r13
    4596:	0a 0d       	add	r16, r10
    4598:	2d 0d       	add	r18, r13
    459a:	dc 0c       	add	r13, r12
    459c:	f3 0c       	add	r15, r3

Disassembly of section .rodata._ZTVN5genos9directoryE:

0000459e <_ZTVN5genos9directoryE>:
    459e:	00 00       	nop
    45a0:	00 00       	nop
    45a2:	8e 0c       	add	r8, r14
    45a4:	9d 0c       	add	r9, r13
    45a6:	0a 0d       	add	r16, r10
    45a8:	bf 0c       	add	r11, r15
    45aa:	dc 0c       	add	r13, r12
    45ac:	f3 0c       	add	r15, r3

Disassembly of section .rodata._ZTVN5genos8resourceE:

000045ae <_ZTVN5genos8resourceE>:
    45ae:	00 00       	nop
    45b0:	00 00       	nop
    45b2:	8e 0c       	add	r8, r14
    45b4:	9d 0c       	add	r9, r13
    45b6:	b0 0c       	add	r11, r0

Disassembly of section .bss:

00800514 <board_sysled>:
  800514:	00 00       	nop
  800516:	00 00       	nop
	...

0080051a <usart0>:
	...

00800523 <_ZN5genos3avr6timer0E>:
	...

0080052d <_ZN5genos3avr6timer1E>:
	...

00800537 <_ZN5genos3avr6timer2E>:
	...

00800541 <_ZN5genos3avr6timer3E>:
	...

0080054b <_ZN5genos3avr6timer4E>:
	...

00800555 <_ZN5genos3avr6timer5E>:
	...

0080055f <_ZL4save.lto_priv.67>:
	...

00800560 <_ZL5count.lto_priv.66>:
	...

00800562 <__current_schedee>:
	...

00800564 <schedee_manager_utilities>:
	...

00800579 <_ZN5genos22navigation_shell_tableE>:
	...

00800587 <_ZN5genos7devmngrE>:
	...

00800595 <_ZZ16__errno_locationE12global_errno.lto_priv.6>:
	...

00800597 <__interrupt_context>:
	...

00800598 <__irqtable>:
	...

008006e8 <irqtable_utilities>:
	...

008006f6 <__jiffies>:
	...

008006fe <utilschedee>:
	...

00800758 <current_diag_ops>:
	...

0080075a <current_diag_priv>:
	...

Disassembly of section .comment:

00000000 <.comment>:
   0:	47 43       	sbci	r20, 0x37	; 55
   2:	43 3a       	cpi	r20, 0xA3	; 163
   4:	20 28       	or	r2, r0
   6:	47 4e       	sbci	r20, 0xE7	; 231
   8:	55 29       	or	r21, r5
   a:	20 35       	cpi	r18, 0x50	; 80
   c:	2e 34       	cpi	r18, 0x4E	; 78
   e:	2e 30       	cpi	r18, 0x0E	; 14
	...
