
firmware.bin:     file format elf32-avr


Disassembly of section .data:

00800200 <waitlist>:
  800200:	00 02       	muls	r16, r16
  800202:	00 02       	muls	r16, r16

00800204 <timer0>:
  800204:	44 00       	.word	0x0044	; ????
  800206:	16 6e       	ori	r17, 0xE6	; 230
	...

00800209 <cooperative_schedee_op>:
  800209:	25 0f       	add	r18, r21
  80020b:	01 0f       	add	r16, r17
  80020d:	e2 0e       	add	r14, r18

0080020f <ktimer_list>:
  80020f:	0f 02       	muls	r16, r31
  800211:	0f 02       	muls	r16, r31

00800213 <finallist>:
  800213:	13 02       	muls	r17, r19
  800215:	13 02       	muls	r17, r19

00800217 <crow_travelled>:
  800217:	17 02       	muls	r17, r23
  800219:	17 02       	muls	r17, r23

0080021b <crow_outters>:
  80021b:	1b 02       	muls	r17, r27
  80021d:	1b 02       	muls	r17, r27

0080021f <crow_incoming>:
  80021f:	1f 02       	muls	r17, r31
  800221:	1f 02       	muls	r17, r31

00800223 <diag_stub>:
  800223:	2b 14       	cp	r2, r11
  800225:	2b 14       	cp	r2, r11
  800227:	2b 14       	cp	r2, r11
  800229:	2b 14       	cp	r2, r11

0080022b <current_diag_ops>:
  80022b:	23 02       	muls	r18, r19
  80022d:	61 62       	ori	r22, 0x21	; 33
  80022f:	6f 72       	andi	r22, 0x2F	; 47
  800231:	74 00       	.word	0x0074	; ????
  800233:	54 52       	subi	r21, 0x24	; 36
  800235:	41 43       	sbci	r20, 0x31	; 49
  800237:	45 3a       	cpi	r20, 0xA5	; 165
  800239:	20 00       	.word	0x0020	; ????
  80023b:	3a 20       	and	r3, r10
  80023d:	2d 3e       	cpi	r18, 0xED	; 237
  80023f:	20 00       	.word	0x0020	; ????
  800241:	2e 31       	cpi	r18, 0x1E	; 30
  800243:	30 00       	.word	0x0030	; ????
  800245:	48 65       	ori	r20, 0x58	; 88
  800247:	6c 6c       	ori	r22, 0xCC	; 204
  800249:	6f 57       	subi	r22, 0x7F	; 127
  80024b:	6f 72       	andi	r22, 0x2F	; 47
  80024d:	6c 64       	ori	r22, 0x4C	; 76
	...

00800250 <_ZZ12schedee_waitE19__PRETTY_FUNCTION__>:
  800250:	76 6f       	ori	r23, 0xF6	; 246
  800252:	69 64       	ori	r22, 0x49	; 73
  800254:	20 73       	andi	r18, 0x30	; 48
  800256:	63 68       	ori	r22, 0x83	; 131
  800258:	65 64       	ori	r22, 0x45	; 69
  80025a:	65 65       	ori	r22, 0x55	; 85
  80025c:	5f 77       	andi	r21, 0x7F	; 127
  80025e:	61 69       	ori	r22, 0x91	; 145
  800260:	74 28       	or	r7, r4
  800262:	73 63       	ori	r23, 0x33	; 51
  800264:	68 65       	ori	r22, 0x58	; 88
  800266:	64 65       	ori	r22, 0x54	; 84
  800268:	65 2a       	or	r6, r21
  80026a:	29 00       	.word	0x0029	; ????

0080026c <_ZZ8mainprocPvE19__PRETTY_FUNCTION__>:
  80026c:	76 6f       	ori	r23, 0xF6	; 246
  80026e:	69 64       	ori	r22, 0x49	; 73
  800270:	2a 20       	and	r2, r10
  800272:	6d 61       	ori	r22, 0x1D	; 29
  800274:	69 6e       	ori	r22, 0xE9	; 233
  800276:	70 72       	andi	r23, 0x20	; 32
  800278:	6f 63       	ori	r22, 0x3F	; 63
  80027a:	28 76       	andi	r18, 0x68	; 104
  80027c:	6f 69       	ori	r22, 0x9F	; 159
  80027e:	64 2a       	or	r6, r20
  800280:	29 00       	.word	0x0029	; ????

00800282 <usart0_diag>:
  800282:	16 14       	cp	r1, r6
  800284:	00 00       	nop
  800286:	73 14       	cp	r7, r3
	...

0080028a <_ZZ20schedee_manager_initE19__PRETTY_FUNCTION__>:
  80028a:	76 6f       	ori	r23, 0xF6	; 246
  80028c:	69 64       	ori	r22, 0x49	; 73
  80028e:	20 73       	andi	r18, 0x30	; 48
  800290:	63 68       	ori	r22, 0x83	; 131
  800292:	65 64       	ori	r22, 0x45	; 69
  800294:	65 65       	ori	r22, 0x55	; 85
  800296:	5f 6d       	ori	r21, 0xDF	; 223
  800298:	61 6e       	ori	r22, 0xE1	; 225
  80029a:	61 67       	ori	r22, 0x71	; 113
  80029c:	65 72       	andi	r22, 0x25	; 37
  80029e:	5f 69       	ori	r21, 0x9F	; 159
  8002a0:	6e 69       	ori	r22, 0x9E	; 158
  8002a2:	74 28       	or	r7, r4
  8002a4:	29 00       	.word	0x0029	; ????

008002a6 <_ZZ26create_cooperative_schedeeE19__PRETTY_FUNCTION__>:
  8002a6:	73 63       	ori	r23, 0x33	; 51
  8002a8:	68 65       	ori	r22, 0x58	; 88
  8002aa:	64 65       	ori	r22, 0x54	; 84
  8002ac:	65 2a       	or	r6, r21
  8002ae:	20 63       	ori	r18, 0x30	; 48
  8002b0:	72 65       	ori	r23, 0x52	; 82
  8002b2:	61 74       	andi	r22, 0x41	; 65
  8002b4:	65 5f       	subi	r22, 0xF5	; 245
  8002b6:	63 6f       	ori	r22, 0xF3	; 243
  8002b8:	6f 70       	andi	r22, 0x0F	; 15
  8002ba:	65 72       	andi	r22, 0x25	; 37
  8002bc:	61 74       	andi	r22, 0x41	; 65
  8002be:	69 76       	andi	r22, 0x69	; 105
  8002c0:	65 5f       	subi	r22, 0xF5	; 245
  8002c2:	73 63       	ori	r23, 0x33	; 51
  8002c4:	68 65       	ori	r22, 0x58	; 88
  8002c6:	64 65       	ori	r22, 0x54	; 84
  8002c8:	65 28       	or	r6, r5
  8002ca:	76 6f       	ori	r23, 0xF6	; 246
  8002cc:	69 64       	ori	r22, 0x49	; 73
  8002ce:	2a 20       	and	r2, r10
  8002d0:	28 2a       	or	r2, r24
  8002d2:	29 28       	or	r2, r9
  8002d4:	76 6f       	ori	r23, 0xF6	; 246
  8002d6:	69 64       	ori	r22, 0x49	; 73
  8002d8:	2a 29       	or	r18, r10
  8002da:	2c 20       	and	r2, r12
  8002dc:	76 6f       	ori	r23, 0xF6	; 246
  8002de:	69 64       	ori	r22, 0x49	; 73
  8002e0:	2a 2c       	mov	r2, r10
  8002e2:	20 69       	ori	r18, 0x90	; 144
  8002e4:	6e 74       	andi	r22, 0x4E	; 78
  8002e6:	29 00       	.word	0x0029	; ????
  8002e8:	64 65       	ori	r22, 0x54	; 84
  8002ea:	62 75       	andi	r22, 0x52	; 82
  8002ec:	67 5f       	subi	r22, 0xF7	; 247
  8002ee:	72 65       	ori	r23, 0x52	; 82
  8002f0:	6c 65       	ori	r22, 0x5C	; 92
  8002f2:	61 73       	andi	r22, 0x31	; 49
  8002f4:	65 00       	.word	0x0065	; ????
  8002f6:	64 65       	ori	r22, 0x54	; 84
  8002f8:	62 75       	andi	r22, 0x52	; 82
  8002fa:	67 5f       	subi	r22, 0xF7	; 247
  8002fc:	6f 70       	andi	r22, 0x0F	; 15
  8002fe:	65 6e       	ori	r22, 0xE5	; 229
  800300:	00 77       	andi	r16, 0x70	; 112
  800302:	72 69       	ori	r23, 0x92	; 146
  800304:	74 65       	ori	r23, 0x54	; 84
  800306:	00 66       	ori	r16, 0x60	; 96
  800308:	69 6c       	ori	r22, 0xC9	; 201
  80030a:	65 3a       	cpi	r22, 0xA5	; 165
  80030c:	20 00       	.word	0x0020	; ????
  80030e:	2f 68       	ori	r18, 0x8F	; 143
  800310:	6f 6d       	ori	r22, 0xDF	; 223
  800312:	65 2f       	mov	r22, r21
  800314:	6d 69       	ori	r22, 0x9D	; 157
  800316:	72 6d       	ori	r23, 0xD2	; 210
  800318:	69 6b       	ori	r22, 0xB9	; 185
  80031a:	2f 70       	andi	r18, 0x0F	; 15
  80031c:	72 6f       	ori	r23, 0xF2	; 242
  80031e:	6a 65       	ori	r22, 0x5A	; 90
  800320:	63 74       	andi	r22, 0x43	; 67
  800322:	2f 67       	ori	r18, 0x7F	; 127
  800324:	65 6e       	ori	r22, 0xE5	; 229
  800326:	6f 73       	andi	r22, 0x3F	; 63
  800328:	2f 73       	andi	r18, 0x3F	; 63
  80032a:	72 63       	ori	r23, 0x32	; 50
  80032c:	2f 64       	ori	r18, 0x4F	; 79
  80032e:	72 69       	ori	r23, 0x92	; 146
  800330:	76 65       	ori	r23, 0x56	; 86
  800332:	72 73       	andi	r23, 0x32	; 50
  800334:	2f 63       	ori	r18, 0x3F	; 63
  800336:	72 6f       	ori	r23, 0xF2	; 242
  800338:	77 2f       	mov	r23, r23
  80033a:	75 61       	ori	r23, 0x15	; 21
  80033c:	72 74       	andi	r23, 0x42	; 66
  80033e:	67 61       	ori	r22, 0x17	; 23
  800340:	74 65       	ori	r23, 0x54	; 84
  800342:	2e 63       	ori	r18, 0x3E	; 62
  800344:	70 70       	andi	r23, 0x00	; 0
  800346:	00 66       	ori	r16, 0x60	; 96
  800348:	75 6e       	ori	r23, 0xE5	; 229
  80034a:	63 3a       	cpi	r22, 0xA3	; 163
  80034c:	20 00       	.word	0x0020	; ????
  80034e:	6c 69       	ori	r22, 0x9C	; 156
  800350:	6e 65       	ori	r22, 0x5E	; 94
  800352:	3a 20       	and	r3, r10
  800354:	00 54       	subi	r16, 0x40	; 64
  800356:	52 41       	sbci	r21, 0x12	; 18
  800358:	43 45       	sbci	r20, 0x53	; 83
  80035a:	44 00       	.word	0x0044	; ????

0080035c <_ZZ16uartgate_handlerPviE8__func__>:
  80035c:	75 61       	ori	r23, 0x15	; 21
  80035e:	72 74       	andi	r23, 0x42	; 66
  800360:	67 61       	ori	r22, 0x17	; 23
  800362:	74 65       	ori	r23, 0x54	; 84
  800364:	5f 68       	ori	r21, 0x8F	; 143
  800366:	61 6e       	ori	r22, 0xE1	; 225
  800368:	64 6c       	ori	r22, 0xC4	; 196
  80036a:	65 72       	andi	r22, 0x25	; 37
	...

0080036d <_ZZ13schedee_finalE19__PRETTY_FUNCTION__>:
  80036d:	76 6f       	ori	r23, 0xF6	; 246
  80036f:	69 64       	ori	r22, 0x49	; 73
  800371:	20 73       	andi	r18, 0x30	; 48
  800373:	63 68       	ori	r22, 0x83	; 131
  800375:	65 64       	ori	r22, 0x45	; 69
  800377:	65 65       	ori	r22, 0x55	; 85
  800379:	5f 66       	ori	r21, 0x6F	; 111
  80037b:	69 6e       	ori	r22, 0xE9	; 233
  80037d:	61 6c       	ori	r22, 0xC1	; 193
  80037f:	28 73       	andi	r18, 0x38	; 56
  800381:	63 68       	ori	r22, 0x83	; 131
  800383:	65 64       	ori	r22, 0x45	; 69
  800385:	65 65       	ori	r22, 0x55	; 85
  800387:	2a 29       	or	r18, r10
	...

0080038a <_ZZL7starterPvE19__PRETTY_FUNCTION__>:
  80038a:	76 6f       	ori	r23, 0xF6	; 246
  80038c:	69 64       	ori	r22, 0x49	; 73
  80038e:	20 73       	andi	r18, 0x30	; 48
  800390:	74 61       	ori	r23, 0x14	; 20
  800392:	72 74       	andi	r23, 0x42	; 66
  800394:	65 72       	andi	r22, 0x25	; 37
  800396:	28 76       	andi	r18, 0x68	; 104
  800398:	6f 69       	ori	r22, 0x9F	; 159
  80039a:	64 2a       	or	r6, r20
  80039c:	29 00       	.word	0x0029	; ????

0080039e <_ZZL27cooperative_schedee_executeP7schedeeE19__PRETTY_FUNCTION__>:
  80039e:	76 6f       	ori	r23, 0xF6	; 246
  8003a0:	69 64       	ori	r22, 0x49	; 73
  8003a2:	20 63       	ori	r18, 0x30	; 48
  8003a4:	6f 6f       	ori	r22, 0xFF	; 255
  8003a6:	70 65       	ori	r23, 0x50	; 80
  8003a8:	72 61       	ori	r23, 0x12	; 18
  8003aa:	74 69       	ori	r23, 0x94	; 148
  8003ac:	76 65       	ori	r23, 0x56	; 86
  8003ae:	5f 73       	andi	r21, 0x3F	; 63
  8003b0:	63 68       	ori	r22, 0x83	; 131
  8003b2:	65 64       	ori	r22, 0x45	; 69
  8003b4:	65 65       	ori	r22, 0x55	; 85
  8003b6:	5f 65       	ori	r21, 0x5F	; 95
  8003b8:	78 65       	ori	r23, 0x58	; 88
  8003ba:	63 75       	andi	r22, 0x53	; 83
  8003bc:	74 65       	ori	r23, 0x54	; 84
  8003be:	28 73       	andi	r18, 0x38	; 56
  8003c0:	63 68       	ori	r22, 0x83	; 131
  8003c2:	65 64       	ori	r22, 0x45	; 69
  8003c4:	65 65       	ori	r22, 0x55	; 85
  8003c6:	2a 29       	or	r18, r10
	...

008003c9 <_ZZL28cooperative_schedee_displaceP7schedeeE19__PRETTY_FUNCTION__>:
  8003c9:	76 6f       	ori	r23, 0xF6	; 246
  8003cb:	69 64       	ori	r22, 0x49	; 73
  8003cd:	20 63       	ori	r18, 0x30	; 48
  8003cf:	6f 6f       	ori	r22, 0xFF	; 255
  8003d1:	70 65       	ori	r23, 0x50	; 80
  8003d3:	72 61       	ori	r23, 0x12	; 18
  8003d5:	74 69       	ori	r23, 0x94	; 148
  8003d7:	76 65       	ori	r23, 0x56	; 86
  8003d9:	5f 73       	andi	r21, 0x3F	; 63
  8003db:	63 68       	ori	r22, 0x83	; 131
  8003dd:	65 64       	ori	r22, 0x45	; 69
  8003df:	65 65       	ori	r22, 0x55	; 85
  8003e1:	5f 64       	ori	r21, 0x4F	; 79
  8003e3:	69 73       	andi	r22, 0x39	; 57
  8003e5:	70 6c       	ori	r23, 0xC0	; 192
  8003e7:	61 63       	ori	r22, 0x31	; 49
  8003e9:	65 28       	or	r6, r5
  8003eb:	73 63       	ori	r23, 0x33	; 51
  8003ed:	68 65       	ori	r22, 0x58	; 88
  8003ef:	64 65       	ori	r22, 0x54	; 84
  8003f1:	65 2a       	or	r6, r21
  8003f3:	29 00       	.word	0x0029	; ????

008003f5 <_ZZL28cooperative_schedee_finalizeP7schedeeE19__PRETTY_FUNCTION__>:
  8003f5:	76 6f       	ori	r23, 0xF6	; 246
  8003f7:	69 64       	ori	r22, 0x49	; 73
  8003f9:	20 63       	ori	r18, 0x30	; 48
  8003fb:	6f 6f       	ori	r22, 0xFF	; 255
  8003fd:	70 65       	ori	r23, 0x50	; 80
  8003ff:	72 61       	ori	r23, 0x12	; 18
  800401:	74 69       	ori	r23, 0x94	; 148
  800403:	76 65       	ori	r23, 0x56	; 86
  800405:	5f 73       	andi	r21, 0x3F	; 63
  800407:	63 68       	ori	r22, 0x83	; 131
  800409:	65 64       	ori	r22, 0x45	; 69
  80040b:	65 65       	ori	r22, 0x55	; 85
  80040d:	5f 66       	ori	r21, 0x6F	; 111
  80040f:	69 6e       	ori	r22, 0xE9	; 233
  800411:	61 6c       	ori	r22, 0xC1	; 193
  800413:	69 7a       	andi	r22, 0xA9	; 169
  800415:	65 28       	or	r6, r5
  800417:	73 63       	ori	r23, 0x33	; 51
  800419:	68 65       	ori	r22, 0x58	; 88
  80041b:	64 65       	ori	r22, 0x54	; 84
  80041d:	65 2a       	or	r6, r21
  80041f:	29 00       	.word	0x0029	; ????
  800421:	61 73       	andi	r22, 0x31	; 49
  800423:	73 65       	ori	r23, 0x53	; 83
  800425:	72 74       	andi	r23, 0x42	; 66
  800427:	3a 20       	and	r3, r10
  800429:	00 6d       	ori	r16, 0xD0	; 208
  80042b:	65 73       	andi	r22, 0x35	; 53
  80042d:	73 61       	ori	r23, 0x13	; 19
  80042f:	67 65       	ori	r22, 0x57	; 87
  800431:	00 66       	ori	r16, 0x60	; 96
  800433:	69 6c       	ori	r22, 0xC9	; 201
  800435:	65 00       	.word	0x0065	; ????
  800437:	6c 69       	ori	r22, 0x9C	; 156
  800439:	6e 65       	ori	r22, 0x5E	; 94
  80043b:	00 7b       	andi	r16, 0xB0	; 176
  80043d:	7d 3a       	cpi	r23, 0xAD	; 173
  80043f:	20 28       	or	r2, r0
  800441:	71 6f       	ori	r23, 0xF1	; 241
  800443:	73 3a       	cpi	r23, 0xA3	; 163
  800445:	7b 7d       	andi	r23, 0xDB	; 219
  800447:	2c 20       	and	r2, r12
  800449:	61 63       	ori	r22, 0x31	; 49
  80044b:	6b 3a       	cpi	r22, 0xAB	; 171
  80044d:	7b 7d       	andi	r23, 0xDB	; 219
  80044f:	2c 20       	and	r2, r12
  800451:	61 6c       	ori	r22, 0xC1	; 193
  800453:	65 6e       	ori	r22, 0xE5	; 229
  800455:	3a 7b       	andi	r19, 0xBA	; 186
  800457:	7d 2c       	mov	r7, r13
  800459:	20 66       	ori	r18, 0x60	; 96
  80045b:	6c 65       	ori	r22, 0x5C	; 92
  80045d:	6e 3a       	cpi	r22, 0xAE	; 174
  80045f:	7b 7d       	andi	r23, 0xDB	; 219
  800461:	2c 20       	and	r2, r12
  800463:	74 79       	andi	r23, 0x94	; 148
  800465:	70 65       	ori	r23, 0x50	; 80
  800467:	3a 7b       	andi	r19, 0xBA	; 186
  800469:	7d 2c       	mov	r7, r13
  80046b:	20 61       	ori	r18, 0x10	; 16
  80046d:	64 64       	ori	r22, 0x44	; 68
  80046f:	72 3a       	cpi	r23, 0xA2	; 162
  800471:	7b 7d       	andi	r23, 0xDB	; 219
  800473:	2c 20       	and	r2, r12
  800475:	73 74       	andi	r23, 0x43	; 67
  800477:	67 3a       	cpi	r22, 0xA7	; 167
  800479:	7b 7d       	andi	r23, 0xDB	; 219
  80047b:	2c 20       	and	r2, r12
  80047d:	64 61       	ori	r22, 0x14	; 20
  80047f:	74 61       	ori	r23, 0x14	; 20
  800481:	3a 7b       	andi	r19, 0xBA	; 186
  800483:	7d 29       	or	r23, r13
  800485:	00 76       	andi	r16, 0x60	; 96
  800487:	69 73       	andi	r22, 0x39	; 57
  800489:	69 74       	andi	r22, 0x49	; 73
  80048b:	61 62       	ori	r22, 0x21	; 33
  80048d:	6c 65       	ori	r22, 0x5C	; 92
  80048f:	5f 61       	ori	r21, 0x1F	; 31
  800491:	72 67       	ori	r23, 0x72	; 114
  800493:	6c 69       	ori	r22, 0x9C	; 156
  800495:	73 74       	andi	r23, 0x43	; 67
  800497:	3a 20       	and	r3, r10
  800499:	6e 61       	ori	r22, 0x1E	; 30
  80049b:	6d 65       	ori	r22, 0x5D	; 93
  80049d:	20 65       	ori	r18, 0x50	; 80
  80049f:	72 72       	andi	r23, 0x22	; 34
  8004a1:	6f 72       	andi	r22, 0x2F	; 47
  8004a3:	00 2f       	mov	r16, r16
  8004a5:	68 6f       	ori	r22, 0xF8	; 248
  8004a7:	6d 65       	ori	r22, 0x5D	; 93
  8004a9:	2f 6d       	ori	r18, 0xDF	; 223
  8004ab:	69 72       	andi	r22, 0x29	; 41
  8004ad:	6d 69       	ori	r22, 0x9D	; 157
  8004af:	6b 2f       	mov	r22, r27
  8004b1:	70 72       	andi	r23, 0x20	; 32
  8004b3:	6f 6a       	ori	r22, 0xAF	; 175
  8004b5:	65 63       	ori	r22, 0x35	; 53
  8004b7:	74 2f       	mov	r23, r20
  8004b9:	67 78       	andi	r22, 0x87	; 135
  8004bb:	78 2f       	mov	r23, r24
  8004bd:	2e 2f       	mov	r18, r30
  8004bf:	67 78       	andi	r22, 0x87	; 135
  8004c1:	78 2f       	mov	r23, r24
  8004c3:	61 72       	andi	r22, 0x21	; 33
  8004c5:	67 6c       	ori	r22, 0xC7	; 199
  8004c7:	69 73       	andi	r22, 0x39	; 57
  8004c9:	74 2e       	mov	r7, r20
  8004cb:	68 00       	.word	0x0068	; ????
  8004cd:	6e 75       	andi	r22, 0x5E	; 94
  8004cf:	6d 20       	and	r6, r13
  8004d1:	3c 20       	and	r3, r12
  8004d3:	4e 00       	.word	0x004e	; ????
  8004d5:	0d 0a       	sbc	r0, r29
  8004d7:	00 2f       	mov	r16, r16
  8004d9:	68 6f       	ori	r22, 0xF8	; 248
  8004db:	6d 65       	ori	r22, 0x5D	; 93
  8004dd:	2f 6d       	ori	r18, 0xDF	; 223
  8004df:	69 72       	andi	r22, 0x29	; 41
  8004e1:	6d 69       	ori	r22, 0x9D	; 157
  8004e3:	6b 2f       	mov	r22, r27
  8004e5:	70 72       	andi	r23, 0x20	; 32
  8004e7:	6f 6a       	ori	r22, 0xAF	; 175
  8004e9:	65 63       	ori	r22, 0x35	; 53
  8004eb:	74 2f       	mov	r23, r20
  8004ed:	63 72       	andi	r22, 0x23	; 35
  8004ef:	6f 77       	andi	r22, 0x7F	; 127
  8004f1:	2f 63       	ori	r18, 0x3F	; 63
  8004f3:	72 6f       	ori	r23, 0xF2	; 242
  8004f5:	77 2f       	mov	r23, r23
  8004f7:	73 72       	andi	r23, 0x23	; 35
  8004f9:	63 2f       	mov	r22, r19
  8004fb:	74 6f       	ori	r23, 0xF4	; 244
  8004fd:	77 65       	ori	r23, 0x57	; 87
  8004ff:	72 2e       	mov	r7, r18
  800501:	63 70       	andi	r22, 0x03	; 3
  800503:	70 00       	.word	0x0070	; ????
  800505:	70 61       	ori	r23, 0x10	; 16
  800507:	63 6b       	ori	r22, 0xB3	; 179
  800509:	2d 3e       	cpi	r18, 0xED	; 237
  80050b:	66 2e       	mov	r6, r22
  80050d:	72 65       	ori	r23, 0x52	; 82
  80050f:	6c 65       	ori	r22, 0x5C	; 92
  800511:	61 73       	andi	r22, 0x31	; 49
  800513:	65 64       	ori	r22, 0x45	; 69
  800515:	5f 62       	ori	r21, 0x2F	; 47
  800517:	79 5f       	subi	r23, 0xF9	; 249
  800519:	74 6f       	ori	r23, 0xF4	; 244
  80051b:	77 65       	ori	r23, 0x57	; 87
  80051d:	72 20       	and	r7, r2
  80051f:	3d 3d       	cpi	r19, 0xDD	; 221
  800521:	20 30       	cpi	r18, 0x00	; 0
	...

00800524 <_ctype>:
  800524:	08 08       	sbc	r0, r8
  800526:	08 08       	sbc	r0, r8
  800528:	08 08       	sbc	r0, r8
  80052a:	08 08       	sbc	r0, r8
  80052c:	08 28       	or	r0, r8
  80052e:	28 28       	or	r2, r8
  800530:	28 28       	or	r2, r8
  800532:	08 08       	sbc	r0, r8
  800534:	08 08       	sbc	r0, r8
  800536:	08 08       	sbc	r0, r8
  800538:	08 08       	sbc	r0, r8
  80053a:	08 08       	sbc	r0, r8
  80053c:	08 08       	sbc	r0, r8
  80053e:	08 08       	sbc	r0, r8
  800540:	08 08       	sbc	r0, r8
  800542:	08 08       	sbc	r0, r8
  800544:	a0 10       	cpse	r10, r0
  800546:	10 10       	cpse	r1, r0
  800548:	10 10       	cpse	r1, r0
  80054a:	10 10       	cpse	r1, r0
  80054c:	10 10       	cpse	r1, r0
  80054e:	10 10       	cpse	r1, r0
  800550:	10 10       	cpse	r1, r0
  800552:	10 10       	cpse	r1, r0
  800554:	04 04       	cpc	r0, r4
  800556:	04 04       	cpc	r0, r4
  800558:	04 04       	cpc	r0, r4
  80055a:	04 04       	cpc	r0, r4
  80055c:	04 04       	cpc	r0, r4
  80055e:	10 10       	cpse	r1, r0
  800560:	10 10       	cpse	r1, r0
  800562:	10 10       	cpse	r1, r0
  800564:	10 41       	sbci	r17, 0x10	; 16
  800566:	41 41       	sbci	r20, 0x11	; 17
  800568:	41 41       	sbci	r20, 0x11	; 17
  80056a:	41 01       	movw	r8, r2
  80056c:	01 01       	movw	r0, r2
  80056e:	01 01       	movw	r0, r2
  800570:	01 01       	movw	r0, r2
  800572:	01 01       	movw	r0, r2
  800574:	01 01       	movw	r0, r2
  800576:	01 01       	movw	r0, r2
  800578:	01 01       	movw	r0, r2
  80057a:	01 01       	movw	r0, r2
  80057c:	01 01       	movw	r0, r2
  80057e:	01 10       	cpse	r0, r1
  800580:	10 10       	cpse	r1, r0
  800582:	10 10       	cpse	r1, r0
  800584:	10 42       	sbci	r17, 0x20	; 32
  800586:	42 42       	sbci	r20, 0x22	; 34
  800588:	42 42       	sbci	r20, 0x22	; 34
  80058a:	42 02       	muls	r20, r18
  80058c:	02 02       	muls	r16, r18
  80058e:	02 02       	muls	r16, r18
  800590:	02 02       	muls	r16, r18
  800592:	02 02       	muls	r16, r18
  800594:	02 02       	muls	r16, r18
  800596:	02 02       	muls	r16, r18
  800598:	02 02       	muls	r16, r18
  80059a:	02 02       	muls	r16, r18
  80059c:	02 02       	muls	r16, r18
  80059e:	02 10       	cpse	r0, r2
  8005a0:	10 10       	cpse	r1, r0
  8005a2:	10 08       	sbc	r1, r0
	...
  8005c4:	a0 10       	cpse	r10, r0
  8005c6:	10 10       	cpse	r1, r0
  8005c8:	10 10       	cpse	r1, r0
  8005ca:	10 10       	cpse	r1, r0
  8005cc:	10 10       	cpse	r1, r0
  8005ce:	10 10       	cpse	r1, r0
  8005d0:	10 10       	cpse	r1, r0
  8005d2:	10 10       	cpse	r1, r0
  8005d4:	10 10       	cpse	r1, r0
  8005d6:	10 10       	cpse	r1, r0
  8005d8:	10 10       	cpse	r1, r0
  8005da:	10 10       	cpse	r1, r0
  8005dc:	10 10       	cpse	r1, r0
  8005de:	10 10       	cpse	r1, r0
  8005e0:	10 10       	cpse	r1, r0
  8005e2:	10 10       	cpse	r1, r0
  8005e4:	01 01       	movw	r0, r2
  8005e6:	01 01       	movw	r0, r2
  8005e8:	01 01       	movw	r0, r2
  8005ea:	01 01       	movw	r0, r2
  8005ec:	01 01       	movw	r0, r2
  8005ee:	01 01       	movw	r0, r2
  8005f0:	01 01       	movw	r0, r2
  8005f2:	01 01       	movw	r0, r2
  8005f4:	01 01       	movw	r0, r2
  8005f6:	01 01       	movw	r0, r2
  8005f8:	01 01       	movw	r0, r2
  8005fa:	01 10       	cpse	r0, r1
  8005fc:	01 01       	movw	r0, r2
  8005fe:	01 01       	movw	r0, r2
  800600:	01 01       	movw	r0, r2
  800602:	01 02       	muls	r16, r17
  800604:	02 02       	muls	r16, r18
  800606:	02 02       	muls	r16, r18
  800608:	02 02       	muls	r16, r18
  80060a:	02 02       	muls	r16, r18
  80060c:	02 02       	muls	r16, r18
  80060e:	02 02       	muls	r16, r18
  800610:	02 02       	muls	r16, r18
  800612:	02 02       	muls	r16, r18
  800614:	02 02       	muls	r16, r18
  800616:	02 02       	muls	r16, r18
  800618:	02 02       	muls	r16, r18
  80061a:	02 10       	cpse	r0, r2
  80061c:	02 02       	muls	r16, r18
  80061e:	02 02       	muls	r16, r18
  800620:	02 02       	muls	r16, r18
  800622:	02 02       	muls	r16, r18
  800624:	3a 20       	and	r3, r10
  800626:	3c 2d       	mov	r19, r12
  800628:	20 00       	.word	0x0020	; ????
  80062a:	2d 00       	.word	0x002d	; ????
  80062c:	2b 00       	.word	0x002b	; ????
  80062e:	30 78       	andi	r19, 0x80	; 128
  800630:	00 30       	cpi	r16, 0x00	; 0
  800632:	58 00       	.word	0x0058	; ????
  800634:	2f 68       	ori	r18, 0x8F	; 143
  800636:	6f 6d       	ori	r22, 0xDF	; 223
  800638:	65 2f       	mov	r22, r21
  80063a:	6d 69       	ori	r22, 0x9D	; 157
  80063c:	72 6d       	ori	r23, 0xD2	; 210
  80063e:	69 6b       	ori	r22, 0xB9	; 185
  800640:	2f 70       	andi	r18, 0x0F	; 15
  800642:	72 6f       	ori	r23, 0xF2	; 242
  800644:	6a 65       	ori	r22, 0x5A	; 90
  800646:	63 74       	andi	r22, 0x43	; 67
  800648:	2f 67       	ori	r18, 0x7F	; 127
  80064a:	78 78       	andi	r23, 0x88	; 136
  80064c:	2f 67       	ori	r18, 0x7F	; 127
  80064e:	78 78       	andi	r23, 0x88	; 136
  800650:	2f 73       	andi	r18, 0x3F	; 63
  800652:	72 63       	ori	r23, 0x32	; 50
  800654:	2f 70       	andi	r18, 0x0F	; 15
  800656:	72 69       	ori	r23, 0x92	; 146
  800658:	6e 74       	andi	r22, 0x4E	; 78
  80065a:	66 5f       	subi	r22, 0xF6	; 246
  80065c:	69 6d       	ori	r22, 0xD9	; 217
  80065e:	70 6c       	ori	r23, 0xC0	; 192
  800660:	2e 63       	ori	r18, 0x3E	; 62
  800662:	00 77       	andi	r16, 0x70	; 112
  800664:	69 64       	ori	r22, 0x49	; 73
  800666:	74 68       	ori	r23, 0x84	; 132
  800668:	20 3e       	cpi	r18, 0xE0	; 224
  80066a:	3d 20       	and	r3, r13
  80066c:	30 00       	.word	0x0030	; ????
  80066e:	6d 69       	ori	r22, 0x9D	; 157
  800670:	6e 5f       	subi	r22, 0xFE	; 254
  800672:	6c 65       	ori	r22, 0x5C	; 92
  800674:	6e 20       	and	r6, r14
  800676:	3e 3d       	cpi	r19, 0xDE	; 222
  800678:	20 30       	cpi	r18, 0x00	; 0
  80067a:	00 73       	andi	r16, 0x30	; 48
  80067c:	74 72       	andi	r23, 0x24	; 36
  80067e:	20 21       	and	r18, r0
  800680:	3d 20       	and	r3, r13
  800682:	4e 55       	subi	r20, 0x5E	; 94
  800684:	4c 4c       	sbci	r20, 0xCC	; 204
  800686:	00 6d       	ori	r16, 0xD0	; 208
  800688:	61 78       	andi	r22, 0x81	; 129
  80068a:	5f 6c       	ori	r21, 0xCF	; 207
  80068c:	65 6e       	ori	r22, 0xE5	; 229
  80068e:	20 3e       	cpi	r18, 0xE0	; 224
  800690:	3d 20       	and	r3, r13
  800692:	30 00       	.word	0x0030	; ????

00800694 <_ZTV13crow_uartgate>:
  800694:	00 00       	nop
  800696:	00 00       	nop
  800698:	45 0a       	sbc	r4, r21
  80069a:	fc 0b       	sbc	r31, r28

0080069c <_ZTV9avr_usart>:
  80069c:	00 00       	nop
  80069e:	00 00       	nop
  8006a0:	ab 09       	sbc	r26, r11
  8006a2:	9c 09       	sbc	r25, r12
  8006a4:	94 09       	sbc	r25, r4
  8006a6:	8b 09       	sbc	r24, r11
  8006a8:	82 09       	sbc	r24, r2
  8006aa:	79 09       	sbc	r23, r9
  8006ac:	81 0a       	sbc	r8, r17

008006ae <_ZTV17null_device_class>:
  8006ae:	00 00       	nop
  8006b0:	00 00       	nop
  8006b2:	24 09       	sbc	r18, r4
  8006b4:	24 09       	sbc	r18, r4
  8006b6:	34 09       	sbc	r19, r4
  8006b8:	2b 09       	sbc	r18, r11
  8006ba:	46 09       	sbc	r20, r6
  8006bc:	43 09       	sbc	r20, r3
  8006be:	40 09       	sbc	r20, r0
  8006c0:	22 09       	sbc	r18, r2
  8006c2:	27 09       	sbc	r18, r7
  8006c4:	2a 09       	sbc	r18, r10

008006c6 <_ZTV17zero_device_class>:
  8006c6:	00 00       	nop
  8006c8:	00 00       	nop
  8006ca:	24 09       	sbc	r18, r4
  8006cc:	24 09       	sbc	r18, r4
  8006ce:	34 09       	sbc	r19, r4
  8006d0:	2b 09       	sbc	r18, r11
  8006d2:	46 09       	sbc	r20, r6
  8006d4:	43 09       	sbc	r20, r3
  8006d6:	40 09       	sbc	r20, r0
  8006d8:	22 09       	sbc	r18, r2
  8006da:	2e 0a       	sbc	r2, r30
  8006dc:	2a 09       	sbc	r18, r10

008006de <_ZTV4node>:
  8006de:	00 00       	nop
  8006e0:	00 00       	nop
  8006e2:	3d 09       	sbc	r19, r13
  8006e4:	3d 09       	sbc	r19, r13
  8006e6:	49 09       	sbc	r20, r9
  8006e8:	49 09       	sbc	r20, r9
  8006ea:	46 09       	sbc	r20, r6
  8006ec:	43 09       	sbc	r20, r3
  8006ee:	40 09       	sbc	r20, r0

008006f0 <_ZTV18debug_device_class>:
  8006f0:	00 00       	nop
  8006f2:	00 00       	nop
  8006f4:	d9 0b       	sbc	r29, r25
  8006f6:	d0 0b       	sbc	r29, r16
  8006f8:	34 09       	sbc	r19, r4
  8006fa:	2b 09       	sbc	r18, r11
  8006fc:	46 09       	sbc	r20, r6
  8006fe:	43 09       	sbc	r20, r3
  800700:	40 09       	sbc	r20, r0
  800702:	3a 0a       	sbc	r3, r26
  800704:	2e 0a       	sbc	r2, r30
  800706:	2a 09       	sbc	r18, r10
  800708:	49 52       	subi	r20, 0x29	; 41
  80070a:	51 5f       	subi	r21, 0xF1	; 241
  80070c:	53 54       	subi	r21, 0x43	; 67
  80070e:	55 42       	sbci	r21, 0x25	; 37
  800710:	5f 00       	.word	0x005f	; ????

00800712 <_ZZ11schedee_runE19__PRETTY_FUNCTION__>:
  800712:	76 6f       	ori	r23, 0xF6	; 246
  800714:	69 64       	ori	r22, 0x49	; 73
  800716:	20 73       	andi	r18, 0x30	; 48
  800718:	63 68       	ori	r22, 0x83	; 131
  80071a:	65 64       	ori	r22, 0x45	; 69
  80071c:	65 65       	ori	r22, 0x55	; 85
  80071e:	5f 72       	andi	r21, 0x2F	; 47
  800720:	75 6e       	ori	r23, 0xE5	; 229
  800722:	28 73       	andi	r18, 0x38	; 56
  800724:	63 68       	ori	r22, 0x83	; 131
  800726:	65 64       	ori	r22, 0x45	; 69
  800728:	65 65       	ori	r22, 0x55	; 85
  80072a:	2a 29       	or	r18, r10
	...

0080072d <_ZZ17__schedee_executeP7schedeeE19__PRETTY_FUNCTION__>:
  80072d:	76 6f       	ori	r23, 0xF6	; 246
  80072f:	69 64       	ori	r22, 0x49	; 73
  800731:	20 5f       	subi	r18, 0xF0	; 240
  800733:	5f 73       	andi	r21, 0x3F	; 63
  800735:	63 68       	ori	r22, 0x83	; 131
  800737:	65 64       	ori	r22, 0x45	; 69
  800739:	65 65       	ori	r22, 0x55	; 85
  80073b:	5f 65       	ori	r21, 0x5F	; 95
  80073d:	78 65       	ori	r23, 0x58	; 88
  80073f:	63 75       	andi	r22, 0x53	; 83
  800741:	74 65       	ori	r23, 0x54	; 84
  800743:	28 73       	andi	r18, 0x38	; 56
  800745:	63 68       	ori	r22, 0x83	; 131
  800747:	65 64       	ori	r22, 0x45	; 69
  800749:	65 65       	ori	r22, 0x55	; 85
  80074b:	2a 29       	or	r18, r10
	...

0080074e <_ZZ15schedee_managerE19__PRETTY_FUNCTION__>:
  80074e:	76 6f       	ori	r23, 0xF6	; 246
  800750:	69 64       	ori	r22, 0x49	; 73
  800752:	20 73       	andi	r18, 0x30	; 48
  800754:	63 68       	ori	r22, 0x83	; 131
  800756:	65 64       	ori	r22, 0x45	; 69
  800758:	65 65       	ori	r22, 0x55	; 85
  80075a:	5f 6d       	ori	r21, 0xDF	; 223
  80075c:	61 6e       	ori	r22, 0xE1	; 225
  80075e:	61 67       	ori	r22, 0x71	; 113
  800760:	65 72       	andi	r22, 0x25	; 37
  800762:	28 29       	or	r18, r8
	...

00800765 <_ZZ12__displace__E19__PRETTY_FUNCTION__>:
  800765:	69 6e       	ori	r22, 0xE9	; 233
  800767:	74 20       	and	r7, r4
  800769:	5f 5f       	subi	r21, 0xFF	; 255
  80076b:	64 69       	ori	r22, 0x94	; 148
  80076d:	73 70       	andi	r23, 0x03	; 3
  80076f:	6c 61       	ori	r22, 0x1C	; 28
  800771:	63 65       	ori	r22, 0x53	; 83
  800773:	5f 5f       	subi	r21, 0xFF	; 255
  800775:	28 29       	or	r18, r8
	...

00800778 <_ZZ34__kill_stack_and_schedule_invoke__E19__PRETTY_FUNCTION__>:
  800778:	69 6e       	ori	r22, 0xE9	; 233
  80077a:	74 20       	and	r7, r4
  80077c:	5f 5f       	subi	r21, 0xFF	; 255
  80077e:	6b 69       	ori	r22, 0x9B	; 155
  800780:	6c 6c       	ori	r22, 0xCC	; 204
  800782:	5f 73       	andi	r21, 0x3F	; 63
  800784:	74 61       	ori	r23, 0x14	; 20
  800786:	63 6b       	ori	r22, 0xB3	; 179
  800788:	5f 61       	ori	r21, 0x1F	; 31
  80078a:	6e 64       	ori	r22, 0x4E	; 78
  80078c:	5f 73       	andi	r21, 0x3F	; 63
  80078e:	63 68       	ori	r22, 0x83	; 131
  800790:	65 64       	ori	r22, 0x45	; 69
  800792:	75 6c       	ori	r23, 0xC5	; 197
  800794:	65 5f       	subi	r22, 0xF5	; 245
  800796:	69 6e       	ori	r22, 0xE9	; 233
  800798:	76 6f       	ori	r23, 0xF6	; 246
  80079a:	6b 65       	ori	r22, 0x5B	; 91
  80079c:	5f 5f       	subi	r21, 0xFF	; 255
  80079e:	28 29       	or	r18, r8
	...

Disassembly of section .text:

00000000 <_stext>:
       0:	0c 94 c8 00 	jmp	0x190	; 0x190 <__start>
       4:	0c 94 46 01 	jmp	0x28c	; 0x28c <atmega_int0>
       8:	0c 94 49 01 	jmp	0x292	; 0x292 <atmega_int1>
       c:	0c 94 4c 01 	jmp	0x298	; 0x298 <atmega_int2>
      10:	0c 94 4f 01 	jmp	0x29e	; 0x29e <atmega_int3>
      14:	0c 94 52 01 	jmp	0x2a4	; 0x2a4 <atmega_int4>
      18:	0c 94 55 01 	jmp	0x2aa	; 0x2aa <atmega_int5>
      1c:	0c 94 58 01 	jmp	0x2b0	; 0x2b0 <atmega_int6>
      20:	0c 94 5b 01 	jmp	0x2b6	; 0x2b6 <atmega_int7>
      24:	0c 94 5e 01 	jmp	0x2bc	; 0x2bc <atmega_pcint0>
      28:	0c 94 61 01 	jmp	0x2c2	; 0x2c2 <atmega_pcint1>
      2c:	0c 94 64 01 	jmp	0x2c8	; 0x2c8 <atmega_pcint2>
      30:	0c 94 67 01 	jmp	0x2ce	; 0x2ce <atmega_wdt>
      34:	0c 94 6a 01 	jmp	0x2d4	; 0x2d4 <atmega_tim2_compa>
      38:	0c 94 6d 01 	jmp	0x2da	; 0x2da <atmega_tim2_compb>
      3c:	0c 94 70 01 	jmp	0x2e0	; 0x2e0 <atmega_tim2_ovf>
      40:	0c 94 73 01 	jmp	0x2e6	; 0x2e6 <atmega_tim1_capt>
      44:	0c 94 76 01 	jmp	0x2ec	; 0x2ec <atmega_tim1_compa>
      48:	0c 94 79 01 	jmp	0x2f2	; 0x2f2 <atmega_tim1_compb>
      4c:	0c 94 7c 01 	jmp	0x2f8	; 0x2f8 <atmega_tim1_compc>
      50:	0c 94 7f 01 	jmp	0x2fe	; 0x2fe <atmega_tim1_ovf>
      54:	0c 94 82 01 	jmp	0x304	; 0x304 <atmega_tim0_compa>
      58:	0c 94 85 01 	jmp	0x30a	; 0x30a <atmega_tim0_compb>
      5c:	0c 94 88 01 	jmp	0x310	; 0x310 <atmega_tim0_ovf>
      60:	0c 94 8b 01 	jmp	0x316	; 0x316 <atmega_spi_stc>
      64:	0c 94 8e 01 	jmp	0x31c	; 0x31c <atmega_u0rx>
      68:	0c 94 91 01 	jmp	0x322	; 0x322 <atmega_u0dre>
      6c:	0c 94 94 01 	jmp	0x328	; 0x328 <atmega_u0tx>
      70:	0c 94 97 01 	jmp	0x32e	; 0x32e <atmega_ana_comp>
      74:	0c 94 9a 01 	jmp	0x334	; 0x334 <atmega_adc>
      78:	0c 94 9d 01 	jmp	0x33a	; 0x33a <atmega_ee_rdy>
      7c:	0c 94 a0 01 	jmp	0x340	; 0x340 <atmega_tim3_capt>
      80:	0c 94 a3 01 	jmp	0x346	; 0x346 <atmega_tim3_compa>
      84:	0c 94 a6 01 	jmp	0x34c	; 0x34c <atmega_tim3_compb>
      88:	0c 94 a9 01 	jmp	0x352	; 0x352 <atmega_tim3_compc>
      8c:	0c 94 ac 01 	jmp	0x358	; 0x358 <atmega_tim3_ovf>
      90:	0c 94 af 01 	jmp	0x35e	; 0x35e <atmega_u1rx>
      94:	0c 94 b2 01 	jmp	0x364	; 0x364 <atmega_u1dre>
      98:	0c 94 b5 01 	jmp	0x36a	; 0x36a <atmega_u1tx>
      9c:	0c 94 b8 01 	jmp	0x370	; 0x370 <atmega_twi>
      a0:	0c 94 bb 01 	jmp	0x376	; 0x376 <atmega_spm_rdy>
      a4:	0c 94 be 01 	jmp	0x37c	; 0x37c <atmega_tim4_capt>
      a8:	0c 94 c1 01 	jmp	0x382	; 0x382 <atmega_tim4_compa>
      ac:	0c 94 c4 01 	jmp	0x388	; 0x388 <atmega_tim4_compb>
      b0:	0c 94 c7 01 	jmp	0x38e	; 0x38e <atmega_tim4_compc>
      b4:	0c 94 ca 01 	jmp	0x394	; 0x394 <atmega_tim4_ovf>
      b8:	0c 94 cd 01 	jmp	0x39a	; 0x39a <atmega_tim5_capt>
      bc:	0c 94 d0 01 	jmp	0x3a0	; 0x3a0 <atmega_tim5_compa>
      c0:	0c 94 d3 01 	jmp	0x3a6	; 0x3a6 <atmega_tim5_compb>
      c4:	0c 94 d6 01 	jmp	0x3ac	; 0x3ac <atmega_tim5_compc>
      c8:	0c 94 d9 01 	jmp	0x3b2	; 0x3b2 <atmega_tim5_ovf>
      cc:	0c 94 dc 01 	jmp	0x3b8	; 0x3b8 <atmega_u2rx>
      d0:	0c 94 df 01 	jmp	0x3be	; 0x3be <atmega_u2dre>
      d4:	0c 94 e2 01 	jmp	0x3c4	; 0x3c4 <atmega_u2tx>
      d8:	0c 94 e5 01 	jmp	0x3ca	; 0x3ca <atmega_u3rx>
      dc:	0c 94 e8 01 	jmp	0x3d0	; 0x3d0 <atmega_u3dre>
      e0:	0c 94 eb 01 	jmp	0x3d6	; 0x3d6 <atmega_u3tx>
      e4:	0c 94 5e 06 	jmp	0xcbc	; 0xcbc <_Z8mainprocPv>
      e8:	0c 94 a1 14 	jmp	0x2942	; 0x2942 <irq_stub>
      ec:	0c 94 8b 09 	jmp	0x1316	; 0x1316 <_ZN9avr_usart8sendbyteEi>
      f0:	0c 94 5b 09 	jmp	0x12b6	; 0x12b6 <_ZL12_dre_handlerPv.lto_priv.78>
      f4:	0c 94 46 09 	jmp	0x128c	; 0x128c <_ZN4node7iterateEP4filePv>
      f8:	0c 94 25 0f 	jmp	0x1e4a	; 0x1e4a <_ZL27cooperative_schedee_executeP7schedee.lto_priv.116>
      fc:	0c 94 82 09 	jmp	0x1304	; 0x1304 <_ZN9avr_usart5cantxEv>
     100:	0c 94 e2 0e 	jmp	0x1dc4	; 0x1dc4 <_ZL28cooperative_schedee_finalizeP7schedee.lto_priv.118>
     104:	0c 94 ab 09 	jmp	0x1356	; 0x1356 <_ZN9avr_usart6enableEb>
     108:	0c 94 2e 0a 	jmp	0x145c	; 0x145c <_ZN17zero_device_class4readEPcj>
     10c:	0c 94 6a 09 	jmp	0x12d4	; 0x12d4 <_ZL11_rx_handlerPv.lto_priv.77>
     110:	0c 94 16 14 	jmp	0x282c	; 0x282c <usart0_diag_putchar>
     114:	0c 94 2a 09 	jmp	0x1254	; 0x1254 <_ZN11char_device8waitreadEv>
     118:	0c 94 08 03 	jmp	0x610	; 0x610 <_Z13user_incomingPN4crow6packetE>
     11c:	0c 94 2b 14 	jmp	0x2856	; 0x2856 <do_nothing>
     120:	0c 94 01 0f 	jmp	0x1e02	; 0x1e02 <_ZL28cooperative_schedee_displaceP7schedee.lto_priv.117>
     124:	0c 94 27 09 	jmp	0x124e	; 0x124e <_ZN17null_device_class4readEPcj>
     128:	0c 94 fc 0b 	jmp	0x17f8	; 0x17f8 <_ZN13crow_uartgate14nblock_onestepEv>
     12c:	0c 94 ae 0a 	jmp	0x155c	; 0x155c <__unsleep>
     130:	0c 94 43 09 	jmp	0x1286	; 0x1286 <_ZN4node5mkdirEPKcji>
     134:	0c 94 3d 09 	jmp	0x127a	; 0x127a <_ZN4node4openEP4file>
     138:	0c 94 81 0d 	jmp	0x1b02	; 0x1b02 <_Z16uartgate_handlerPvi>
     13c:	0c 94 b8 12 	jmp	0x2570	; 0x2570 <_GLOBAL__I_65535_0_main.o.6050>
     140:	0c 94 4c 09 	jmp	0x1298	; 0x1298 <_ZL11_tx_handlerPv.lto_priv.79>
     144:	0c 94 34 09 	jmp	0x1268	; 0x1268 <_ZN11char_device5writeEP4filePKcj>
     148:	0c 94 79 09 	jmp	0x12f2	; 0x12f2 <_ZN9avr_usart5hasrxEv>
     14c:	0c 94 3a 0a 	jmp	0x1474	; 0x1474 <_ZN18debug_device_class5writeEPKcj>
     150:	0c 94 24 09 	jmp	0x1248	; 0x1248 <_ZN17null_device_class4openEP4file>
     154:	0c 94 40 09 	jmp	0x1280	; 0x1280 <_ZN4node5rmdirEv>
     158:	0c 94 94 09 	jmp	0x1328	; 0x1328 <_ZN9avr_usart8recvbyteEv>
     15c:	0c 94 96 18 	jmp	0x312c	; 0x312c <__divdi3_moddi3+0x16>
     160:	0c 94 22 09 	jmp	0x1244	; 0x1244 <_ZN17null_device_class5writeEPKcj>
     164:	0c 94 9c 09 	jmp	0x1338	; 0x1338 <_ZN9avr_usart5txirqEb>
     168:	0c 94 d9 0b 	jmp	0x17b2	; 0x17b2 <_ZN18debug_device_class4openEP4file>
     16c:	0c 94 81 0a 	jmp	0x1502	; 0x1502 <_ZN9avr_usart5setupEl13uart_parity_ehh>
     170:	0c 94 92 12 	jmp	0x2524	; 0x2524 <_GLOBAL__D_65535_1_main.o.6052>
     174:	0c 94 d0 0b 	jmp	0x17a0	; 0x17a0 <_ZN18debug_device_class7releaseEP4file>
     178:	0c 94 49 09 	jmp	0x1292	; 0x1292 <_ZN4node4readEP4filePcj>
     17c:	0c 94 45 0a 	jmp	0x148a	; 0x148a <_ZN13crow_uartgate4sendEPN4crow6packetE>
     180:	0c 94 f2 13 	jmp	0x27e4	; 0x27e4 <system_tick>
     184:	0c 94 73 14 	jmp	0x28e6	; 0x28e6 <diag_write_stub>
     188:	0c 94 45 0f 	jmp	0x1e8a	; 0x1e8a <_ZL7starterPv.lto_priv.114>
     18c:	0c 94 2b 09 	jmp	0x1256	; 0x1256 <_ZN11char_device4readEP4filePcj>

00000190 <__start>:
     190:	f8 94       	cli
     192:	00 24       	eor	r0, r0
     194:	11 24       	eor	r1, r1
     196:	22 24       	eor	r2, r2
     198:	33 24       	eor	r3, r3
     19a:	44 24       	eor	r4, r4
     19c:	55 24       	eor	r5, r5
     19e:	66 24       	eor	r6, r6
     1a0:	77 24       	eor	r7, r7
     1a2:	88 24       	eor	r8, r8
     1a4:	99 24       	eor	r9, r9
     1a6:	aa 24       	eor	r10, r10
     1a8:	bb 24       	eor	r11, r11
     1aa:	cc 24       	eor	r12, r12
     1ac:	dd 24       	eor	r13, r13
     1ae:	ee 24       	eor	r14, r14
     1b0:	ff 24       	eor	r15, r15
     1b2:	00 27       	eor	r16, r16
     1b4:	11 27       	eor	r17, r17
     1b6:	22 27       	eor	r18, r18
     1b8:	33 27       	eor	r19, r19
     1ba:	44 27       	eor	r20, r20
     1bc:	55 27       	eor	r21, r21
     1be:	66 27       	eor	r22, r22
     1c0:	88 27       	eor	r24, r24
     1c2:	99 27       	eor	r25, r25
     1c4:	aa 27       	eor	r26, r26
     1c6:	bb 27       	eor	r27, r27
     1c8:	cc 27       	eor	r28, r28
     1ca:	dd 27       	eor	r29, r29
     1cc:	ee 27       	eor	r30, r30
     1ce:	ff 27       	eor	r31, r31
     1d0:	00 e0       	ldi	r16, 0x00	; 0
     1d2:	0c bf       	out	0x3c, r16	; 60
     1d4:	00 e0       	ldi	r16, 0x00	; 0
     1d6:	0b bf       	out	0x3b, r16	; 59
     1d8:	11 24       	eor	r1, r1
     1da:	1f be       	out	0x3f, r1	; 63
     1dc:	cf ef       	ldi	r28, 0xFF	; 255
     1de:	d1 e2       	ldi	r29, 0x21	; 33
     1e0:	de bf       	out	0x3e, r29	; 62
     1e2:	cd bf       	out	0x3d, r28	; 61

000001e4 <__do_copy_data>:
     1e4:	17 e0       	ldi	r17, 0x07	; 7
     1e6:	a0 e0       	ldi	r26, 0x00	; 0
     1e8:	b2 e0       	ldi	r27, 0x02	; 2
     1ea:	e2 e4       	ldi	r30, 0x42	; 66
     1ec:	f3 e3       	ldi	r31, 0x33	; 51
     1ee:	00 e0       	ldi	r16, 0x00	; 0
     1f0:	0b bf       	out	0x3b, r16	; 59
     1f2:	02 c0       	rjmp	.+4      	; 0x1f8 <__do_copy_data+0x14>
     1f4:	07 90       	elpm	r0, Z+
     1f6:	0d 92       	st	X+, r0
     1f8:	a1 3a       	cpi	r26, 0xA1	; 161
     1fa:	b1 07       	cpc	r27, r17
     1fc:	d9 f7       	brne	.-10     	; 0x1f4 <__do_copy_data+0x10>

000001fe <__do_clear_bss>:
     1fe:	19 e0       	ldi	r17, 0x09	; 9
     200:	a1 ea       	ldi	r26, 0xA1	; 161
     202:	b7 e0       	ldi	r27, 0x07	; 7
     204:	01 c0       	rjmp	.+2      	; 0x208 <__do_clear_bss+0xa>
     206:	1d 92       	st	X+, r1
     208:	ab 3d       	cpi	r26, 0xDB	; 219
     20a:	b1 07       	cpc	r27, r17
     20c:	e1 f7       	brne	.-8      	; 0x206 <__do_clear_bss+0x8>

0000020e <__do_global_constructors>:
     20e:	ea e6       	ldi	r30, 0x6A	; 106
     210:	f4 e0       	ldi	r31, 0x04	; 4
     212:	24 e0       	ldi	r18, 0x04	; 4
     214:	00 e0       	ldi	r16, 0x00	; 0
     216:	0b bf       	out	0x3b, r16	; 59
     218:	0f c0       	rjmp	.+30     	; 0x238 <__do_global_constructors+0x2a>
     21a:	07 91       	elpm	r16, Z+
     21c:	17 91       	elpm	r17, Z+
     21e:	ef 93       	push	r30
     220:	ff 93       	push	r31
     222:	e0 2f       	mov	r30, r16
     224:	f1 2f       	mov	r31, r17
     226:	0f 93       	push	r16
     228:	1f 93       	push	r17
     22a:	2f 93       	push	r18
     22c:	09 95       	icall
     22e:	2f 91       	pop	r18
     230:	1f 91       	pop	r17
     232:	0f 91       	pop	r16
     234:	ff 91       	pop	r31
     236:	ef 91       	pop	r30
     238:	ec 36       	cpi	r30, 0x6C	; 108
     23a:	f2 07       	cpc	r31, r18
     23c:	71 f7       	brne	.-36     	; 0x21a <__do_global_constructors+0xc>
     23e:	0e 94 96 04 	call	0x92c	; 0x92c <main>
     242:	0c 94 2c 14 	jmp	0x2858	; 0x2858 <end_of_programm>

00000246 <do_irq>:
     246:	90 91 ca 09 	lds	r25, 0x09CA	; 0x8009ca <__interrupt_context>
     24a:	9f 5f       	subi	r25, 0xFF	; 255
     24c:	90 93 ca 09 	sts	0x09CA, r25	; 0x8009ca <__interrupt_context>
     250:	26 e0       	ldi	r18, 0x06	; 6
     252:	82 9f       	mul	r24, r18
     254:	c0 01       	movw	r24, r0
     256:	11 24       	eor	r1, r1
     258:	dc 01       	movw	r26, r24
     25a:	a9 54       	subi	r26, 0x49	; 73
     25c:	b8 4f       	sbci	r27, 0xF8	; 248
     25e:	14 96       	adiw	r26, 0x04	; 4
     260:	8d 91       	ld	r24, X+
     262:	9c 91       	ld	r25, X
     264:	15 97       	sbiw	r26, 0x05	; 5
     266:	01 96       	adiw	r24, 0x01	; 1
     268:	15 96       	adiw	r26, 0x05	; 5
     26a:	9c 93       	st	X, r25
     26c:	8e 93       	st	-X, r24
     26e:	14 97       	sbiw	r26, 0x04	; 4
     270:	ed 91       	ld	r30, X+
     272:	fc 91       	ld	r31, X
     274:	11 97       	sbiw	r26, 0x01	; 1
     276:	12 96       	adiw	r26, 0x02	; 2
     278:	8d 91       	ld	r24, X+
     27a:	9c 91       	ld	r25, X
     27c:	13 97       	sbiw	r26, 0x03	; 3
     27e:	19 95       	eicall
     280:	80 91 ca 09 	lds	r24, 0x09CA	; 0x8009ca <__interrupt_context>
     284:	81 50       	subi	r24, 0x01	; 1
     286:	80 93 ca 09 	sts	0x09CA, r24	; 0x8009ca <__interrupt_context>
     28a:	08 95       	ret

0000028c <atmega_int0>:
     28c:	8f 93       	push	r24
     28e:	80 e0       	ldi	r24, 0x00	; 0
     290:	a5 c0       	rjmp	.+330    	; 0x3dc <excpt_common>

00000292 <atmega_int1>:
     292:	8f 93       	push	r24
     294:	81 e0       	ldi	r24, 0x01	; 1
     296:	a2 c0       	rjmp	.+324    	; 0x3dc <excpt_common>

00000298 <atmega_int2>:
     298:	8f 93       	push	r24
     29a:	82 e0       	ldi	r24, 0x02	; 2
     29c:	9f c0       	rjmp	.+318    	; 0x3dc <excpt_common>

0000029e <atmega_int3>:
     29e:	8f 93       	push	r24
     2a0:	83 e0       	ldi	r24, 0x03	; 3
     2a2:	9c c0       	rjmp	.+312    	; 0x3dc <excpt_common>

000002a4 <atmega_int4>:
     2a4:	8f 93       	push	r24
     2a6:	84 e0       	ldi	r24, 0x04	; 4
     2a8:	99 c0       	rjmp	.+306    	; 0x3dc <excpt_common>

000002aa <atmega_int5>:
     2aa:	8f 93       	push	r24
     2ac:	85 e0       	ldi	r24, 0x05	; 5
     2ae:	96 c0       	rjmp	.+300    	; 0x3dc <excpt_common>

000002b0 <atmega_int6>:
     2b0:	8f 93       	push	r24
     2b2:	86 e0       	ldi	r24, 0x06	; 6
     2b4:	93 c0       	rjmp	.+294    	; 0x3dc <excpt_common>

000002b6 <atmega_int7>:
     2b6:	8f 93       	push	r24
     2b8:	87 e0       	ldi	r24, 0x07	; 7
     2ba:	90 c0       	rjmp	.+288    	; 0x3dc <excpt_common>

000002bc <atmega_pcint0>:
     2bc:	8f 93       	push	r24
     2be:	88 e0       	ldi	r24, 0x08	; 8
     2c0:	8d c0       	rjmp	.+282    	; 0x3dc <excpt_common>

000002c2 <atmega_pcint1>:
     2c2:	8f 93       	push	r24
     2c4:	89 e0       	ldi	r24, 0x09	; 9
     2c6:	8a c0       	rjmp	.+276    	; 0x3dc <excpt_common>

000002c8 <atmega_pcint2>:
     2c8:	8f 93       	push	r24
     2ca:	8a e0       	ldi	r24, 0x0A	; 10
     2cc:	87 c0       	rjmp	.+270    	; 0x3dc <excpt_common>

000002ce <atmega_wdt>:
     2ce:	8f 93       	push	r24
     2d0:	8b e0       	ldi	r24, 0x0B	; 11
     2d2:	84 c0       	rjmp	.+264    	; 0x3dc <excpt_common>

000002d4 <atmega_tim2_compa>:
     2d4:	8f 93       	push	r24
     2d6:	8c e0       	ldi	r24, 0x0C	; 12
     2d8:	81 c0       	rjmp	.+258    	; 0x3dc <excpt_common>

000002da <atmega_tim2_compb>:
     2da:	8f 93       	push	r24
     2dc:	8d e0       	ldi	r24, 0x0D	; 13
     2de:	7e c0       	rjmp	.+252    	; 0x3dc <excpt_common>

000002e0 <atmega_tim2_ovf>:
     2e0:	8f 93       	push	r24
     2e2:	8e e0       	ldi	r24, 0x0E	; 14
     2e4:	7b c0       	rjmp	.+246    	; 0x3dc <excpt_common>

000002e6 <atmega_tim1_capt>:
     2e6:	8f 93       	push	r24
     2e8:	8f e0       	ldi	r24, 0x0F	; 15
     2ea:	78 c0       	rjmp	.+240    	; 0x3dc <excpt_common>

000002ec <atmega_tim1_compa>:
     2ec:	8f 93       	push	r24
     2ee:	80 e1       	ldi	r24, 0x10	; 16
     2f0:	75 c0       	rjmp	.+234    	; 0x3dc <excpt_common>

000002f2 <atmega_tim1_compb>:
     2f2:	8f 93       	push	r24
     2f4:	81 e1       	ldi	r24, 0x11	; 17
     2f6:	72 c0       	rjmp	.+228    	; 0x3dc <excpt_common>

000002f8 <atmega_tim1_compc>:
     2f8:	8f 93       	push	r24
     2fa:	82 e1       	ldi	r24, 0x12	; 18
     2fc:	6f c0       	rjmp	.+222    	; 0x3dc <excpt_common>

000002fe <atmega_tim1_ovf>:
     2fe:	8f 93       	push	r24
     300:	83 e1       	ldi	r24, 0x13	; 19
     302:	6c c0       	rjmp	.+216    	; 0x3dc <excpt_common>

00000304 <atmega_tim0_compa>:
     304:	8f 93       	push	r24
     306:	84 e1       	ldi	r24, 0x14	; 20
     308:	69 c0       	rjmp	.+210    	; 0x3dc <excpt_common>

0000030a <atmega_tim0_compb>:
     30a:	8f 93       	push	r24
     30c:	85 e1       	ldi	r24, 0x15	; 21
     30e:	66 c0       	rjmp	.+204    	; 0x3dc <excpt_common>

00000310 <atmega_tim0_ovf>:
     310:	8f 93       	push	r24
     312:	86 e1       	ldi	r24, 0x16	; 22
     314:	63 c0       	rjmp	.+198    	; 0x3dc <excpt_common>

00000316 <atmega_spi_stc>:
     316:	8f 93       	push	r24
     318:	87 e1       	ldi	r24, 0x17	; 23
     31a:	60 c0       	rjmp	.+192    	; 0x3dc <excpt_common>

0000031c <atmega_u0rx>:
     31c:	8f 93       	push	r24
     31e:	88 e1       	ldi	r24, 0x18	; 24
     320:	5d c0       	rjmp	.+186    	; 0x3dc <excpt_common>

00000322 <atmega_u0dre>:
     322:	8f 93       	push	r24
     324:	89 e1       	ldi	r24, 0x19	; 25
     326:	5a c0       	rjmp	.+180    	; 0x3dc <excpt_common>

00000328 <atmega_u0tx>:
     328:	8f 93       	push	r24
     32a:	8a e1       	ldi	r24, 0x1A	; 26
     32c:	57 c0       	rjmp	.+174    	; 0x3dc <excpt_common>

0000032e <atmega_ana_comp>:
     32e:	8f 93       	push	r24
     330:	8b e1       	ldi	r24, 0x1B	; 27
     332:	54 c0       	rjmp	.+168    	; 0x3dc <excpt_common>

00000334 <atmega_adc>:
     334:	8f 93       	push	r24
     336:	8c e1       	ldi	r24, 0x1C	; 28
     338:	51 c0       	rjmp	.+162    	; 0x3dc <excpt_common>

0000033a <atmega_ee_rdy>:
     33a:	8f 93       	push	r24
     33c:	8d e1       	ldi	r24, 0x1D	; 29
     33e:	4e c0       	rjmp	.+156    	; 0x3dc <excpt_common>

00000340 <atmega_tim3_capt>:
     340:	8f 93       	push	r24
     342:	8e e1       	ldi	r24, 0x1E	; 30
     344:	4b c0       	rjmp	.+150    	; 0x3dc <excpt_common>

00000346 <atmega_tim3_compa>:
     346:	8f 93       	push	r24
     348:	8f e1       	ldi	r24, 0x1F	; 31
     34a:	48 c0       	rjmp	.+144    	; 0x3dc <excpt_common>

0000034c <atmega_tim3_compb>:
     34c:	8f 93       	push	r24
     34e:	80 e2       	ldi	r24, 0x20	; 32
     350:	45 c0       	rjmp	.+138    	; 0x3dc <excpt_common>

00000352 <atmega_tim3_compc>:
     352:	8f 93       	push	r24
     354:	81 e2       	ldi	r24, 0x21	; 33
     356:	42 c0       	rjmp	.+132    	; 0x3dc <excpt_common>

00000358 <atmega_tim3_ovf>:
     358:	8f 93       	push	r24
     35a:	82 e2       	ldi	r24, 0x22	; 34
     35c:	3f c0       	rjmp	.+126    	; 0x3dc <excpt_common>

0000035e <atmega_u1rx>:
     35e:	8f 93       	push	r24
     360:	83 e2       	ldi	r24, 0x23	; 35
     362:	3c c0       	rjmp	.+120    	; 0x3dc <excpt_common>

00000364 <atmega_u1dre>:
     364:	8f 93       	push	r24
     366:	84 e2       	ldi	r24, 0x24	; 36
     368:	39 c0       	rjmp	.+114    	; 0x3dc <excpt_common>

0000036a <atmega_u1tx>:
     36a:	8f 93       	push	r24
     36c:	85 e2       	ldi	r24, 0x25	; 37
     36e:	36 c0       	rjmp	.+108    	; 0x3dc <excpt_common>

00000370 <atmega_twi>:
     370:	8f 93       	push	r24
     372:	86 e2       	ldi	r24, 0x26	; 38
     374:	33 c0       	rjmp	.+102    	; 0x3dc <excpt_common>

00000376 <atmega_spm_rdy>:
     376:	8f 93       	push	r24
     378:	87 e2       	ldi	r24, 0x27	; 39
     37a:	30 c0       	rjmp	.+96     	; 0x3dc <excpt_common>

0000037c <atmega_tim4_capt>:
     37c:	8f 93       	push	r24
     37e:	88 e2       	ldi	r24, 0x28	; 40
     380:	2d c0       	rjmp	.+90     	; 0x3dc <excpt_common>

00000382 <atmega_tim4_compa>:
     382:	8f 93       	push	r24
     384:	89 e2       	ldi	r24, 0x29	; 41
     386:	2a c0       	rjmp	.+84     	; 0x3dc <excpt_common>

00000388 <atmega_tim4_compb>:
     388:	8f 93       	push	r24
     38a:	8a e2       	ldi	r24, 0x2A	; 42
     38c:	27 c0       	rjmp	.+78     	; 0x3dc <excpt_common>

0000038e <atmega_tim4_compc>:
     38e:	8f 93       	push	r24
     390:	8b e2       	ldi	r24, 0x2B	; 43
     392:	24 c0       	rjmp	.+72     	; 0x3dc <excpt_common>

00000394 <atmega_tim4_ovf>:
     394:	8f 93       	push	r24
     396:	8c e2       	ldi	r24, 0x2C	; 44
     398:	21 c0       	rjmp	.+66     	; 0x3dc <excpt_common>

0000039a <atmega_tim5_capt>:
     39a:	8f 93       	push	r24
     39c:	8d e2       	ldi	r24, 0x2D	; 45
     39e:	1e c0       	rjmp	.+60     	; 0x3dc <excpt_common>

000003a0 <atmega_tim5_compa>:
     3a0:	8f 93       	push	r24
     3a2:	8e e2       	ldi	r24, 0x2E	; 46
     3a4:	1b c0       	rjmp	.+54     	; 0x3dc <excpt_common>

000003a6 <atmega_tim5_compb>:
     3a6:	8f 93       	push	r24
     3a8:	8f e2       	ldi	r24, 0x2F	; 47
     3aa:	18 c0       	rjmp	.+48     	; 0x3dc <excpt_common>

000003ac <atmega_tim5_compc>:
     3ac:	8f 93       	push	r24
     3ae:	80 e3       	ldi	r24, 0x30	; 48
     3b0:	15 c0       	rjmp	.+42     	; 0x3dc <excpt_common>

000003b2 <atmega_tim5_ovf>:
     3b2:	8f 93       	push	r24
     3b4:	81 e3       	ldi	r24, 0x31	; 49
     3b6:	12 c0       	rjmp	.+36     	; 0x3dc <excpt_common>

000003b8 <atmega_u2rx>:
     3b8:	8f 93       	push	r24
     3ba:	82 e3       	ldi	r24, 0x32	; 50
     3bc:	0f c0       	rjmp	.+30     	; 0x3dc <excpt_common>

000003be <atmega_u2dre>:
     3be:	8f 93       	push	r24
     3c0:	83 e3       	ldi	r24, 0x33	; 51
     3c2:	0c c0       	rjmp	.+24     	; 0x3dc <excpt_common>

000003c4 <atmega_u2tx>:
     3c4:	8f 93       	push	r24
     3c6:	84 e3       	ldi	r24, 0x34	; 52
     3c8:	09 c0       	rjmp	.+18     	; 0x3dc <excpt_common>

000003ca <atmega_u3rx>:
     3ca:	8f 93       	push	r24
     3cc:	85 e3       	ldi	r24, 0x35	; 53
     3ce:	06 c0       	rjmp	.+12     	; 0x3dc <excpt_common>

000003d0 <atmega_u3dre>:
     3d0:	8f 93       	push	r24
     3d2:	86 e3       	ldi	r24, 0x36	; 54
     3d4:	03 c0       	rjmp	.+6      	; 0x3dc <excpt_common>

000003d6 <atmega_u3tx>:
     3d6:	8f 93       	push	r24
     3d8:	87 e3       	ldi	r24, 0x37	; 55
     3da:	00 c0       	rjmp	.+0      	; 0x3dc <excpt_common>

000003dc <excpt_common>:
     3dc:	9f 93       	push	r25
     3de:	9f b7       	in	r25, 0x3f	; 63
     3e0:	9f 93       	push	r25
     3e2:	0f 92       	push	r0
     3e4:	1f 92       	push	r1
     3e6:	11 24       	eor	r1, r1
     3e8:	2f 92       	push	r2
     3ea:	3f 92       	push	r3
     3ec:	4f 92       	push	r4
     3ee:	5f 92       	push	r5
     3f0:	6f 92       	push	r6
     3f2:	7f 92       	push	r7
     3f4:	8f 92       	push	r8
     3f6:	9f 92       	push	r9
     3f8:	af 92       	push	r10
     3fa:	bf 92       	push	r11
     3fc:	cf 92       	push	r12
     3fe:	df 92       	push	r13
     400:	ef 92       	push	r14
     402:	ff 92       	push	r15
     404:	0f 93       	push	r16
     406:	1f 93       	push	r17
     408:	2f 93       	push	r18
     40a:	3f 93       	push	r19
     40c:	4f 93       	push	r20
     40e:	5f 93       	push	r21
     410:	6f 93       	push	r22
     412:	7f 93       	push	r23
     414:	cf 93       	push	r28
     416:	df 93       	push	r29
     418:	ef 93       	push	r30
     41a:	ff 93       	push	r31
     41c:	af 93       	push	r26
     41e:	bf 93       	push	r27
     420:	12 df       	rcall	.-476    	; 0x246 <do_irq>
     422:	bf 91       	pop	r27
     424:	af 91       	pop	r26
     426:	ff 91       	pop	r31
     428:	ef 91       	pop	r30
     42a:	df 91       	pop	r29
     42c:	cf 91       	pop	r28
     42e:	7f 91       	pop	r23
     430:	6f 91       	pop	r22
     432:	5f 91       	pop	r21
     434:	4f 91       	pop	r20
     436:	3f 91       	pop	r19
     438:	2f 91       	pop	r18
     43a:	1f 91       	pop	r17
     43c:	0f 91       	pop	r16
     43e:	ff 90       	pop	r15
     440:	ef 90       	pop	r14
     442:	df 90       	pop	r13
     444:	cf 90       	pop	r12
     446:	bf 90       	pop	r11
     448:	af 90       	pop	r10
     44a:	9f 90       	pop	r9
     44c:	8f 90       	pop	r8
     44e:	7f 90       	pop	r7
     450:	6f 90       	pop	r6
     452:	5f 90       	pop	r5
     454:	4f 90       	pop	r4
     456:	3f 90       	pop	r3
     458:	2f 90       	pop	r2
     45a:	1f 90       	pop	r1
     45c:	0f 90       	pop	r0
     45e:	8f 91       	pop	r24
     460:	8f 77       	andi	r24, 0x7F	; 127
     462:	8f bf       	out	0x3f, r24	; 63
     464:	9f 91       	pop	r25
     466:	8f 91       	pop	r24
     468:	18 95       	reti

0000046a <__ctors_start>:
     46a:	b8 12       	cpse	r11, r24

0000046c <__ctors_end>:
     46c:	92 12       	cpse	r9, r18

0000046e <_dtors_end>:
     46e:	cf 93       	push	r28
     470:	df 93       	push	r29
     472:	d9 2f       	mov	r29, r25
     474:	c8 2f       	mov	r28, r24
     476:	09 92       	st	Y+, r0
     478:	19 92       	st	Y+, r1
     47a:	29 92       	st	Y+, r2
     47c:	39 92       	st	Y+, r3
     47e:	49 92       	st	Y+, r4
     480:	59 92       	st	Y+, r5
     482:	69 92       	st	Y+, r6
     484:	79 92       	st	Y+, r7
     486:	89 92       	st	Y+, r8
     488:	99 92       	st	Y+, r9
     48a:	a9 92       	st	Y+, r10
     48c:	b9 92       	st	Y+, r11
     48e:	c9 92       	st	Y+, r12
     490:	d9 92       	st	Y+, r13
     492:	e9 92       	st	Y+, r14
     494:	f9 92       	st	Y+, r15
     496:	09 93       	st	Y+, r16
     498:	19 93       	st	Y+, r17
     49a:	29 93       	st	Y+, r18
     49c:	39 93       	st	Y+, r19
     49e:	49 93       	st	Y+, r20
     4a0:	59 93       	st	Y+, r21
     4a2:	69 93       	st	Y+, r22
     4a4:	79 93       	st	Y+, r23
     4a6:	89 93       	st	Y+, r24
     4a8:	99 93       	st	Y+, r25
     4aa:	a9 93       	st	Y+, r26
     4ac:	b9 93       	st	Y+, r27
     4ae:	bf 91       	pop	r27
     4b0:	af 91       	pop	r26
     4b2:	a9 93       	st	Y+, r26
     4b4:	b9 93       	st	Y+, r27
     4b6:	e9 93       	st	Y+, r30
     4b8:	f9 93       	st	Y+, r31
     4ba:	0f 90       	pop	r0
     4bc:	0f 91       	pop	r16
     4be:	0f 90       	pop	r0
     4c0:	09 92       	st	Y+, r0
     4c2:	09 93       	st	Y+, r16
     4c4:	0d b6       	in	r0, 0x3d	; 61
     4c6:	09 92       	st	Y+, r0
     4c8:	0e b6       	in	r0, 0x3e	; 62
     4ca:	09 92       	st	Y+, r0
     4cc:	0f b6       	in	r0, 0x3f	; 63
     4ce:	09 92       	st	Y+, r0
     4d0:	d7 2f       	mov	r29, r23
     4d2:	c6 2f       	mov	r28, r22
     4d4:	0c a0       	ldd	r0, Y+36	; 0x24
     4d6:	0f be       	out	0x3f, r0	; 63
     4d8:	0a a0       	ldd	r0, Y+34	; 0x22
     4da:	0d be       	out	0x3d, r0	; 61
     4dc:	0b a0       	ldd	r0, Y+35	; 0x23
     4de:	0e be       	out	0x3e, r0	; 62
     4e0:	08 a0       	ldd	r0, Y+32	; 0x20
     4e2:	0f 92       	push	r0
     4e4:	09 a0       	ldd	r0, Y+33	; 0x21
     4e6:	0f 92       	push	r0
     4e8:	00 e0       	ldi	r16, 0x00	; 0
     4ea:	0f 93       	push	r16
     4ec:	09 90       	ld	r0, Y+
     4ee:	19 90       	ld	r1, Y+
     4f0:	29 90       	ld	r2, Y+
     4f2:	39 90       	ld	r3, Y+
     4f4:	49 90       	ld	r4, Y+
     4f6:	59 90       	ld	r5, Y+
     4f8:	69 90       	ld	r6, Y+
     4fa:	79 90       	ld	r7, Y+
     4fc:	89 90       	ld	r8, Y+
     4fe:	99 90       	ld	r9, Y+
     500:	a9 90       	ld	r10, Y+
     502:	b9 90       	ld	r11, Y+
     504:	c9 90       	ld	r12, Y+
     506:	d9 90       	ld	r13, Y+
     508:	e9 90       	ld	r14, Y+
     50a:	f9 90       	ld	r15, Y+
     50c:	09 91       	ld	r16, Y+
     50e:	19 91       	ld	r17, Y+
     510:	29 91       	ld	r18, Y+
     512:	39 91       	ld	r19, Y+
     514:	49 91       	ld	r20, Y+
     516:	59 91       	ld	r21, Y+
     518:	69 91       	ld	r22, Y+
     51a:	79 91       	ld	r23, Y+
     51c:	89 91       	ld	r24, Y+
     51e:	99 91       	ld	r25, Y+
     520:	a9 91       	ld	r26, Y+
     522:	b9 91       	ld	r27, Y+
     524:	af 93       	push	r26
     526:	bf 93       	push	r27
     528:	a9 91       	ld	r26, Y+
     52a:	b9 91       	ld	r27, Y+
     52c:	e9 91       	ld	r30, Y+
     52e:	f9 91       	ld	r31, Y+
     530:	ca 2f       	mov	r28, r26
     532:	db 2f       	mov	r29, r27
     534:	bf 91       	pop	r27
     536:	af 91       	pop	r26
     538:	08 95       	ret

0000053a <context_load>:
     53a:	d9 2f       	mov	r29, r25
     53c:	c8 2f       	mov	r28, r24
     53e:	0c a0       	ldd	r0, Y+36	; 0x24
     540:	0f be       	out	0x3f, r0	; 63
     542:	0a a0       	ldd	r0, Y+34	; 0x22
     544:	0d be       	out	0x3d, r0	; 61
     546:	0b a0       	ldd	r0, Y+35	; 0x23
     548:	0e be       	out	0x3e, r0	; 62
     54a:	08 a0       	ldd	r0, Y+32	; 0x20
     54c:	0f 92       	push	r0
     54e:	09 a0       	ldd	r0, Y+33	; 0x21
     550:	0f 92       	push	r0
     552:	00 e0       	ldi	r16, 0x00	; 0
     554:	0f 93       	push	r16
     556:	09 90       	ld	r0, Y+
     558:	19 90       	ld	r1, Y+
     55a:	29 90       	ld	r2, Y+
     55c:	39 90       	ld	r3, Y+
     55e:	49 90       	ld	r4, Y+
     560:	59 90       	ld	r5, Y+
     562:	69 90       	ld	r6, Y+
     564:	79 90       	ld	r7, Y+
     566:	89 90       	ld	r8, Y+
     568:	99 90       	ld	r9, Y+
     56a:	a9 90       	ld	r10, Y+
     56c:	b9 90       	ld	r11, Y+
     56e:	c9 90       	ld	r12, Y+
     570:	d9 90       	ld	r13, Y+
     572:	e9 90       	ld	r14, Y+
     574:	f9 90       	ld	r15, Y+
     576:	09 91       	ld	r16, Y+
     578:	19 91       	ld	r17, Y+
     57a:	29 91       	ld	r18, Y+
     57c:	39 91       	ld	r19, Y+
     57e:	49 91       	ld	r20, Y+
     580:	59 91       	ld	r21, Y+
     582:	69 91       	ld	r22, Y+
     584:	79 91       	ld	r23, Y+
     586:	89 91       	ld	r24, Y+
     588:	99 91       	ld	r25, Y+
     58a:	a9 91       	ld	r26, Y+
     58c:	b9 91       	ld	r27, Y+
     58e:	af 93       	push	r26
     590:	bf 93       	push	r27
     592:	a9 91       	ld	r26, Y+
     594:	b9 91       	ld	r27, Y+
     596:	e9 91       	ld	r30, Y+
     598:	f9 91       	ld	r31, Y+
     59a:	ca 2f       	mov	r28, r26
     59c:	db 2f       	mov	r29, r27
     59e:	bf 91       	pop	r27
     5a0:	af 91       	pop	r26
     5a2:	08 95       	ret

000005a4 <context_save_and_invoke_displace>:
     5a4:	cf 93       	push	r28
     5a6:	df 93       	push	r29
     5a8:	d9 2f       	mov	r29, r25
     5aa:	c8 2f       	mov	r28, r24
     5ac:	09 92       	st	Y+, r0
     5ae:	19 92       	st	Y+, r1
     5b0:	29 92       	st	Y+, r2
     5b2:	39 92       	st	Y+, r3
     5b4:	49 92       	st	Y+, r4
     5b6:	59 92       	st	Y+, r5
     5b8:	69 92       	st	Y+, r6
     5ba:	79 92       	st	Y+, r7
     5bc:	89 92       	st	Y+, r8
     5be:	99 92       	st	Y+, r9
     5c0:	a9 92       	st	Y+, r10
     5c2:	b9 92       	st	Y+, r11
     5c4:	c9 92       	st	Y+, r12
     5c6:	d9 92       	st	Y+, r13
     5c8:	e9 92       	st	Y+, r14
     5ca:	f9 92       	st	Y+, r15
     5cc:	09 93       	st	Y+, r16
     5ce:	19 93       	st	Y+, r17
     5d0:	29 93       	st	Y+, r18
     5d2:	39 93       	st	Y+, r19
     5d4:	49 93       	st	Y+, r20
     5d6:	59 93       	st	Y+, r21
     5d8:	69 93       	st	Y+, r22
     5da:	79 93       	st	Y+, r23
     5dc:	89 93       	st	Y+, r24
     5de:	99 93       	st	Y+, r25
     5e0:	a9 93       	st	Y+, r26
     5e2:	b9 93       	st	Y+, r27
     5e4:	bf 91       	pop	r27
     5e6:	af 91       	pop	r26
     5e8:	a9 93       	st	Y+, r26
     5ea:	b9 93       	st	Y+, r27
     5ec:	e9 93       	st	Y+, r30
     5ee:	f9 93       	st	Y+, r31
     5f0:	0f 90       	pop	r0
     5f2:	0f 91       	pop	r16
     5f4:	0f 90       	pop	r0
     5f6:	09 92       	st	Y+, r0
     5f8:	09 93       	st	Y+, r16
     5fa:	0d b6       	in	r0, 0x3d	; 61
     5fc:	09 92       	st	Y+, r0
     5fe:	0e b6       	in	r0, 0x3e	; 62
     600:	09 92       	st	Y+, r0
     602:	0f b6       	in	r0, 0x3f	; 63
     604:	09 92       	st	Y+, r0
     606:	0c 94 7c 16 	jmp	0x2cf8	; 0x2cf8 <__kill_stack_and_schedule_invoke__>

0000060a <genos_context_displace>:
     60a:	0e 94 d2 02 	call	0x5a4	; 0x5a4 <context_save_and_invoke_displace>
     60e:	08 95       	ret

00000610 <_Z13user_incomingPN4crow6packetE>:
     610:	20 e8       	ldi	r18, 0x80	; 128
     612:	26 b9       	out	0x06, r18	; 6
     614:	0c 94 67 10 	jmp	0x20ce	; 0x20ce <_ZN4crow7releaseEPNS_6packetE>

00000618 <memset>:
     618:	8f 92       	push	r8
     61a:	9f 92       	push	r9
     61c:	af 92       	push	r10
     61e:	bf 92       	push	r11
     620:	cf 92       	push	r12
     622:	df 92       	push	r13
     624:	ef 92       	push	r14
     626:	ff 92       	push	r15
     628:	cf 93       	push	r28
     62a:	df 93       	push	r29
     62c:	fc 01       	movw	r30, r24
     62e:	9f 01       	movw	r18, r30
     630:	df 01       	movw	r26, r30
     632:	a3 70       	andi	r26, 0x03	; 3
     634:	bb 27       	eor	r27, r27
     636:	ab 2b       	or	r26, r27
     638:	41 f0       	breq	.+16     	; 0x64a <memset+0x32>
     63a:	41 15       	cp	r20, r1
     63c:	51 05       	cpc	r21, r1
     63e:	09 f4       	brne	.+2      	; 0x642 <memset+0x2a>
     640:	51 c0       	rjmp	.+162    	; 0x6e4 <memset+0xcc>
     642:	61 93       	st	Z+, r22
     644:	41 50       	subi	r20, 0x01	; 1
     646:	51 09       	sbc	r21, r1
     648:	f2 cf       	rjmp	.-28     	; 0x62e <memset+0x16>
     64a:	44 30       	cpi	r20, 0x04	; 4
     64c:	51 05       	cpc	r21, r1
     64e:	08 f4       	brcc	.+2      	; 0x652 <memset+0x3a>
     650:	41 c0       	rjmp	.+130    	; 0x6d4 <memset+0xbc>
     652:	6b 01       	movw	r12, r22
     654:	dd 24       	eor	r13, r13
     656:	bc 2d       	mov	r27, r12
     658:	aa 27       	eor	r26, r26
     65a:	ca 2a       	or	r12, r26
     65c:	db 2a       	or	r13, r27
     65e:	e1 2c       	mov	r14, r1
     660:	f1 2c       	mov	r15, r1
     662:	56 01       	movw	r10, r12
     664:	99 24       	eor	r9, r9
     666:	88 24       	eor	r8, r8
     668:	c8 28       	or	r12, r8
     66a:	d9 28       	or	r13, r9
     66c:	ea 28       	or	r14, r10
     66e:	fb 28       	or	r15, r11
     670:	da 01       	movw	r26, r20
     672:	a0 31       	cpi	r26, 0x10	; 16
     674:	b1 05       	cpc	r27, r1
     676:	98 f0       	brcs	.+38     	; 0x69e <memset+0x86>
     678:	c0 82       	st	Z, r12
     67a:	d1 82       	std	Z+1, r13	; 0x01
     67c:	e2 82       	std	Z+2, r14	; 0x02
     67e:	f3 82       	std	Z+3, r15	; 0x03
     680:	c4 82       	std	Z+4, r12	; 0x04
     682:	d5 82       	std	Z+5, r13	; 0x05
     684:	e6 82       	std	Z+6, r14	; 0x06
     686:	f7 82       	std	Z+7, r15	; 0x07
     688:	c0 86       	std	Z+8, r12	; 0x08
     68a:	d1 86       	std	Z+9, r13	; 0x09
     68c:	e2 86       	std	Z+10, r14	; 0x0a
     68e:	f3 86       	std	Z+11, r15	; 0x0b
     690:	c4 86       	std	Z+12, r12	; 0x0c
     692:	d5 86       	std	Z+13, r13	; 0x0d
     694:	e6 86       	std	Z+14, r14	; 0x0e
     696:	f7 86       	std	Z+15, r15	; 0x0f
     698:	50 97       	sbiw	r26, 0x10	; 16
     69a:	70 96       	adiw	r30, 0x10	; 16
     69c:	ea cf       	rjmp	.-44     	; 0x672 <memset+0x5a>
     69e:	da 01       	movw	r26, r20
     6a0:	af 70       	andi	r26, 0x0F	; 15
     6a2:	bb 27       	eor	r27, r27
     6a4:	40 7f       	andi	r20, 0xF0	; 240
     6a6:	f9 01       	movw	r30, r18
     6a8:	e4 0f       	add	r30, r20
     6aa:	f5 1f       	adc	r31, r21
     6ac:	ef 01       	movw	r28, r30
     6ae:	9d 01       	movw	r18, r26
     6b0:	24 30       	cpi	r18, 0x04	; 4
     6b2:	31 05       	cpc	r19, r1
     6b4:	38 f0       	brcs	.+14     	; 0x6c4 <memset+0xac>
     6b6:	c9 92       	st	Y+, r12
     6b8:	d9 92       	st	Y+, r13
     6ba:	e9 92       	st	Y+, r14
     6bc:	f9 92       	st	Y+, r15
     6be:	24 50       	subi	r18, 0x04	; 4
     6c0:	31 09       	sbc	r19, r1
     6c2:	f6 cf       	rjmp	.-20     	; 0x6b0 <memset+0x98>
     6c4:	ad 01       	movw	r20, r26
     6c6:	43 70       	andi	r20, 0x03	; 3
     6c8:	55 27       	eor	r21, r21
     6ca:	ac 70       	andi	r26, 0x0C	; 12
     6cc:	bb 27       	eor	r27, r27
     6ce:	9f 01       	movw	r18, r30
     6d0:	2a 0f       	add	r18, r26
     6d2:	3b 1f       	adc	r19, r27
     6d4:	f9 01       	movw	r30, r18
     6d6:	42 0f       	add	r20, r18
     6d8:	53 1f       	adc	r21, r19
     6da:	e4 17       	cp	r30, r20
     6dc:	f5 07       	cpc	r31, r21
     6de:	11 f0       	breq	.+4      	; 0x6e4 <memset+0xcc>
     6e0:	61 93       	st	Z+, r22
     6e2:	fb cf       	rjmp	.-10     	; 0x6da <memset+0xc2>
     6e4:	df 91       	pop	r29
     6e6:	cf 91       	pop	r28
     6e8:	ff 90       	pop	r15
     6ea:	ef 90       	pop	r14
     6ec:	df 90       	pop	r13
     6ee:	cf 90       	pop	r12
     6f0:	bf 90       	pop	r11
     6f2:	af 90       	pop	r10
     6f4:	9f 90       	pop	r9
     6f6:	8f 90       	pop	r8
     6f8:	08 95       	ret

000006fa <memcmp>:
     6fa:	41 15       	cp	r20, r1
     6fc:	51 05       	cpc	r21, r1
     6fe:	a9 f0       	breq	.+42     	; 0x72a <memcmp+0x30>
     700:	9c 01       	movw	r18, r24
     702:	cb 01       	movw	r24, r22
     704:	dc 01       	movw	r26, r24
     706:	f9 01       	movw	r30, r18
     708:	41 50       	subi	r20, 0x01	; 1
     70a:	51 09       	sbc	r21, r1
     70c:	31 f4       	brne	.+12     	; 0x71a <memcmp+0x20>
     70e:	80 81       	ld	r24, Z
     710:	90 e0       	ldi	r25, 0x00	; 0
     712:	2c 91       	ld	r18, X
     714:	82 1b       	sub	r24, r18
     716:	91 09       	sbc	r25, r1
     718:	08 95       	ret
     71a:	2f 5f       	subi	r18, 0xFF	; 255
     71c:	3f 4f       	sbci	r19, 0xFF	; 255
     71e:	01 96       	adiw	r24, 0x01	; 1
     720:	70 81       	ld	r23, Z
     722:	6c 91       	ld	r22, X
     724:	76 17       	cp	r23, r22
     726:	71 f3       	breq	.-36     	; 0x704 <memcmp+0xa>
     728:	f2 cf       	rjmp	.-28     	; 0x70e <memcmp+0x14>
     72a:	80 e0       	ldi	r24, 0x00	; 0
     72c:	90 e0       	ldi	r25, 0x00	; 0
     72e:	08 95       	ret

00000730 <memcpy>:
     730:	cf 92       	push	r12
     732:	df 92       	push	r13
     734:	ef 92       	push	r14
     736:	ff 92       	push	r15
     738:	cf 93       	push	r28
     73a:	df 93       	push	r29
     73c:	40 31       	cpi	r20, 0x10	; 16
     73e:	51 05       	cpc	r21, r1
     740:	38 f0       	brcs	.+14     	; 0x750 <memcpy+0x20>
     742:	9b 01       	movw	r18, r22
     744:	28 2b       	or	r18, r24
     746:	39 2b       	or	r19, r25
     748:	23 70       	andi	r18, 0x03	; 3
     74a:	33 27       	eor	r19, r19
     74c:	23 2b       	or	r18, r19
     74e:	29 f0       	breq	.+10     	; 0x75a <memcpy+0x2a>
     750:	fc 01       	movw	r30, r24
     752:	db 01       	movw	r26, r22
     754:	4e 0f       	add	r20, r30
     756:	5f 1f       	adc	r21, r31
     758:	5a c0       	rjmp	.+180    	; 0x80e <memcpy+0xde>
     75a:	db 01       	movw	r26, r22
     75c:	fc 01       	movw	r30, r24
     75e:	9a 01       	movw	r18, r20
     760:	cd 90       	ld	r12, X+
     762:	dd 90       	ld	r13, X+
     764:	ed 90       	ld	r14, X+
     766:	fc 90       	ld	r15, X
     768:	13 97       	sbiw	r26, 0x03	; 3
     76a:	c0 82       	st	Z, r12
     76c:	d1 82       	std	Z+1, r13	; 0x01
     76e:	e2 82       	std	Z+2, r14	; 0x02
     770:	f3 82       	std	Z+3, r15	; 0x03
     772:	14 96       	adiw	r26, 0x04	; 4
     774:	cd 90       	ld	r12, X+
     776:	dd 90       	ld	r13, X+
     778:	ed 90       	ld	r14, X+
     77a:	fc 90       	ld	r15, X
     77c:	17 97       	sbiw	r26, 0x07	; 7
     77e:	c4 82       	std	Z+4, r12	; 0x04
     780:	d5 82       	std	Z+5, r13	; 0x05
     782:	e6 82       	std	Z+6, r14	; 0x06
     784:	f7 82       	std	Z+7, r15	; 0x07
     786:	18 96       	adiw	r26, 0x08	; 8
     788:	cd 90       	ld	r12, X+
     78a:	dd 90       	ld	r13, X+
     78c:	ed 90       	ld	r14, X+
     78e:	fc 90       	ld	r15, X
     790:	1b 97       	sbiw	r26, 0x0b	; 11
     792:	c0 86       	std	Z+8, r12	; 0x08
     794:	d1 86       	std	Z+9, r13	; 0x09
     796:	e2 86       	std	Z+10, r14	; 0x0a
     798:	f3 86       	std	Z+11, r15	; 0x0b
     79a:	1c 96       	adiw	r26, 0x0c	; 12
     79c:	cd 90       	ld	r12, X+
     79e:	dd 90       	ld	r13, X+
     7a0:	ed 90       	ld	r14, X+
     7a2:	fc 90       	ld	r15, X
     7a4:	1f 97       	sbiw	r26, 0x0f	; 15
     7a6:	c4 86       	std	Z+12, r12	; 0x0c
     7a8:	d5 86       	std	Z+13, r13	; 0x0d
     7aa:	e6 86       	std	Z+14, r14	; 0x0e
     7ac:	f7 86       	std	Z+15, r15	; 0x0f
     7ae:	20 51       	subi	r18, 0x10	; 16
     7b0:	31 09       	sbc	r19, r1
     7b2:	50 96       	adiw	r26, 0x10	; 16
     7b4:	70 96       	adiw	r30, 0x10	; 16
     7b6:	20 31       	cpi	r18, 0x10	; 16
     7b8:	31 05       	cpc	r19, r1
     7ba:	90 f6       	brcc	.-92     	; 0x760 <memcpy+0x30>
     7bc:	9a 01       	movw	r18, r20
     7be:	20 51       	subi	r18, 0x10	; 16
     7c0:	31 09       	sbc	r19, r1
     7c2:	20 7f       	andi	r18, 0xF0	; 240
     7c4:	20 5f       	subi	r18, 0xF0	; 240
     7c6:	3f 4f       	sbci	r19, 0xFF	; 255
     7c8:	fc 01       	movw	r30, r24
     7ca:	e2 0f       	add	r30, r18
     7cc:	f3 1f       	adc	r31, r19
     7ce:	62 0f       	add	r22, r18
     7d0:	73 1f       	adc	r23, r19
     7d2:	9a 01       	movw	r18, r20
     7d4:	2f 70       	andi	r18, 0x0F	; 15
     7d6:	33 27       	eor	r19, r19
     7d8:	db 01       	movw	r26, r22
     7da:	ef 01       	movw	r28, r30
     7dc:	a9 01       	movw	r20, r18
     7de:	44 30       	cpi	r20, 0x04	; 4
     7e0:	51 05       	cpc	r21, r1
     7e2:	58 f0       	brcs	.+22     	; 0x7fa <memcpy+0xca>
     7e4:	cd 90       	ld	r12, X+
     7e6:	dd 90       	ld	r13, X+
     7e8:	ed 90       	ld	r14, X+
     7ea:	fd 90       	ld	r15, X+
     7ec:	c9 92       	st	Y+, r12
     7ee:	d9 92       	st	Y+, r13
     7f0:	e9 92       	st	Y+, r14
     7f2:	f9 92       	st	Y+, r15
     7f4:	44 50       	subi	r20, 0x04	; 4
     7f6:	51 09       	sbc	r21, r1
     7f8:	f2 cf       	rjmp	.-28     	; 0x7de <memcpy+0xae>
     7fa:	a9 01       	movw	r20, r18
     7fc:	43 70       	andi	r20, 0x03	; 3
     7fe:	55 27       	eor	r21, r21
     800:	2c 70       	andi	r18, 0x0C	; 12
     802:	33 27       	eor	r19, r19
     804:	e2 0f       	add	r30, r18
     806:	f3 1f       	adc	r31, r19
     808:	62 0f       	add	r22, r18
     80a:	73 1f       	adc	r23, r19
     80c:	a2 cf       	rjmp	.-188    	; 0x752 <memcpy+0x22>
     80e:	e4 17       	cp	r30, r20
     810:	f5 07       	cpc	r31, r21
     812:	19 f0       	breq	.+6      	; 0x81a <memcpy+0xea>
     814:	2d 91       	ld	r18, X+
     816:	21 93       	st	Z+, r18
     818:	fa cf       	rjmp	.-12     	; 0x80e <memcpy+0xde>
     81a:	df 91       	pop	r29
     81c:	cf 91       	pop	r28
     81e:	ff 90       	pop	r15
     820:	ef 90       	pop	r14
     822:	df 90       	pop	r13
     824:	cf 90       	pop	r12
     826:	08 95       	ret

00000828 <abort>:
     828:	8d e2       	ldi	r24, 0x2D	; 45
     82a:	92 e0       	ldi	r25, 0x02	; 2
     82c:	0e 94 89 14 	call	0x2912	; 0x2912 <debug_print>
     830:	ff cf       	rjmp	.-2      	; 0x830 <abort+0x8>

00000832 <_ZN4crow6millisEv>:
     832:	4f 92       	push	r4
     834:	5f 92       	push	r5
     836:	6f 92       	push	r6
     838:	7f 92       	push	r7
     83a:	8f 92       	push	r8
     83c:	9f 92       	push	r9
     83e:	af 92       	push	r10
     840:	bf 92       	push	r11
     842:	cf 92       	push	r12
     844:	df 92       	push	r13
     846:	ef 92       	push	r14
     848:	ff 92       	push	r15
     84a:	0f 93       	push	r16
     84c:	1f 93       	push	r17
     84e:	cf 93       	push	r28
     850:	df 93       	push	r29
     852:	0e 94 3e 14 	call	0x287c	; 0x287c <system_lock>
     856:	40 90 a7 07 	lds	r4, 0x07A7	; 0x8007a7 <__jiffies>
     85a:	50 90 a8 07 	lds	r5, 0x07A8	; 0x8007a8 <__jiffies+0x1>
     85e:	60 90 a9 07 	lds	r6, 0x07A9	; 0x8007a9 <__jiffies+0x2>
     862:	70 90 aa 07 	lds	r7, 0x07AA	; 0x8007aa <__jiffies+0x3>
     866:	80 90 ab 07 	lds	r8, 0x07AB	; 0x8007ab <__jiffies+0x4>
     86a:	90 90 ac 07 	lds	r9, 0x07AC	; 0x8007ac <__jiffies+0x5>
     86e:	d0 91 ad 07 	lds	r29, 0x07AD	; 0x8007ad <__jiffies+0x6>
     872:	c0 91 ae 07 	lds	r28, 0x07AE	; 0x8007ae <__jiffies+0x7>
     876:	0e 94 2f 14 	call	0x285e	; 0x285e <system_unlock>
     87a:	88 ee       	ldi	r24, 0xE8	; 232
     87c:	a8 2e       	mov	r10, r24
     87e:	93 e0       	ldi	r25, 0x03	; 3
     880:	b9 2e       	mov	r11, r25
     882:	c1 2c       	mov	r12, r1
     884:	d1 2c       	mov	r13, r1
     886:	e1 2c       	mov	r14, r1
     888:	f1 2c       	mov	r15, r1
     88a:	00 e0       	ldi	r16, 0x00	; 0
     88c:	10 e0       	ldi	r17, 0x00	; 0
     88e:	92 01       	movw	r18, r4
     890:	a3 01       	movw	r20, r6
     892:	b4 01       	movw	r22, r8
     894:	8d 2f       	mov	r24, r29
     896:	9c 2f       	mov	r25, r28
     898:	0e 94 2f 18 	call	0x305e	; 0x305e <__muldi3>
     89c:	d2 2f       	mov	r29, r18
     89e:	c3 2f       	mov	r28, r19
     8a0:	00 91 a3 07 	lds	r16, 0x07A3	; 0x8007a3 <systime_frequency>
     8a4:	10 91 a4 07 	lds	r17, 0x07A4	; 0x8007a4 <systime_frequency+0x1>
     8a8:	20 91 a5 07 	lds	r18, 0x07A5	; 0x8007a5 <systime_frequency+0x2>
     8ac:	30 91 a6 07 	lds	r19, 0x07A6	; 0x8007a6 <systime_frequency+0x3>
     8b0:	58 01       	movw	r10, r16
     8b2:	69 01       	movw	r12, r18
     8b4:	00 e0       	ldi	r16, 0x00	; 0
     8b6:	10 e0       	ldi	r17, 0x00	; 0
     8b8:	2d 2f       	mov	r18, r29
     8ba:	3c 2f       	mov	r19, r28
     8bc:	0e 94 8a 18 	call	0x3114	; 0x3114 <__divdi3>
     8c0:	c9 01       	movw	r24, r18
     8c2:	df 91       	pop	r29
     8c4:	cf 91       	pop	r28
     8c6:	1f 91       	pop	r17
     8c8:	0f 91       	pop	r16
     8ca:	ff 90       	pop	r15
     8cc:	ef 90       	pop	r14
     8ce:	df 90       	pop	r13
     8d0:	cf 90       	pop	r12
     8d2:	bf 90       	pop	r11
     8d4:	af 90       	pop	r10
     8d6:	9f 90       	pop	r9
     8d8:	8f 90       	pop	r8
     8da:	7f 90       	pop	r7
     8dc:	6f 90       	pop	r6
     8de:	5f 90       	pop	r5
     8e0:	4f 90       	pop	r4
     8e2:	08 95       	ret

000008e4 <_ZN3gxx6tracerC1EPKc>:
     8e4:	cf 93       	push	r28
     8e6:	df 93       	push	r29
     8e8:	eb 01       	movw	r28, r22
     8ea:	fc 01       	movw	r30, r24
     8ec:	71 83       	std	Z+1, r23	; 0x01
     8ee:	60 83       	st	Z, r22
     8f0:	83 e3       	ldi	r24, 0x33	; 51
     8f2:	92 e0       	ldi	r25, 0x02	; 2
     8f4:	0e 94 89 14 	call	0x2912	; 0x2912 <debug_print>
     8f8:	20 91 07 09 	lds	r18, 0x0907	; 0x800907 <trace_level>
     8fc:	30 e0       	ldi	r19, 0x00	; 0
     8fe:	40 e0       	ldi	r20, 0x00	; 0
     900:	50 e0       	ldi	r21, 0x00	; 0
     902:	60 e0       	ldi	r22, 0x00	; 0
     904:	70 e0       	ldi	r23, 0x00	; 0
     906:	80 e0       	ldi	r24, 0x00	; 0
     908:	90 e0       	ldi	r25, 0x00	; 0
     90a:	0e 94 bb 14 	call	0x2976	; 0x2976 <debug_printdec_uint64>
     90e:	8b e3       	ldi	r24, 0x3B	; 59
     910:	92 e0       	ldi	r25, 0x02	; 2
     912:	0e 94 89 14 	call	0x2912	; 0x2912 <debug_print>
     916:	ce 01       	movw	r24, r28
     918:	0e 94 89 14 	call	0x2912	; 0x2912 <debug_print>
     91c:	80 91 07 09 	lds	r24, 0x0907	; 0x800907 <trace_level>
     920:	8f 5f       	subi	r24, 0xFF	; 255
     922:	80 93 07 09 	sts	0x0907, r24	; 0x800907 <trace_level>
     926:	df 91       	pop	r29
     928:	cf 91       	pop	r28
     92a:	08 95       	ret

0000092c <main>:
     92c:	cf 93       	push	r28
     92e:	df 93       	push	r29
     930:	00 d0       	rcall	.+0      	; 0x932 <main+0x6>
     932:	00 d0       	rcall	.+0      	; 0x934 <main+0x8>
     934:	cd b7       	in	r28, 0x3d	; 61
     936:	de b7       	in	r29, 0x3e	; 62
     938:	e7 eb       	ldi	r30, 0xB7	; 183
     93a:	f7 e0       	ldi	r31, 0x07	; 7
     93c:	80 e0       	ldi	r24, 0x00	; 0
     93e:	90 e0       	ldi	r25, 0x00	; 0
     940:	41 ea       	ldi	r20, 0xA1	; 161
     942:	54 e1       	ldi	r21, 0x14	; 20
     944:	26 e0       	ldi	r18, 0x06	; 6
     946:	51 83       	std	Z+1, r21	; 0x01
     948:	40 83       	st	Z, r20
     94a:	93 83       	std	Z+3, r25	; 0x03
     94c:	82 83       	std	Z+2, r24	; 0x02
     94e:	28 9f       	mul	r18, r24
     950:	d0 01       	movw	r26, r0
     952:	29 9f       	mul	r18, r25
     954:	b0 0d       	add	r27, r0
     956:	11 24       	eor	r1, r1
     958:	a9 54       	subi	r26, 0x49	; 73
     95a:	b8 4f       	sbci	r27, 0xF8	; 248
     95c:	15 96       	adiw	r26, 0x05	; 5
     95e:	1c 92       	st	X, r1
     960:	1e 92       	st	-X, r1
     962:	14 97       	sbiw	r26, 0x04	; 4
     964:	01 96       	adiw	r24, 0x01	; 1
     966:	36 96       	adiw	r30, 0x06	; 6
     968:	88 33       	cpi	r24, 0x38	; 56
     96a:	91 05       	cpc	r25, r1
     96c:	61 f7       	brne	.-40     	; 0x946 <main+0x1a>
     96e:	10 92 c0 00 	sts	0x00C0, r1	; 0x8000c0 <_etext+0x7fcd7e>
     972:	10 92 c5 00 	sts	0x00C5, r1	; 0x8000c5 <_etext+0x7fcd83>
     976:	88 e0       	ldi	r24, 0x08	; 8
     978:	80 93 c4 00 	sts	0x00C4, r24	; 0x8000c4 <_etext+0x7fcd82>
     97c:	86 e0       	ldi	r24, 0x06	; 6
     97e:	80 93 c2 00 	sts	0x00C2, r24	; 0x8000c2 <_etext+0x7fcd80>
     982:	80 91 c1 00 	lds	r24, 0x00C1	; 0x8000c1 <_etext+0x7fcd7f>
     986:	88 60       	ori	r24, 0x08	; 8
     988:	80 93 c1 00 	sts	0x00C1, r24	; 0x8000c1 <_etext+0x7fcd7f>
     98c:	82 e8       	ldi	r24, 0x82	; 130
     98e:	92 e0       	ldi	r25, 0x02	; 2
     990:	90 93 2c 02 	sts	0x022C, r25	; 0x80022c <current_diag_ops+0x1>
     994:	80 93 2b 02 	sts	0x022B, r24	; 0x80022b <current_diag_ops>
     998:	10 92 c6 09 	sts	0x09C6, r1	; 0x8009c6 <current_diag_priv+0x1>
     99c:	10 92 c5 09 	sts	0x09C5, r1	; 0x8009c5 <current_diag_priv>
     9a0:	82 ef       	ldi	r24, 0xF2	; 242
     9a2:	93 e1       	ldi	r25, 0x13	; 19
     9a4:	90 93 3c 08 	sts	0x083C, r25	; 0x80083c <irqtable+0x85>
     9a8:	80 93 3b 08 	sts	0x083B, r24	; 0x80083b <irqtable+0x84>
     9ac:	10 92 3e 08 	sts	0x083E, r1	; 0x80083e <irqtable+0x87>
     9b0:	10 92 3d 08 	sts	0x083D, r1	; 0x80083d <irqtable+0x86>
     9b4:	e0 91 07 02 	lds	r30, 0x0207	; 0x800207 <timer0+0x3>
     9b8:	f0 91 08 02 	lds	r31, 0x0208	; 0x800208 <timer0+0x4>
     9bc:	80 81       	ld	r24, Z
     9be:	81 60       	ori	r24, 0x01	; 1
     9c0:	80 83       	st	Z, r24
     9c2:	e0 91 04 02 	lds	r30, 0x0204	; 0x800204 <timer0>
     9c6:	f0 91 05 02 	lds	r31, 0x0205	; 0x800205 <timer0+0x1>
     9ca:	81 81       	ldd	r24, Z+1	; 0x01
     9cc:	88 7f       	andi	r24, 0xF8	; 248
     9ce:	83 60       	ori	r24, 0x03	; 3
     9d0:	81 83       	std	Z+1, r24	; 0x01
     9d2:	80 ed       	ldi	r24, 0xD0	; 208
     9d4:	93 e0       	ldi	r25, 0x03	; 3
     9d6:	a0 e0       	ldi	r26, 0x00	; 0
     9d8:	b0 e0       	ldi	r27, 0x00	; 0
     9da:	80 93 a3 07 	sts	0x07A3, r24	; 0x8007a3 <systime_frequency>
     9de:	90 93 a4 07 	sts	0x07A4, r25	; 0x8007a4 <systime_frequency+0x1>
     9e2:	a0 93 a5 07 	sts	0x07A5, r26	; 0x8007a5 <systime_frequency+0x2>
     9e6:	b0 93 a6 07 	sts	0x07A6, r27	; 0x8007a6 <systime_frequency+0x3>
     9ea:	6a e8       	ldi	r22, 0x8A	; 138
     9ec:	72 e0       	ldi	r23, 0x02	; 2
     9ee:	ce 01       	movw	r24, r28
     9f0:	01 96       	adiw	r24, 0x01	; 1
     9f2:	0e 94 72 04 	call	0x8e4	; 0x8e4 <_ZN3gxx6tracerC1EPKc>
     9f6:	0e 94 ca 0b 	call	0x1794	; 0x1794 <debug_print_newline.lto_priv.103.lto_priv.106>
     9fa:	8b ec       	ldi	r24, 0xCB	; 203
     9fc:	99 e0       	ldi	r25, 0x09	; 9
     9fe:	90 93 ce 09 	sts	0x09CE, r25	; 0x8009ce <_ZL7runlist.lto_priv.115+0x3>
     a02:	80 93 cd 09 	sts	0x09CD, r24	; 0x8009cd <_ZL7runlist.lto_priv.115+0x2>
     a06:	90 93 cc 09 	sts	0x09CC, r25	; 0x8009cc <_ZL7runlist.lto_priv.115+0x1>
     a0a:	80 93 cb 09 	sts	0x09CB, r24	; 0x8009cb <_ZL7runlist.lto_priv.115>
     a0e:	8f ec       	ldi	r24, 0xCF	; 207
     a10:	99 e0       	ldi	r25, 0x09	; 9
     a12:	90 93 d2 09 	sts	0x09D2, r25	; 0x8009d2 <_ZL7runlist.lto_priv.115+0x7>
     a16:	80 93 d1 09 	sts	0x09D1, r24	; 0x8009d1 <_ZL7runlist.lto_priv.115+0x6>
     a1a:	90 93 d0 09 	sts	0x09D0, r25	; 0x8009d0 <_ZL7runlist.lto_priv.115+0x5>
     a1e:	80 93 cf 09 	sts	0x09CF, r24	; 0x8009cf <_ZL7runlist.lto_priv.115+0x4>
     a22:	83 ed       	ldi	r24, 0xD3	; 211
     a24:	99 e0       	ldi	r25, 0x09	; 9
     a26:	90 93 d6 09 	sts	0x09D6, r25	; 0x8009d6 <_ZL7runlist.lto_priv.115+0xb>
     a2a:	80 93 d5 09 	sts	0x09D5, r24	; 0x8009d5 <_ZL7runlist.lto_priv.115+0xa>
     a2e:	90 93 d4 09 	sts	0x09D4, r25	; 0x8009d4 <_ZL7runlist.lto_priv.115+0x9>
     a32:	80 93 d3 09 	sts	0x09D3, r24	; 0x8009d3 <_ZL7runlist.lto_priv.115+0x8>
     a36:	87 ed       	ldi	r24, 0xD7	; 215
     a38:	99 e0       	ldi	r25, 0x09	; 9
     a3a:	90 93 da 09 	sts	0x09DA, r25	; 0x8009da <_ZL7runlist.lto_priv.115+0xf>
     a3e:	80 93 d9 09 	sts	0x09D9, r24	; 0x8009d9 <_ZL7runlist.lto_priv.115+0xe>
     a42:	90 93 d8 09 	sts	0x09D8, r25	; 0x8009d8 <_ZL7runlist.lto_priv.115+0xd>
     a46:	80 93 d7 09 	sts	0x09D7, r24	; 0x8009d7 <_ZL7runlist.lto_priv.115+0xc>
     a4a:	ce 01       	movw	r24, r28
     a4c:	01 96       	adiw	r24, 0x01	; 1
     a4e:	0e 94 cf 13 	call	0x279e	; 0x279e <_ZN3gxx6tracerD2Ev.constprop.72>
     a52:	27 9a       	sbi	0x04, 7	; 4
     a54:	3f 9a       	sbi	0x07, 7	; 7
     a56:	2f 9a       	sbi	0x05, 7	; 5
     a58:	47 9a       	sbi	0x08, 7	; 8
     a5a:	e0 91 75 09 	lds	r30, 0x0975	; 0x800975 <uart0+0x6>
     a5e:	f0 91 76 09 	lds	r31, 0x0976	; 0x800976 <uart0+0x7>
     a62:	80 81       	ld	r24, Z
     a64:	82 60       	ori	r24, 0x02	; 2
     a66:	80 83       	st	Z, r24
     a68:	15 82       	std	Z+5, r1	; 0x05
     a6a:	80 e1       	ldi	r24, 0x10	; 16
     a6c:	84 83       	std	Z+4, r24	; 0x04
     a6e:	8f e6       	ldi	r24, 0x6F	; 111
     a70:	99 e0       	ldi	r25, 0x09	; 9
     a72:	0e 94 67 13 	call	0x26ce	; 0x26ce <_ZN9avr_usart7irqinitEv.constprop.45>
     a76:	61 e0       	ldi	r22, 0x01	; 1
     a78:	8f e6       	ldi	r24, 0x6F	; 111
     a7a:	99 e0       	ldi	r25, 0x09	; 9
     a7c:	0e 94 ab 09 	call	0x1356	; 0x1356 <_ZN9avr_usart6enableEb>
     a80:	8f e6       	ldi	r24, 0x6F	; 111
     a82:	99 e0       	ldi	r25, 0x09	; 9
     a84:	90 93 12 09 	sts	0x0912, r25	; 0x800912 <uartgate+0x8>
     a88:	80 93 11 09 	sts	0x0911, r24	; 0x800911 <uartgate+0x7>
     a8c:	83 e1       	ldi	r24, 0x13	; 19
     a8e:	99 e0       	ldi	r25, 0x09	; 9
     a90:	90 93 16 09 	sts	0x0916, r25	; 0x800916 <uartgate+0xc>
     a94:	80 93 15 09 	sts	0x0915, r24	; 0x800915 <uartgate+0xb>
     a98:	90 93 14 09 	sts	0x0914, r25	; 0x800914 <uartgate+0xa>
     a9c:	80 93 13 09 	sts	0x0913, r24	; 0x800913 <uartgate+0x9>
     aa0:	10 92 18 09 	sts	0x0918, r1	; 0x800918 <uartgate+0xe>
     aa4:	10 92 17 09 	sts	0x0917, r1	; 0x800917 <uartgate+0xd>
     aa8:	8a e0       	ldi	r24, 0x0A	; 10
     aaa:	99 e0       	ldi	r25, 0x09	; 9
     aac:	0e 94 e2 0b 	call	0x17c4	; 0x17c4 <_ZN13crow_uartgate9init_recvEv>
     ab0:	80 e4       	ldi	r24, 0x40	; 64
     ab2:	90 e0       	ldi	r25, 0x00	; 0
     ab4:	90 93 6e 09 	sts	0x096E, r25	; 0x80096e <uartgate+0x64>
     ab8:	80 93 6d 09 	sts	0x096D, r24	; 0x80096d <uartgate+0x63>
     abc:	10 92 6a 09 	sts	0x096A, r1	; 0x80096a <uartgate+0x60>
     ac0:	10 92 69 09 	sts	0x0969, r1	; 0x800969 <uartgate+0x5f>
     ac4:	10 92 6c 09 	sts	0x096C, r1	; 0x80096c <uartgate+0x62>
     ac8:	10 92 6b 09 	sts	0x096B, r1	; 0x80096b <uartgate+0x61>
     acc:	84 ef       	ldi	r24, 0xF4	; 244
     ace:	80 93 10 09 	sts	0x0910, r24	; 0x800910 <uartgate+0x6>
     ad2:	e0 91 bf 09 	lds	r30, 0x09BF	; 0x8009bf <crow_gateways+0x2>
     ad6:	f0 91 c0 09 	lds	r31, 0x09C0	; 0x8009c0 <crow_gateways+0x3>
     ada:	f0 93 0f 09 	sts	0x090F, r31	; 0x80090f <uartgate+0x5>
     ade:	e0 93 0e 09 	sts	0x090E, r30	; 0x80090e <uartgate+0x4>
     ae2:	8d eb       	ldi	r24, 0xBD	; 189
     ae4:	99 e0       	ldi	r25, 0x09	; 9
     ae6:	90 93 0d 09 	sts	0x090D, r25	; 0x80090d <uartgate+0x3>
     aea:	80 93 0c 09 	sts	0x090C, r24	; 0x80090c <uartgate+0x2>
     aee:	8c e0       	ldi	r24, 0x0C	; 12
     af0:	99 e0       	ldi	r25, 0x09	; 9
     af2:	90 93 c0 09 	sts	0x09C0, r25	; 0x8009c0 <crow_gateways+0x3>
     af6:	80 93 bf 09 	sts	0x09BF, r24	; 0x8009bf <crow_gateways+0x2>
     afa:	91 83       	std	Z+1, r25	; 0x01
     afc:	80 83       	st	Z, r24
     afe:	a0 91 11 09 	lds	r26, 0x0911	; 0x800911 <uartgate+0x7>
     b02:	b0 91 12 09 	lds	r27, 0x0912	; 0x800912 <uartgate+0x8>
     b06:	8a e0       	ldi	r24, 0x0A	; 10
     b08:	99 e0       	ldi	r25, 0x09	; 9
     b0a:	15 96       	adiw	r26, 0x05	; 5
     b0c:	9c 93       	st	X, r25
     b0e:	8e 93       	st	-X, r24
     b10:	14 97       	sbiw	r26, 0x04	; 4
     b12:	81 e8       	ldi	r24, 0x81	; 129
     b14:	9d e0       	ldi	r25, 0x0D	; 13
     b16:	13 96       	adiw	r26, 0x03	; 3
     b18:	9c 93       	st	X, r25
     b1a:	8e 93       	st	-X, r24
     b1c:	12 97       	sbiw	r26, 0x02	; 2
     b1e:	ed 91       	ld	r30, X+
     b20:	fc 91       	ld	r31, X
     b22:	11 97       	sbiw	r26, 0x01	; 1
     b24:	01 90       	ld	r0, Z+
     b26:	f0 81       	ld	r31, Z
     b28:	e0 2d       	mov	r30, r0
     b2a:	61 e0       	ldi	r22, 0x01	; 1
     b2c:	cd 01       	movw	r24, r26
     b2e:	19 95       	eicall
     b30:	88 e0       	ldi	r24, 0x08	; 8
     b32:	93 e0       	ldi	r25, 0x03	; 3
     b34:	90 93 b6 07 	sts	0x07B6, r25	; 0x8007b6 <_ZN4crow21user_incoming_handlerE+0x1>
     b38:	80 93 b5 07 	sts	0x07B5, r24	; 0x8007b5 <_ZN4crow21user_incoming_handlerE>
     b3c:	78 94       	sei
     b3e:	8e e5       	ldi	r24, 0x5E	; 94
     b40:	96 e0       	ldi	r25, 0x06	; 6
     b42:	9c 83       	std	Y+4, r25	; 0x04
     b44:	8b 83       	std	Y+3, r24	; 0x03
     b46:	ce 01       	movw	r24, r28
     b48:	03 96       	adiw	r24, 0x03	; 3
     b4a:	0e 94 3e 13 	call	0x267c	; 0x267c <debug_writehex_reversed.constprop.52>
     b4e:	0e 94 ca 0b 	call	0x1794	; 0x1794 <debug_print_newline.lto_priv.103.lto_priv.106>
     b52:	66 ea       	ldi	r22, 0xA6	; 166
     b54:	72 e0       	ldi	r23, 0x02	; 2
     b56:	ce 01       	movw	r24, r28
     b58:	05 96       	adiw	r24, 0x05	; 5
     b5a:	0e 94 72 04 	call	0x8e4	; 0x8e4 <_ZN3gxx6tracerC1EPKc>
     b5e:	0e 94 ca 0b 	call	0x1794	; 0x1794 <debug_print_newline.lto_priv.103.lto_priv.106>
     b62:	88 e4       	ldi	r24, 0x48	; 72
     b64:	90 e0       	ldi	r25, 0x00	; 0
     b66:	0e 94 49 0b 	call	0x1692	; 0x1692 <malloc>
     b6a:	8c 01       	movw	r16, r24
     b6c:	80 e0       	ldi	r24, 0x00	; 0
     b6e:	91 e0       	ldi	r25, 0x01	; 1
     b70:	0e 94 49 0b 	call	0x1692	; 0x1692 <malloc>
     b74:	bc 01       	movw	r22, r24
     b76:	c8 01       	movw	r24, r16
     b78:	02 96       	adiw	r24, 0x02	; 2
     b7a:	d8 01       	movw	r26, r16
     b7c:	15 96       	adiw	r26, 0x05	; 5
     b7e:	9c 93       	st	X, r25
     b80:	8e 93       	st	-X, r24
     b82:	14 97       	sbiw	r26, 0x04	; 4
     b84:	13 96       	adiw	r26, 0x03	; 3
     b86:	9c 93       	st	X, r25
     b88:	8e 93       	st	-X, r24
     b8a:	12 97       	sbiw	r26, 0x02	; 2
     b8c:	16 96       	adiw	r26, 0x06	; 6
     b8e:	1c 92       	st	X, r1
     b90:	16 97       	sbiw	r26, 0x06	; 6
     b92:	83 e0       	ldi	r24, 0x03	; 3
     b94:	17 96       	adiw	r26, 0x07	; 7
     b96:	8c 93       	st	X, r24
     b98:	17 97       	sbiw	r26, 0x07	; 7
     b9a:	18 96       	adiw	r26, 0x08	; 8
     b9c:	1c 92       	st	X, r1
     b9e:	18 97       	sbiw	r26, 0x08	; 8
     ba0:	89 e0       	ldi	r24, 0x09	; 9
     ba2:	92 e0       	ldi	r25, 0x02	; 2
     ba4:	58 96       	adiw	r26, 0x18	; 24
     ba6:	9c 93       	st	X, r25
     ba8:	8e 93       	st	-X, r24
     baa:	57 97       	sbiw	r26, 0x17	; 23
     bac:	e0 91 af 07 	lds	r30, 0x07AF	; 0x8007af <__current_schedee>
     bb0:	f0 91 b0 07 	lds	r31, 0x07B0	; 0x8007b0 <__current_schedee+0x1>
     bb4:	ed 93       	st	X+, r30
     bb6:	fc 93       	st	X, r31
     bb8:	30 97       	sbiw	r30, 0x00	; 0
     bba:	19 f0       	breq	.+6      	; 0xbc2 <main+0x296>
     bbc:	83 85       	ldd	r24, Z+11	; 0x0b
     bbe:	94 85       	ldd	r25, Z+12	; 0x0c
     bc0:	02 c0       	rjmp	.+4      	; 0xbc6 <main+0x29a>
     bc2:	80 e0       	ldi	r24, 0x00	; 0
     bc4:	90 e0       	ldi	r25, 0x00	; 0
     bc6:	d8 01       	movw	r26, r16
     bc8:	1c 96       	adiw	r26, 0x0c	; 12
     bca:	9c 93       	st	X, r25
     bcc:	8e 93       	st	-X, r24
     bce:	1b 97       	sbiw	r26, 0x0b	; 11
     bd0:	1e 96       	adiw	r26, 0x0e	; 14
     bd2:	1c 92       	st	X, r1
     bd4:	1e 92       	st	-X, r1
     bd6:	1d 97       	sbiw	r26, 0x0d	; 13
     bd8:	50 96       	adiw	r26, 0x10	; 16
     bda:	1c 92       	st	X, r1
     bdc:	1e 92       	st	-X, r1
     bde:	1f 97       	sbiw	r26, 0x0f	; 15
     be0:	52 96       	adiw	r26, 0x12	; 18
     be2:	1c 92       	st	X, r1
     be4:	1e 92       	st	-X, r1
     be6:	51 97       	sbiw	r26, 0x11	; 17
     be8:	54 96       	adiw	r26, 0x14	; 20
     bea:	1c 92       	st	X, r1
     bec:	1e 92       	st	-X, r1
     bee:	53 97       	sbiw	r26, 0x13	; 19
     bf0:	56 96       	adiw	r26, 0x16	; 22
     bf2:	1c 92       	st	X, r1
     bf4:	1e 92       	st	-X, r1
     bf6:	55 97       	sbiw	r26, 0x15	; 21
     bf8:	ef 2b       	or	r30, r31
     bfa:	e1 f5       	brne	.+120    	; 0xc74 <main+0x348>
     bfc:	f8 01       	movw	r30, r16
     bfe:	12 86       	std	Z+10, r1	; 0x0a
     c00:	11 86       	std	Z+9, r1	; 0x09
     c02:	79 96       	adiw	r30, 0x19	; 25
     c04:	85 e2       	ldi	r24, 0x25	; 37
     c06:	df 01       	movw	r26, r30
     c08:	1d 92       	st	X+, r1
     c0a:	8a 95       	dec	r24
     c0c:	e9 f7       	brne	.-6      	; 0xc08 <main+0x2dc>
     c0e:	f8 01       	movw	r30, r16
     c10:	12 8e       	std	Z+26, r1	; 0x1a
     c12:	80 e8       	ldi	r24, 0x80	; 128
     c14:	85 af       	std	Z+61, r24	; 0x3d
     c16:	cb 01       	movw	r24, r22
     c18:	81 50       	subi	r24, 0x01	; 1
     c1a:	9f 4f       	sbci	r25, 0xFF	; 255
     c1c:	94 af       	std	Z+60, r25	; 0x3c
     c1e:	83 af       	std	Z+59, r24	; 0x3b
     c20:	85 e4       	ldi	r24, 0x45	; 69
     c22:	9f e0       	ldi	r25, 0x0F	; 15
     c24:	92 af       	std	Z+58, r25	; 0x3a
     c26:	81 af       	std	Z+57, r24	; 0x39
     c28:	1a 83       	std	Y+2, r17	; 0x02
     c2a:	09 83       	std	Y+1, r16	; 0x01
     c2c:	8a 81       	ldd	r24, Y+2	; 0x02
     c2e:	81 ab       	std	Z+49, r24	; 0x31
     c30:	89 81       	ldd	r24, Y+1	; 0x01
     c32:	82 ab       	std	Z+50, r24	; 0x32
     c34:	ee 5b       	subi	r30, 0xBE	; 190
     c36:	ff 4f       	sbci	r31, 0xFF	; 255
     c38:	71 83       	std	Z+1, r23	; 0x01
     c3a:	60 83       	st	Z, r22
     c3c:	32 96       	adiw	r30, 0x02	; 2
     c3e:	80 e0       	ldi	r24, 0x00	; 0
     c40:	91 e0       	ldi	r25, 0x01	; 1
     c42:	91 83       	std	Z+1, r25	; 0x01
     c44:	80 83       	st	Z, r24
     c46:	8e e5       	ldi	r24, 0x5E	; 94
     c48:	96 e0       	ldi	r25, 0x06	; 6
     c4a:	d8 01       	movw	r26, r16
     c4c:	df 96       	adiw	r26, 0x3f	; 63
     c4e:	9c 93       	st	X, r25
     c50:	8e 93       	st	-X, r24
     c52:	de 97       	sbiw	r26, 0x3e	; 62
     c54:	34 97       	sbiw	r30, 0x04	; 4
     c56:	11 82       	std	Z+1, r1	; 0x01
     c58:	10 82       	st	Z, r1
     c5a:	f8 01       	movw	r30, r16
     c5c:	80 85       	ldd	r24, Z+8	; 0x08
     c5e:	84 60       	ori	r24, 0x04	; 4
     c60:	82 60       	ori	r24, 0x02	; 2
     c62:	80 87       	std	Z+8, r24	; 0x08
     c64:	ce 01       	movw	r24, r28
     c66:	05 96       	adiw	r24, 0x05	; 5
     c68:	0e 94 cf 13 	call	0x279e	; 0x279e <_ZN3gxx6tracerD2Ev.constprop.72>
     c6c:	c8 01       	movw	r24, r16
     c6e:	0e 94 96 15 	call	0x2b2c	; 0x2b2c <schedee_run>
     c72:	1d c0       	rjmp	.+58     	; 0xcae <main+0x382>
     c74:	d8 01       	movw	r26, r16
     c76:	1d 96       	adiw	r26, 0x0d	; 13
     c78:	20 e0       	ldi	r18, 0x00	; 0
     c7a:	30 e0       	ldi	r19, 0x00	; 0
     c7c:	f8 01       	movw	r30, r16
     c7e:	80 81       	ld	r24, Z
     c80:	91 81       	ldd	r25, Z+1	; 0x01
     c82:	a9 01       	movw	r20, r18
     c84:	44 0f       	add	r20, r20
     c86:	55 1f       	adc	r21, r21
     c88:	fc 01       	movw	r30, r24
     c8a:	e4 0f       	add	r30, r20
     c8c:	f5 1f       	adc	r31, r21
     c8e:	05 84       	ldd	r0, Z+13	; 0x0d
     c90:	f6 85       	ldd	r31, Z+14	; 0x0e
     c92:	e0 2d       	mov	r30, r0
     c94:	ed 93       	st	X+, r30
     c96:	fd 93       	st	X+, r31
     c98:	30 97       	sbiw	r30, 0x00	; 0
     c9a:	19 f0       	breq	.+6      	; 0xca2 <main+0x376>
     c9c:	92 81       	ldd	r25, Z+2	; 0x02
     c9e:	9f 5f       	subi	r25, 0xFF	; 255
     ca0:	92 83       	std	Z+2, r25	; 0x02
     ca2:	2f 5f       	subi	r18, 0xFF	; 255
     ca4:	3f 4f       	sbci	r19, 0xFF	; 255
     ca6:	25 30       	cpi	r18, 0x05	; 5
     ca8:	31 05       	cpc	r19, r1
     caa:	41 f7       	brne	.-48     	; 0xc7c <main+0x350>
     cac:	a7 cf       	rjmp	.-178    	; 0xbfc <main+0x2d0>
     cae:	0e 94 b9 10 	call	0x2172	; 0x2172 <_ZN4crow7onestepEv>
     cb2:	0e 94 bc 0c 	call	0x1978	; 0x1978 <timer_manager>
     cb6:	0e 94 de 15 	call	0x2bbc	; 0x2bbc <schedee_manager>
     cba:	f9 cf       	rjmp	.-14     	; 0xcae <main+0x382>

00000cbc <_Z8mainprocPv>:
     cbc:	cf 93       	push	r28
     cbe:	df 93       	push	r29
     cc0:	cd b7       	in	r28, 0x3d	; 61
     cc2:	de b7       	in	r29, 0x3e	; 62
     cc4:	65 97       	sbiw	r28, 0x15	; 21
     cc6:	0f b6       	in	r0, 0x3f	; 63
     cc8:	f8 94       	cli
     cca:	de bf       	out	0x3e, r29	; 62
     ccc:	0f be       	out	0x3f, r0	; 63
     cce:	cd bf       	out	0x3d, r28	; 61
     cd0:	6c e6       	ldi	r22, 0x6C	; 108
     cd2:	72 e0       	ldi	r23, 0x02	; 2
     cd4:	ce 01       	movw	r24, r28
     cd6:	03 96       	adiw	r24, 0x03	; 3
     cd8:	0e 94 72 04 	call	0x8e4	; 0x8e4 <_ZN3gxx6tracerC1EPKc>
     cdc:	0e 94 ca 0b 	call	0x1794	; 0x1794 <debug_print_newline.lto_priv.103.lto_priv.106>
     ce0:	6e 01       	movw	r12, r28
     ce2:	05 e0       	ldi	r16, 0x05	; 5
     ce4:	c0 0e       	add	r12, r16
     ce6:	d1 1c       	adc	r13, r1
     ce8:	e1 e4       	ldi	r30, 0x41	; 65
     cea:	f2 e0       	ldi	r31, 0x02	; 2
     cec:	6a e0       	ldi	r22, 0x0A	; 10
     cee:	71 e0       	ldi	r23, 0x01	; 1
     cf0:	80 81       	ld	r24, Z
     cf2:	8e 32       	cpi	r24, 0x2E	; 46
     cf4:	b9 f0       	breq	.+46     	; 0xd24 <_Z8mainprocPv+0x68>
     cf6:	44 f4       	brge	.+16     	; 0xd08 <_Z8mainprocPv+0x4c>
     cf8:	83 32       	cpi	r24, 0x23	; 35
     cfa:	09 f0       	breq	.+2      	; 0xcfe <_Z8mainprocPv+0x42>
     cfc:	89 c0       	rjmp	.+274    	; 0xe10 <_Z8mainprocPv+0x154>
     cfe:	af 01       	movw	r20, r30
     d00:	4f 5f       	subi	r20, 0xFF	; 255
     d02:	5f 4f       	sbci	r21, 0xFF	; 255
     d04:	90 e0       	ldi	r25, 0x00	; 0
     d06:	5e c0       	rjmp	.+188    	; 0xdc4 <_Z8mainprocPv+0x108>
     d08:	8a 33       	cpi	r24, 0x3A	; 58
     d0a:	29 f0       	breq	.+10     	; 0xd16 <_Z8mainprocPv+0x5a>
     d0c:	8f 35       	cpi	r24, 0x5F	; 95
     d0e:	09 f0       	breq	.+2      	; 0xd12 <_Z8mainprocPv+0x56>
     d10:	7f c0       	rjmp	.+254    	; 0xe10 <_Z8mainprocPv+0x154>
     d12:	31 96       	adiw	r30, 0x01	; 1
     d14:	78 c0       	rjmp	.+240    	; 0xe06 <_Z8mainprocPv+0x14a>
     d16:	7f 01       	movw	r14, r30
     d18:	2f ef       	ldi	r18, 0xFF	; 255
     d1a:	e2 1a       	sub	r14, r18
     d1c:	f2 0a       	sbc	r15, r18
     d1e:	20 e0       	ldi	r18, 0x00	; 0
     d20:	30 e0       	ldi	r19, 0x00	; 0
     d22:	27 c0       	rjmp	.+78     	; 0xd72 <_Z8mainprocPv+0xb6>
     d24:	af 01       	movw	r20, r30
     d26:	4f 5f       	subi	r20, 0xFF	; 255
     d28:	5f 4f       	sbci	r21, 0xFF	; 255
     d2a:	80 e0       	ldi	r24, 0x00	; 0
     d2c:	fa 01       	movw	r30, r20
     d2e:	90 81       	ld	r25, Z
     d30:	4f 5f       	subi	r20, 0xFF	; 255
     d32:	5f 4f       	sbci	r21, 0xFF	; 255
     d34:	29 2f       	mov	r18, r25
     d36:	30 e0       	ldi	r19, 0x00	; 0
     d38:	2c 5d       	subi	r18, 0xDC	; 220
     d3a:	3a 4f       	sbci	r19, 0xFA	; 250
     d3c:	d9 01       	movw	r26, r18
     d3e:	2c 91       	ld	r18, X
     d40:	22 ff       	sbrs	r18, 2
     d42:	5b c0       	rjmp	.+182    	; 0xdfa <_Z8mainprocPv+0x13e>
     d44:	88 0f       	add	r24, r24
     d46:	28 2f       	mov	r18, r24
     d48:	22 0f       	add	r18, r18
     d4a:	22 0f       	add	r18, r18
     d4c:	82 0f       	add	r24, r18
     d4e:	9a 33       	cpi	r25, 0x3A	; 58
     d50:	14 f4       	brge	.+4      	; 0xd56 <_Z8mainprocPv+0x9a>
     d52:	90 53       	subi	r25, 0x30	; 48
     d54:	01 c0       	rjmp	.+2      	; 0xd58 <_Z8mainprocPv+0x9c>
     d56:	97 53       	subi	r25, 0x37	; 55
     d58:	89 0f       	add	r24, r25
     d5a:	e8 cf       	rjmp	.-48     	; 0xd2c <_Z8mainprocPv+0x70>
     d5c:	62 9f       	mul	r22, r18
     d5e:	a0 01       	movw	r20, r0
     d60:	63 9f       	mul	r22, r19
     d62:	50 0d       	add	r21, r0
     d64:	11 24       	eor	r1, r1
     d66:	8a 33       	cpi	r24, 0x3A	; 58
     d68:	94 f4       	brge	.+36     	; 0xd8e <_Z8mainprocPv+0xd2>
     d6a:	80 53       	subi	r24, 0x30	; 48
     d6c:	9a 01       	movw	r18, r20
     d6e:	28 0f       	add	r18, r24
     d70:	31 1d       	adc	r19, r1
     d72:	f7 01       	movw	r30, r14
     d74:	80 81       	ld	r24, Z
     d76:	4f ef       	ldi	r20, 0xFF	; 255
     d78:	e4 1a       	sub	r14, r20
     d7a:	f4 0a       	sbc	r15, r20
     d7c:	48 2f       	mov	r20, r24
     d7e:	50 e0       	ldi	r21, 0x00	; 0
     d80:	4c 5d       	subi	r20, 0xDC	; 220
     d82:	5a 4f       	sbci	r21, 0xFA	; 250
     d84:	da 01       	movw	r26, r20
     d86:	9c 91       	ld	r25, X
     d88:	92 fd       	sbrc	r25, 2
     d8a:	e8 cf       	rjmp	.-48     	; 0xd5c <_Z8mainprocPv+0xa0>
     d8c:	02 c0       	rjmp	.+4      	; 0xd92 <_Z8mainprocPv+0xd6>
     d8e:	87 53       	subi	r24, 0x37	; 55
     d90:	ed cf       	rjmp	.-38     	; 0xd6c <_Z8mainprocPv+0xb0>
     d92:	d6 01       	movw	r26, r12
     d94:	3c 93       	st	X, r19
     d96:	11 96       	adiw	r26, 0x01	; 1
     d98:	2c 93       	st	X, r18
     d9a:	96 01       	movw	r18, r12
     d9c:	2e 5f       	subi	r18, 0xFE	; 254
     d9e:	3f 4f       	sbci	r19, 0xFF	; 255
     da0:	69 01       	movw	r12, r18
     da2:	31 c0       	rjmp	.+98     	; 0xe06 <_Z8mainprocPv+0x14a>
     da4:	99 23       	and	r25, r25
     da6:	e9 f0       	breq	.+58     	; 0xde2 <_Z8mainprocPv+0x126>
     da8:	f6 01       	movw	r30, r12
     daa:	31 96       	adiw	r30, 0x01	; 1
     dac:	a0 e1       	ldi	r26, 0x10	; 16
     dae:	1a 9f       	mul	r17, r26
     db0:	90 01       	movw	r18, r0
     db2:	11 24       	eor	r1, r1
     db4:	8a 33       	cpi	r24, 0x3A	; 58
     db6:	9c f4       	brge	.+38     	; 0xdde <_Z8mainprocPv+0x122>
     db8:	80 53       	subi	r24, 0x30	; 48
     dba:	82 2b       	or	r24, r18
     dbc:	d6 01       	movw	r26, r12
     dbe:	8c 93       	st	X, r24
     dc0:	6f 01       	movw	r12, r30
     dc2:	97 27       	eor	r25, r23
     dc4:	fa 01       	movw	r30, r20
     dc6:	80 81       	ld	r24, Z
     dc8:	4f 5f       	subi	r20, 0xFF	; 255
     dca:	5f 4f       	sbci	r21, 0xFF	; 255
     dcc:	28 2f       	mov	r18, r24
     dce:	30 e0       	ldi	r19, 0x00	; 0
     dd0:	2c 5d       	subi	r18, 0xDC	; 220
     dd2:	3a 4f       	sbci	r19, 0xFA	; 250
     dd4:	d9 01       	movw	r26, r18
     dd6:	2c 91       	ld	r18, X
     dd8:	24 74       	andi	r18, 0x44	; 68
     dda:	21 f7       	brne	.-56     	; 0xda4 <_Z8mainprocPv+0xe8>
     ddc:	09 c0       	rjmp	.+18     	; 0xdf0 <_Z8mainprocPv+0x134>
     dde:	87 53       	subi	r24, 0x37	; 55
     de0:	ec cf       	rjmp	.-40     	; 0xdba <_Z8mainprocPv+0xfe>
     de2:	8a 33       	cpi	r24, 0x3A	; 58
     de4:	14 f4       	brge	.+4      	; 0xdea <_Z8mainprocPv+0x12e>
     de6:	10 ed       	ldi	r17, 0xD0	; 208
     de8:	01 c0       	rjmp	.+2      	; 0xdec <_Z8mainprocPv+0x130>
     dea:	19 ec       	ldi	r17, 0xC9	; 201
     dec:	18 0f       	add	r17, r24
     dee:	e9 cf       	rjmp	.-46     	; 0xdc2 <_Z8mainprocPv+0x106>
     df0:	99 23       	and	r25, r25
     df2:	49 f0       	breq	.+18     	; 0xe06 <_Z8mainprocPv+0x14a>
     df4:	81 2f       	mov	r24, r17
     df6:	82 95       	swap	r24
     df8:	80 7f       	andi	r24, 0xF0	; 240
     dfa:	d6 01       	movw	r26, r12
     dfc:	8c 93       	st	X, r24
     dfe:	96 01       	movw	r18, r12
     e00:	2f 5f       	subi	r18, 0xFF	; 255
     e02:	3f 4f       	sbci	r19, 0xFF	; 255
     e04:	cd cf       	rjmp	.-102    	; 0xda0 <_Z8mainprocPv+0xe4>
     e06:	32 e0       	ldi	r19, 0x02	; 2
     e08:	e4 34       	cpi	r30, 0x44	; 68
     e0a:	f3 07       	cpc	r31, r19
     e0c:	09 f0       	breq	.+2      	; 0xe10 <_Z8mainprocPv+0x154>
     e0e:	70 cf       	rjmp	.-288    	; 0xcf0 <_Z8mainprocPv+0x34>
     e10:	47 98       	cbi	0x08, 7	; 8
     e12:	6a e0       	ldi	r22, 0x0A	; 10
     e14:	70 e0       	ldi	r23, 0x00	; 0
     e16:	81 e0       	ldi	r24, 0x01	; 1
     e18:	0e 94 02 13 	call	0x2604	; 0x2604 <_ZN4crow13create_packetEPNS_7gatewayEhj.constprop.60>
     e1c:	8c 01       	movw	r16, r24
     e1e:	dc 01       	movw	r26, r24
     e20:	1f 96       	adiw	r26, 0x0f	; 15
     e22:	8c 91       	ld	r24, X
     e24:	1f 97       	sbiw	r26, 0x0f	; 15
     e26:	87 70       	andi	r24, 0x07	; 7
     e28:	1f 96       	adiw	r26, 0x0f	; 15
     e2a:	8c 93       	st	X, r24
     e2c:	1f 97       	sbiw	r26, 0x0f	; 15
     e2e:	58 96       	adiw	r26, 0x18	; 24
     e30:	1c 92       	st	X, r1
     e32:	58 97       	sbiw	r26, 0x18	; 24
     e34:	e8 ec       	ldi	r30, 0xC8	; 200
     e36:	f0 e0       	ldi	r31, 0x00	; 0
     e38:	55 96       	adiw	r26, 0x15	; 21
     e3a:	fc 93       	st	X, r31
     e3c:	ee 93       	st	-X, r30
     e3e:	54 97       	sbiw	r26, 0x14	; 20
     e40:	8d 81       	ldd	r24, Y+5	; 0x05
     e42:	59 96       	adiw	r26, 0x19	; 25
     e44:	8c 93       	st	X, r24
     e46:	59 97       	sbiw	r26, 0x19	; 25
     e48:	52 96       	adiw	r26, 0x12	; 18
     e4a:	8c 91       	ld	r24, X
     e4c:	52 97       	sbiw	r26, 0x12	; 18
     e4e:	a8 0f       	add	r26, r24
     e50:	b1 1d       	adc	r27, r1
     e52:	59 96       	adiw	r26, 0x19	; 25
     e54:	8a e0       	ldi	r24, 0x0A	; 10
     e56:	e5 e4       	ldi	r30, 0x45	; 69
     e58:	f2 e0       	ldi	r31, 0x02	; 2
     e5a:	01 90       	ld	r0, Z+
     e5c:	0d 92       	st	X+, r0
     e5e:	8a 95       	dec	r24
     e60:	e1 f7       	brne	.-8      	; 0xe5a <_Z8mainprocPv+0x19e>
     e62:	d8 01       	movw	r26, r16
     e64:	53 96       	adiw	r26, 0x13	; 19
     e66:	1c 92       	st	X, r1
     e68:	53 97       	sbiw	r26, 0x13	; 19
     e6a:	1f 96       	adiw	r26, 0x0f	; 15
     e6c:	8c 91       	ld	r24, X
     e6e:	1f 97       	sbiw	r26, 0x0f	; 15
     e70:	8e 7f       	andi	r24, 0xFE	; 254
     e72:	1f 96       	adiw	r26, 0x0f	; 15
     e74:	8c 93       	st	X, r24
     e76:	0e 94 3e 14 	call	0x287c	; 0x287c <system_lock>
     e7a:	80 91 a1 07 	lds	r24, 0x07A1	; 0x8007a1 <__bss_start>
     e7e:	90 91 a2 07 	lds	r25, 0x07A2	; 0x8007a2 <__bss_start+0x1>
     e82:	9c 01       	movw	r18, r24
     e84:	2f 5f       	subi	r18, 0xFF	; 255
     e86:	3f 4f       	sbci	r19, 0xFF	; 255
     e88:	30 93 a2 07 	sts	0x07A2, r19	; 0x8007a2 <__bss_start+0x1>
     e8c:	20 93 a1 07 	sts	0x07A1, r18	; 0x8007a1 <__bss_start>
     e90:	f8 01       	movw	r30, r16
     e92:	97 8b       	std	Z+23, r25	; 0x17
     e94:	86 8b       	std	Z+22, r24	; 0x16
     e96:	0e 94 2f 14 	call	0x285e	; 0x285e <system_unlock>
     e9a:	c8 01       	movw	r24, r16
     e9c:	0e 94 1f 10 	call	0x203e	; 0x203e <_ZN4crow6travelEPNS_6packetE>
     ea0:	20 90 af 07 	lds	r2, 0x07AF	; 0x8007af <__current_schedee>
     ea4:	30 90 b0 07 	lds	r3, 0x07B0	; 0x8007b0 <__current_schedee+0x1>
     ea8:	21 14       	cp	r2, r1
     eaa:	31 04       	cpc	r3, r1
     eac:	29 f0       	breq	.+10     	; 0xeb8 <_Z8mainprocPv+0x1fc>
     eae:	d1 01       	movw	r26, r2
     eb0:	18 96       	adiw	r26, 0x08	; 8
     eb2:	8c 91       	ld	r24, X
     eb4:	81 fd       	sbrc	r24, 1
     eb6:	94 c0       	rjmp	.+296    	; 0xfe0 <_Z8mainprocPv+0x324>
     eb8:	0e 94 3e 14 	call	0x287c	; 0x287c <system_lock>
     ebc:	20 90 a7 07 	lds	r2, 0x07A7	; 0x8007a7 <__jiffies>
     ec0:	30 90 a8 07 	lds	r3, 0x07A8	; 0x8007a8 <__jiffies+0x1>
     ec4:	40 90 a9 07 	lds	r4, 0x07A9	; 0x8007a9 <__jiffies+0x2>
     ec8:	50 90 aa 07 	lds	r5, 0x07AA	; 0x8007aa <__jiffies+0x3>
     ecc:	60 90 ab 07 	lds	r6, 0x07AB	; 0x8007ab <__jiffies+0x4>
     ed0:	70 90 ac 07 	lds	r7, 0x07AC	; 0x8007ac <__jiffies+0x5>
     ed4:	80 90 ad 07 	lds	r8, 0x07AD	; 0x8007ad <__jiffies+0x6>
     ed8:	90 90 ae 07 	lds	r9, 0x07AE	; 0x8007ae <__jiffies+0x7>
     edc:	0e 94 2f 14 	call	0x285e	; 0x285e <system_unlock>
     ee0:	80 91 a3 07 	lds	r24, 0x07A3	; 0x8007a3 <systime_frequency>
     ee4:	90 91 a4 07 	lds	r25, 0x07A4	; 0x8007a4 <systime_frequency+0x1>
     ee8:	a0 91 a5 07 	lds	r26, 0x07A5	; 0x8007a5 <systime_frequency+0x2>
     eec:	b0 91 a6 07 	lds	r27, 0x07A6	; 0x8007a6 <systime_frequency+0x3>
     ef0:	5c 01       	movw	r10, r24
     ef2:	6d 01       	movw	r12, r26
     ef4:	e1 2c       	mov	r14, r1
     ef6:	f1 2c       	mov	r15, r1
     ef8:	87 01       	movw	r16, r14
     efa:	8e 83       	std	Y+6, r24	; 0x06
     efc:	bf 82       	std	Y+7, r11	; 0x07
     efe:	c8 86       	std	Y+8, r12	; 0x08
     f00:	d9 86       	std	Y+9, r13	; 0x09
     f02:	ea 86       	std	Y+10, r14	; 0x0a
     f04:	fb 86       	std	Y+11, r15	; 0x0b
     f06:	0c 87       	std	Y+12, r16	; 0x0c
     f08:	1d 87       	std	Y+13, r17	; 0x0d
     f0a:	58 ee       	ldi	r21, 0xE8	; 232
     f0c:	a5 2e       	mov	r10, r21
     f0e:	63 e0       	ldi	r22, 0x03	; 3
     f10:	b6 2e       	mov	r11, r22
     f12:	c1 2c       	mov	r12, r1
     f14:	d1 2c       	mov	r13, r1
     f16:	e1 2c       	mov	r14, r1
     f18:	f1 2c       	mov	r15, r1
     f1a:	00 e0       	ldi	r16, 0x00	; 0
     f1c:	10 e0       	ldi	r17, 0x00	; 0
     f1e:	91 01       	movw	r18, r2
     f20:	a2 01       	movw	r20, r4
     f22:	b3 01       	movw	r22, r6
     f24:	c4 01       	movw	r24, r8
     f26:	0e 94 2f 18 	call	0x305e	; 0x305e <__muldi3>
     f2a:	ae 80       	ldd	r10, Y+6	; 0x06
     f2c:	bf 80       	ldd	r11, Y+7	; 0x07
     f2e:	c8 84       	ldd	r12, Y+8	; 0x08
     f30:	d9 84       	ldd	r13, Y+9	; 0x09
     f32:	0e 94 8a 18 	call	0x3114	; 0x3114 <__divdi3>
     f36:	0e 94 3e 17 	call	0x2e7c	; 0x2e7c <__floatdisf>
     f3a:	20 e0       	ldi	r18, 0x00	; 0
     f3c:	30 e0       	ldi	r19, 0x00	; 0
     f3e:	4a e7       	ldi	r20, 0x7A	; 122
     f40:	54 e4       	ldi	r21, 0x44	; 68
     f42:	0e 94 96 16 	call	0x2d2c	; 0x2d2c <__addsf3>
     f46:	0e 94 02 17 	call	0x2e04	; 0x2e04 <__fixsfdi>
     f4a:	2e 87       	std	Y+14, r18	; 0x0e
     f4c:	3f 87       	std	Y+15, r19	; 0x0f
     f4e:	48 8b       	std	Y+16, r20	; 0x10
     f50:	59 8b       	std	Y+17, r21	; 0x11
     f52:	6a 8b       	std	Y+18, r22	; 0x12
     f54:	7b 8b       	std	Y+19, r23	; 0x13
     f56:	8c 8b       	std	Y+20, r24	; 0x14
     f58:	9d 8b       	std	Y+21, r25	; 0x15
     f5a:	0e 94 3e 14 	call	0x287c	; 0x287c <system_lock>
     f5e:	20 90 a7 07 	lds	r2, 0x07A7	; 0x8007a7 <__jiffies>
     f62:	30 90 a8 07 	lds	r3, 0x07A8	; 0x8007a8 <__jiffies+0x1>
     f66:	40 90 a9 07 	lds	r4, 0x07A9	; 0x8007a9 <__jiffies+0x2>
     f6a:	50 90 aa 07 	lds	r5, 0x07AA	; 0x8007aa <__jiffies+0x3>
     f6e:	60 90 ab 07 	lds	r6, 0x07AB	; 0x8007ab <__jiffies+0x4>
     f72:	70 90 ac 07 	lds	r7, 0x07AC	; 0x8007ac <__jiffies+0x5>
     f76:	80 90 ad 07 	lds	r8, 0x07AD	; 0x8007ad <__jiffies+0x6>
     f7a:	90 90 ae 07 	lds	r9, 0x07AE	; 0x8007ae <__jiffies+0x7>
     f7e:	0e 94 2f 14 	call	0x285e	; 0x285e <system_unlock>
     f82:	38 ee       	ldi	r19, 0xE8	; 232
     f84:	a3 2e       	mov	r10, r19
     f86:	43 e0       	ldi	r20, 0x03	; 3
     f88:	b4 2e       	mov	r11, r20
     f8a:	c1 2c       	mov	r12, r1
     f8c:	d1 2c       	mov	r13, r1
     f8e:	e1 2c       	mov	r14, r1
     f90:	f1 2c       	mov	r15, r1
     f92:	00 e0       	ldi	r16, 0x00	; 0
     f94:	10 e0       	ldi	r17, 0x00	; 0
     f96:	91 01       	movw	r18, r2
     f98:	a2 01       	movw	r20, r4
     f9a:	b3 01       	movw	r22, r6
     f9c:	c4 01       	movw	r24, r8
     f9e:	0e 94 2f 18 	call	0x305e	; 0x305e <__muldi3>
     fa2:	ae 80       	ldd	r10, Y+6	; 0x06
     fa4:	bf 80       	ldd	r11, Y+7	; 0x07
     fa6:	c8 84       	ldd	r12, Y+8	; 0x08
     fa8:	d9 84       	ldd	r13, Y+9	; 0x09
     faa:	ea 84       	ldd	r14, Y+10	; 0x0a
     fac:	fb 84       	ldd	r15, Y+11	; 0x0b
     fae:	0c 85       	ldd	r16, Y+12	; 0x0c
     fb0:	1d 85       	ldd	r17, Y+13	; 0x0d
     fb2:	0e 94 8a 18 	call	0x3114	; 0x3114 <__divdi3>
     fb6:	59 01       	movw	r10, r18
     fb8:	6a 01       	movw	r12, r20
     fba:	7b 01       	movw	r14, r22
     fbc:	8c 01       	movw	r16, r24
     fbe:	2e 85       	ldd	r18, Y+14	; 0x0e
     fc0:	3f 85       	ldd	r19, Y+15	; 0x0f
     fc2:	48 89       	ldd	r20, Y+16	; 0x10
     fc4:	59 89       	ldd	r21, Y+17	; 0x11
     fc6:	6a 89       	ldd	r22, Y+18	; 0x12
     fc8:	7b 89       	ldd	r23, Y+19	; 0x13
     fca:	8c 89       	ldd	r24, Y+20	; 0x14
     fcc:	9d 89       	ldd	r25, Y+21	; 0x15
     fce:	0e 94 74 19 	call	0x32e8	; 0x32e8 <__subdi3>
     fd2:	a0 e0       	ldi	r26, 0x00	; 0
     fd4:	0e 94 86 19 	call	0x330c	; 0x330c <__cmpdi2_s8>
     fd8:	11 f0       	breq	.+4      	; 0xfde <_Z8mainprocPv+0x322>
     fda:	0c f0       	brlt	.+2      	; 0xfde <_Z8mainprocPv+0x322>
     fdc:	be cf       	rjmp	.-132    	; 0xf5a <_Z8mainprocPv+0x29e>
     fde:	19 cf       	rjmp	.-462    	; 0xe12 <_Z8mainprocPv+0x156>
     fe0:	20 91 a3 07 	lds	r18, 0x07A3	; 0x8007a3 <systime_frequency>
     fe4:	30 91 a4 07 	lds	r19, 0x07A4	; 0x8007a4 <systime_frequency+0x1>
     fe8:	40 91 a5 07 	lds	r20, 0x07A5	; 0x8007a5 <systime_frequency+0x2>
     fec:	50 91 a6 07 	lds	r21, 0x07A6	; 0x8007a6 <systime_frequency+0x3>
     ff0:	a8 ee       	ldi	r26, 0xE8	; 232
     ff2:	b3 e0       	ldi	r27, 0x03	; 3
     ff4:	0e 94 24 18 	call	0x3048	; 0x3048 <__muluhisi3>
     ff8:	28 ee       	ldi	r18, 0xE8	; 232
     ffa:	33 e0       	ldi	r19, 0x03	; 3
     ffc:	40 e0       	ldi	r20, 0x00	; 0
     ffe:	50 e0       	ldi	r21, 0x00	; 0
    1000:	0e 94 e3 17 	call	0x2fc6	; 0x2fc6 <__udivmodsi4>
    1004:	59 01       	movw	r10, r18
    1006:	6a 01       	movw	r12, r20
    1008:	e1 2c       	mov	r14, r1
    100a:	f1 2c       	mov	r15, r1
    100c:	87 01       	movw	r16, r14
    100e:	2e 83       	std	Y+6, r18	; 0x06
    1010:	bf 82       	std	Y+7, r11	; 0x07
    1012:	c8 86       	std	Y+8, r12	; 0x08
    1014:	d9 86       	std	Y+9, r13	; 0x09
    1016:	ea 86       	std	Y+10, r14	; 0x0a
    1018:	fb 86       	std	Y+11, r15	; 0x0b
    101a:	0c 87       	std	Y+12, r16	; 0x0c
    101c:	1d 87       	std	Y+13, r17	; 0x0d
    101e:	0e 94 3e 14 	call	0x287c	; 0x287c <system_lock>
    1022:	a0 90 a7 07 	lds	r10, 0x07A7	; 0x8007a7 <__jiffies>
    1026:	b0 90 a8 07 	lds	r11, 0x07A8	; 0x8007a8 <__jiffies+0x1>
    102a:	c0 90 a9 07 	lds	r12, 0x07A9	; 0x8007a9 <__jiffies+0x2>
    102e:	d0 90 aa 07 	lds	r13, 0x07AA	; 0x8007aa <__jiffies+0x3>
    1032:	e0 90 ab 07 	lds	r14, 0x07AB	; 0x8007ab <__jiffies+0x4>
    1036:	f0 90 ac 07 	lds	r15, 0x07AC	; 0x8007ac <__jiffies+0x5>
    103a:	00 91 ad 07 	lds	r16, 0x07AD	; 0x8007ad <__jiffies+0x6>
    103e:	10 91 ae 07 	lds	r17, 0x07AE	; 0x8007ae <__jiffies+0x7>
    1042:	0e 94 2f 14 	call	0x285e	; 0x285e <system_unlock>
    1046:	88 e1       	ldi	r24, 0x18	; 24
    1048:	90 e0       	ldi	r25, 0x00	; 0
    104a:	0e 94 49 0b 	call	0x1692	; 0x1692 <malloc>
    104e:	4c 01       	movw	r8, r24
    1050:	ee ea       	ldi	r30, 0xAE	; 174
    1052:	fa e0       	ldi	r31, 0x0A	; 10
    1054:	dc 01       	movw	r26, r24
    1056:	15 96       	adiw	r26, 0x05	; 5
    1058:	fc 93       	st	X, r31
    105a:	ee 93       	st	-X, r30
    105c:	14 97       	sbiw	r26, 0x04	; 4
    105e:	17 96       	adiw	r26, 0x07	; 7
    1060:	3c 92       	st	X, r3
    1062:	2e 92       	st	-X, r2
    1064:	16 97       	sbiw	r26, 0x06	; 6
    1066:	18 96       	adiw	r26, 0x08	; 8
    1068:	ac 92       	st	X, r10
    106a:	18 97       	sbiw	r26, 0x08	; 8
    106c:	19 96       	adiw	r26, 0x09	; 9
    106e:	bc 92       	st	X, r11
    1070:	19 97       	sbiw	r26, 0x09	; 9
    1072:	1a 96       	adiw	r26, 0x0a	; 10
    1074:	cc 92       	st	X, r12
    1076:	1a 97       	sbiw	r26, 0x0a	; 10
    1078:	1b 96       	adiw	r26, 0x0b	; 11
    107a:	dc 92       	st	X, r13
    107c:	1b 97       	sbiw	r26, 0x0b	; 11
    107e:	1c 96       	adiw	r26, 0x0c	; 12
    1080:	ec 92       	st	X, r14
    1082:	1c 97       	sbiw	r26, 0x0c	; 12
    1084:	1d 96       	adiw	r26, 0x0d	; 13
    1086:	fc 92       	st	X, r15
    1088:	1d 97       	sbiw	r26, 0x0d	; 13
    108a:	1e 96       	adiw	r26, 0x0e	; 14
    108c:	0c 93       	st	X, r16
    108e:	1e 97       	sbiw	r26, 0x0e	; 14
    1090:	1f 96       	adiw	r26, 0x0f	; 15
    1092:	1c 93       	st	X, r17
    1094:	1f 97       	sbiw	r26, 0x0f	; 15
    1096:	fe 81       	ldd	r31, Y+6	; 0x06
    1098:	50 96       	adiw	r26, 0x10	; 16
    109a:	fc 93       	st	X, r31
    109c:	50 97       	sbiw	r26, 0x10	; 16
    109e:	af 80       	ldd	r10, Y+7	; 0x07
    10a0:	51 96       	adiw	r26, 0x11	; 17
    10a2:	ac 92       	st	X, r10
    10a4:	51 97       	sbiw	r26, 0x11	; 17
    10a6:	b8 84       	ldd	r11, Y+8	; 0x08
    10a8:	52 96       	adiw	r26, 0x12	; 18
    10aa:	bc 92       	st	X, r11
    10ac:	52 97       	sbiw	r26, 0x12	; 18
    10ae:	c9 84       	ldd	r12, Y+9	; 0x09
    10b0:	53 96       	adiw	r26, 0x13	; 19
    10b2:	cc 92       	st	X, r12
    10b4:	53 97       	sbiw	r26, 0x13	; 19
    10b6:	54 96       	adiw	r26, 0x14	; 20
    10b8:	1c 92       	st	X, r1
    10ba:	54 97       	sbiw	r26, 0x14	; 20
    10bc:	55 96       	adiw	r26, 0x15	; 21
    10be:	1c 92       	st	X, r1
    10c0:	55 97       	sbiw	r26, 0x15	; 21
    10c2:	56 96       	adiw	r26, 0x16	; 22
    10c4:	1c 92       	st	X, r1
    10c6:	56 97       	sbiw	r26, 0x16	; 22
    10c8:	57 96       	adiw	r26, 0x17	; 23
    10ca:	1c 92       	st	X, r1
    10cc:	0e 94 3e 14 	call	0x287c	; 0x287c <system_lock>
    10d0:	d4 01       	movw	r26, r8
    10d2:	18 96       	adiw	r26, 0x08	; 8
    10d4:	2c 91       	ld	r18, X
    10d6:	18 97       	sbiw	r26, 0x08	; 8
    10d8:	19 96       	adiw	r26, 0x09	; 9
    10da:	3c 91       	ld	r19, X
    10dc:	19 97       	sbiw	r26, 0x09	; 9
    10de:	1a 96       	adiw	r26, 0x0a	; 10
    10e0:	4c 91       	ld	r20, X
    10e2:	1a 97       	sbiw	r26, 0x0a	; 10
    10e4:	1b 96       	adiw	r26, 0x0b	; 11
    10e6:	5c 91       	ld	r21, X
    10e8:	1b 97       	sbiw	r26, 0x0b	; 11
    10ea:	1c 96       	adiw	r26, 0x0c	; 12
    10ec:	6c 91       	ld	r22, X
    10ee:	1c 97       	sbiw	r26, 0x0c	; 12
    10f0:	1d 96       	adiw	r26, 0x0d	; 13
    10f2:	7c 91       	ld	r23, X
    10f4:	1d 97       	sbiw	r26, 0x0d	; 13
    10f6:	1e 96       	adiw	r26, 0x0e	; 14
    10f8:	8c 91       	ld	r24, X
    10fa:	1e 97       	sbiw	r26, 0x0e	; 14
    10fc:	1f 96       	adiw	r26, 0x0f	; 15
    10fe:	9c 91       	ld	r25, X
    1100:	1f 97       	sbiw	r26, 0x0f	; 15
    1102:	50 96       	adiw	r26, 0x10	; 16
    1104:	ac 90       	ld	r10, X
    1106:	50 97       	sbiw	r26, 0x10	; 16
    1108:	51 96       	adiw	r26, 0x11	; 17
    110a:	bc 90       	ld	r11, X
    110c:	51 97       	sbiw	r26, 0x11	; 17
    110e:	52 96       	adiw	r26, 0x12	; 18
    1110:	cc 90       	ld	r12, X
    1112:	52 97       	sbiw	r26, 0x12	; 18
    1114:	53 96       	adiw	r26, 0x13	; 19
    1116:	dc 90       	ld	r13, X
    1118:	53 97       	sbiw	r26, 0x13	; 19
    111a:	54 96       	adiw	r26, 0x14	; 20
    111c:	ec 90       	ld	r14, X
    111e:	54 97       	sbiw	r26, 0x14	; 20
    1120:	55 96       	adiw	r26, 0x15	; 21
    1122:	fc 90       	ld	r15, X
    1124:	55 97       	sbiw	r26, 0x15	; 21
    1126:	56 96       	adiw	r26, 0x16	; 22
    1128:	0c 91       	ld	r16, X
    112a:	56 97       	sbiw	r26, 0x16	; 22
    112c:	57 96       	adiw	r26, 0x17	; 23
    112e:	1c 91       	ld	r17, X
    1130:	0e 94 5f 19 	call	0x32be	; 0x32be <__adddi3>
    1134:	2e 83       	std	Y+6, r18	; 0x06
    1136:	b3 2f       	mov	r27, r19
    1138:	4e 87       	std	Y+14, r20	; 0x0e
    113a:	5f 87       	std	Y+15, r21	; 0x0f
    113c:	76 2e       	mov	r7, r22
    113e:	67 2e       	mov	r6, r23
    1140:	58 2e       	mov	r5, r24
    1142:	49 2e       	mov	r4, r25
    1144:	e0 91 0f 02 	lds	r30, 0x020F	; 0x80020f <ktimer_list>
    1148:	f0 91 10 02 	lds	r31, 0x0210	; 0x800210 <ktimer_list+0x1>
    114c:	02 e0       	ldi	r16, 0x02	; 2
    114e:	ef 30       	cpi	r30, 0x0F	; 15
    1150:	f0 07       	cpc	r31, r16
    1152:	51 f1       	breq	.+84     	; 0x11a8 <_Z8mainprocPv+0x4ec>
    1154:	20 85       	ldd	r18, Z+8	; 0x08
    1156:	31 85       	ldd	r19, Z+9	; 0x09
    1158:	42 85       	ldd	r20, Z+10	; 0x0a
    115a:	53 85       	ldd	r21, Z+11	; 0x0b
    115c:	64 85       	ldd	r22, Z+12	; 0x0c
    115e:	75 85       	ldd	r23, Z+13	; 0x0d
    1160:	86 85       	ldd	r24, Z+14	; 0x0e
    1162:	97 85       	ldd	r25, Z+15	; 0x0f
    1164:	a0 88       	ldd	r10, Z+16	; 0x10
    1166:	b1 88       	ldd	r11, Z+17	; 0x11
    1168:	c2 88       	ldd	r12, Z+18	; 0x12
    116a:	d3 88       	ldd	r13, Z+19	; 0x13
    116c:	e4 88       	ldd	r14, Z+20	; 0x14
    116e:	f5 88       	ldd	r15, Z+21	; 0x15
    1170:	06 89       	ldd	r16, Z+22	; 0x16
    1172:	17 89       	ldd	r17, Z+23	; 0x17
    1174:	0e 94 5f 19 	call	0x32be	; 0x32be <__adddi3>
    1178:	59 01       	movw	r10, r18
    117a:	6a 01       	movw	r12, r20
    117c:	7b 01       	movw	r14, r22
    117e:	8c 01       	movw	r16, r24
    1180:	2e 81       	ldd	r18, Y+6	; 0x06
    1182:	3b 2f       	mov	r19, r27
    1184:	4e 85       	ldd	r20, Y+14	; 0x0e
    1186:	5f 85       	ldd	r21, Y+15	; 0x0f
    1188:	67 2d       	mov	r22, r7
    118a:	76 2d       	mov	r23, r6
    118c:	85 2d       	mov	r24, r5
    118e:	94 2d       	mov	r25, r4
    1190:	0e 94 74 19 	call	0x32e8	; 0x32e8 <__subdi3>
    1194:	a0 e0       	ldi	r26, 0x00	; 0
    1196:	0e 94 86 19 	call	0x330c	; 0x330c <__cmpdi2_s8>
    119a:	24 f0       	brlt	.+8      	; 0x11a4 <_Z8mainprocPv+0x4e8>
    119c:	01 90       	ld	r0, Z+
    119e:	f0 81       	ld	r31, Z
    11a0:	e0 2d       	mov	r30, r0
    11a2:	d4 cf       	rjmp	.-88     	; 0x114c <_Z8mainprocPv+0x490>
    11a4:	30 97       	sbiw	r30, 0x00	; 0
    11a6:	11 f4       	brne	.+4      	; 0x11ac <_Z8mainprocPv+0x4f0>
    11a8:	ef e0       	ldi	r30, 0x0F	; 15
    11aa:	f2 e0       	ldi	r31, 0x02	; 2
    11ac:	82 81       	ldd	r24, Z+2	; 0x02
    11ae:	93 81       	ldd	r25, Z+3	; 0x03
    11b0:	d4 01       	movw	r26, r8
    11b2:	13 96       	adiw	r26, 0x03	; 3
    11b4:	9c 93       	st	X, r25
    11b6:	8e 93       	st	-X, r24
    11b8:	12 97       	sbiw	r26, 0x02	; 2
    11ba:	ed 93       	st	X+, r30
    11bc:	fc 93       	st	X, r31
    11be:	93 82       	std	Z+3, r9	; 0x03
    11c0:	82 82       	std	Z+2, r8	; 0x02
    11c2:	fc 01       	movw	r30, r24
    11c4:	91 82       	std	Z+1, r9	; 0x01
    11c6:	80 82       	st	Z, r8
    11c8:	0e 94 2f 14 	call	0x285e	; 0x285e <system_unlock>
    11cc:	60 e5       	ldi	r22, 0x50	; 80
    11ce:	72 e0       	ldi	r23, 0x02	; 2
    11d0:	ce 01       	movw	r24, r28
    11d2:	01 96       	adiw	r24, 0x01	; 1
    11d4:	0e 94 72 04 	call	0x8e4	; 0x8e4 <_ZN3gxx6tracerC1EPKc>
    11d8:	0e 94 ca 0b 	call	0x1794	; 0x1794 <debug_print_newline.lto_priv.103.lto_priv.106>
    11dc:	e2 e0       	ldi	r30, 0x02	; 2
    11de:	d1 01       	movw	r26, r2
    11e0:	17 96       	adiw	r26, 0x07	; 7
    11e2:	ec 93       	st	X, r30
    11e4:	0e 94 3e 14 	call	0x287c	; 0x287c <system_lock>
    11e8:	c1 01       	movw	r24, r2
    11ea:	02 96       	adiw	r24, 0x02	; 2
    11ec:	f1 01       	movw	r30, r2
    11ee:	a2 81       	ldd	r26, Z+2	; 0x02
    11f0:	b3 81       	ldd	r27, Z+3	; 0x03
    11f2:	24 81       	ldd	r18, Z+4	; 0x04
    11f4:	35 81       	ldd	r19, Z+5	; 0x05
    11f6:	13 96       	adiw	r26, 0x03	; 3
    11f8:	3c 93       	st	X, r19
    11fa:	2e 93       	st	-X, r18
    11fc:	12 97       	sbiw	r26, 0x02	; 2
    11fe:	f9 01       	movw	r30, r18
    1200:	b1 83       	std	Z+1, r27	; 0x01
    1202:	a0 83       	st	Z, r26
    1204:	e0 91 00 02 	lds	r30, 0x0200	; 0x800200 <__data_start>
    1208:	f0 91 01 02 	lds	r31, 0x0201	; 0x800201 <__data_start+0x1>
    120c:	20 e0       	ldi	r18, 0x00	; 0
    120e:	a2 2e       	mov	r10, r18
    1210:	22 e0       	ldi	r18, 0x02	; 2
    1212:	b2 2e       	mov	r11, r18
    1214:	d1 01       	movw	r26, r2
    1216:	15 96       	adiw	r26, 0x05	; 5
    1218:	bc 92       	st	X, r11
    121a:	ae 92       	st	-X, r10
    121c:	14 97       	sbiw	r26, 0x04	; 4
    121e:	13 96       	adiw	r26, 0x03	; 3
    1220:	fc 93       	st	X, r31
    1222:	ee 93       	st	-X, r30
    1224:	12 97       	sbiw	r26, 0x02	; 2
    1226:	93 83       	std	Z+3, r25	; 0x03
    1228:	82 83       	std	Z+2, r24	; 0x02
    122a:	90 93 01 02 	sts	0x0201, r25	; 0x800201 <__data_start+0x1>
    122e:	80 93 00 02 	sts	0x0200, r24	; 0x800200 <__data_start>
    1232:	0e 94 2f 14 	call	0x285e	; 0x285e <system_unlock>
    1236:	ce 01       	movw	r24, r28
    1238:	01 96       	adiw	r24, 0x01	; 1
    123a:	0e 94 cf 13 	call	0x279e	; 0x279e <_ZN3gxx6tracerD2Ev.constprop.72>
    123e:	0e 94 63 15 	call	0x2ac6	; 0x2ac6 <__displace__>
    1242:	e7 cd       	rjmp	.-1074   	; 0xe12 <_Z8mainprocPv+0x156>

00001244 <_ZN17null_device_class5writeEPKcj>:
    1244:	ca 01       	movw	r24, r20
    1246:	08 95       	ret

00001248 <_ZN17null_device_class4openEP4file>:
    1248:	80 e0       	ldi	r24, 0x00	; 0
    124a:	90 e0       	ldi	r25, 0x00	; 0
    124c:	08 95       	ret

0000124e <_ZN17null_device_class4readEPcj>:
    124e:	80 e0       	ldi	r24, 0x00	; 0
    1250:	90 e0       	ldi	r25, 0x00	; 0
    1252:	08 95       	ret

00001254 <_ZN11char_device8waitreadEv>:
    1254:	08 95       	ret

00001256 <_ZN11char_device4readEP4filePcj>:
    1256:	ba 01       	movw	r22, r20
    1258:	dc 01       	movw	r26, r24
    125a:	ed 91       	ld	r30, X+
    125c:	fc 91       	ld	r31, X
    125e:	00 88       	ldd	r0, Z+16	; 0x10
    1260:	f1 89       	ldd	r31, Z+17	; 0x11
    1262:	e0 2d       	mov	r30, r0
    1264:	a9 01       	movw	r20, r18
    1266:	19 94       	eijmp

00001268 <_ZN11char_device5writeEP4filePKcj>:
    1268:	ba 01       	movw	r22, r20
    126a:	dc 01       	movw	r26, r24
    126c:	ed 91       	ld	r30, X+
    126e:	fc 91       	ld	r31, X
    1270:	06 84       	ldd	r0, Z+14	; 0x0e
    1272:	f7 85       	ldd	r31, Z+15	; 0x0f
    1274:	e0 2d       	mov	r30, r0
    1276:	a9 01       	movw	r20, r18
    1278:	19 94       	eijmp

0000127a <_ZN4node4openEP4file>:
    127a:	8f e5       	ldi	r24, 0x5F	; 95
    127c:	90 e0       	ldi	r25, 0x00	; 0
    127e:	08 95       	ret

00001280 <_ZN4node5rmdirEv>:
    1280:	8f e5       	ldi	r24, 0x5F	; 95
    1282:	90 e0       	ldi	r25, 0x00	; 0
    1284:	08 95       	ret

00001286 <_ZN4node5mkdirEPKcji>:
    1286:	8f e5       	ldi	r24, 0x5F	; 95
    1288:	90 e0       	ldi	r25, 0x00	; 0
    128a:	08 95       	ret

0000128c <_ZN4node7iterateEP4filePv>:
    128c:	8f e5       	ldi	r24, 0x5F	; 95
    128e:	90 e0       	ldi	r25, 0x00	; 0
    1290:	08 95       	ret

00001292 <_ZN4node4readEP4filePcj>:
    1292:	8f e5       	ldi	r24, 0x5F	; 95
    1294:	90 e0       	ldi	r25, 0x00	; 0
    1296:	08 95       	ret

00001298 <_ZL11_tx_handlerPv.lto_priv.79>:
    1298:	dc 01       	movw	r26, r24
    129a:	12 96       	adiw	r26, 0x02	; 2
    129c:	ed 91       	ld	r30, X+
    129e:	fc 91       	ld	r31, X
    12a0:	13 97       	sbiw	r26, 0x03	; 3
    12a2:	30 97       	sbiw	r30, 0x00	; 0
    12a4:	39 f0       	breq	.+14     	; 0x12b4 <_ZL11_tx_handlerPv.lto_priv.79+0x1c>
    12a6:	62 e0       	ldi	r22, 0x02	; 2
    12a8:	70 e0       	ldi	r23, 0x00	; 0
    12aa:	14 96       	adiw	r26, 0x04	; 4
    12ac:	8d 91       	ld	r24, X+
    12ae:	9c 91       	ld	r25, X
    12b0:	15 97       	sbiw	r26, 0x05	; 5
    12b2:	19 94       	eijmp
    12b4:	08 95       	ret

000012b6 <_ZL12_dre_handlerPv.lto_priv.78>:
    12b6:	dc 01       	movw	r26, r24
    12b8:	12 96       	adiw	r26, 0x02	; 2
    12ba:	ed 91       	ld	r30, X+
    12bc:	fc 91       	ld	r31, X
    12be:	13 97       	sbiw	r26, 0x03	; 3
    12c0:	30 97       	sbiw	r30, 0x00	; 0
    12c2:	39 f0       	breq	.+14     	; 0x12d2 <_ZL12_dre_handlerPv.lto_priv.78+0x1c>
    12c4:	61 e0       	ldi	r22, 0x01	; 1
    12c6:	70 e0       	ldi	r23, 0x00	; 0
    12c8:	14 96       	adiw	r26, 0x04	; 4
    12ca:	8d 91       	ld	r24, X+
    12cc:	9c 91       	ld	r25, X
    12ce:	15 97       	sbiw	r26, 0x05	; 5
    12d0:	19 94       	eijmp
    12d2:	08 95       	ret

000012d4 <_ZL11_rx_handlerPv.lto_priv.77>:
    12d4:	dc 01       	movw	r26, r24
    12d6:	12 96       	adiw	r26, 0x02	; 2
    12d8:	ed 91       	ld	r30, X+
    12da:	fc 91       	ld	r31, X
    12dc:	13 97       	sbiw	r26, 0x03	; 3
    12de:	30 97       	sbiw	r30, 0x00	; 0
    12e0:	39 f0       	breq	.+14     	; 0x12f0 <_ZL11_rx_handlerPv.lto_priv.77+0x1c>
    12e2:	60 e0       	ldi	r22, 0x00	; 0
    12e4:	70 e0       	ldi	r23, 0x00	; 0
    12e6:	14 96       	adiw	r26, 0x04	; 4
    12e8:	8d 91       	ld	r24, X+
    12ea:	9c 91       	ld	r25, X
    12ec:	15 97       	sbiw	r26, 0x05	; 5
    12ee:	19 94       	eijmp
    12f0:	08 95       	ret

000012f2 <_ZN9avr_usart5hasrxEv>:
    12f2:	dc 01       	movw	r26, r24
    12f4:	16 96       	adiw	r26, 0x06	; 6
    12f6:	ed 91       	ld	r30, X+
    12f8:	fc 91       	ld	r31, X
    12fa:	17 97       	sbiw	r26, 0x07	; 7
    12fc:	80 81       	ld	r24, Z
    12fe:	80 72       	andi	r24, 0x20	; 32
    1300:	90 e0       	ldi	r25, 0x00	; 0
    1302:	08 95       	ret

00001304 <_ZN9avr_usart5cantxEv>:
    1304:	dc 01       	movw	r26, r24
    1306:	16 96       	adiw	r26, 0x06	; 6
    1308:	ed 91       	ld	r30, X+
    130a:	fc 91       	ld	r31, X
    130c:	17 97       	sbiw	r26, 0x07	; 7
    130e:	80 81       	ld	r24, Z
    1310:	80 78       	andi	r24, 0x80	; 128
    1312:	90 e0       	ldi	r25, 0x00	; 0
    1314:	08 95       	ret

00001316 <_ZN9avr_usart8sendbyteEi>:
    1316:	dc 01       	movw	r26, r24
    1318:	16 96       	adiw	r26, 0x06	; 6
    131a:	ed 91       	ld	r30, X+
    131c:	fc 91       	ld	r31, X
    131e:	17 97       	sbiw	r26, 0x07	; 7
    1320:	66 83       	std	Z+6, r22	; 0x06
    1322:	81 e0       	ldi	r24, 0x01	; 1
    1324:	90 e0       	ldi	r25, 0x00	; 0
    1326:	08 95       	ret

00001328 <_ZN9avr_usart8recvbyteEv>:
    1328:	dc 01       	movw	r26, r24
    132a:	16 96       	adiw	r26, 0x06	; 6
    132c:	ed 91       	ld	r30, X+
    132e:	fc 91       	ld	r31, X
    1330:	17 97       	sbiw	r26, 0x07	; 7
    1332:	86 81       	ldd	r24, Z+6	; 0x06
    1334:	90 e0       	ldi	r25, 0x00	; 0
    1336:	08 95       	ret

00001338 <_ZN9avr_usart5txirqEb>:
    1338:	dc 01       	movw	r26, r24
    133a:	16 96       	adiw	r26, 0x06	; 6
    133c:	ed 91       	ld	r30, X+
    133e:	fc 91       	ld	r31, X
    1340:	17 97       	sbiw	r26, 0x07	; 7
    1342:	81 81       	ldd	r24, Z+1	; 0x01
    1344:	66 23       	and	r22, r22
    1346:	11 f0       	breq	.+4      	; 0x134c <_ZN9avr_usart5txirqEb+0x14>
    1348:	80 62       	ori	r24, 0x20	; 32
    134a:	01 c0       	rjmp	.+2      	; 0x134e <_ZN9avr_usart5txirqEb+0x16>
    134c:	8f 7d       	andi	r24, 0xDF	; 223
    134e:	81 83       	std	Z+1, r24	; 0x01
    1350:	80 e0       	ldi	r24, 0x00	; 0
    1352:	90 e0       	ldi	r25, 0x00	; 0
    1354:	08 95       	ret

00001356 <_ZN9avr_usart6enableEb>:
    1356:	df 92       	push	r13
    1358:	ef 92       	push	r14
    135a:	ff 92       	push	r15
    135c:	0f 93       	push	r16
    135e:	1f 93       	push	r17
    1360:	cf 93       	push	r28
    1362:	df 93       	push	r29
    1364:	cd b7       	in	r28, 0x3d	; 61
    1366:	de b7       	in	r29, 0x3e	; 62
    1368:	28 97       	sbiw	r28, 0x08	; 8
    136a:	0f b6       	in	r0, 0x3f	; 63
    136c:	f8 94       	cli
    136e:	de bf       	out	0x3e, r29	; 62
    1370:	0f be       	out	0x3f, r0	; 63
    1372:	cd bf       	out	0x3d, r28	; 61
    1374:	fc 01       	movw	r30, r24
    1376:	a6 81       	ldd	r26, Z+6	; 0x06
    1378:	b7 81       	ldd	r27, Z+7	; 0x07
    137a:	11 96       	adiw	r26, 0x01	; 1
    137c:	9c 91       	ld	r25, X
    137e:	11 97       	sbiw	r26, 0x01	; 1
    1380:	66 23       	and	r22, r22
    1382:	11 f0       	breq	.+4      	; 0x1388 <_ZN9avr_usart6enableEb+0x32>
    1384:	90 61       	ori	r25, 0x10	; 16
    1386:	01 c0       	rjmp	.+2      	; 0x138a <_ZN9avr_usart6enableEb+0x34>
    1388:	9f 7e       	andi	r25, 0xEF	; 239
    138a:	11 96       	adiw	r26, 0x01	; 1
    138c:	9c 93       	st	X, r25
    138e:	a6 81       	ldd	r26, Z+6	; 0x06
    1390:	b7 81       	ldd	r27, Z+7	; 0x07
    1392:	11 96       	adiw	r26, 0x01	; 1
    1394:	9c 91       	ld	r25, X
    1396:	11 97       	sbiw	r26, 0x01	; 1
    1398:	66 23       	and	r22, r22
    139a:	11 f0       	breq	.+4      	; 0x13a0 <_ZN9avr_usart6enableEb+0x4a>
    139c:	98 60       	ori	r25, 0x08	; 8
    139e:	01 c0       	rjmp	.+2      	; 0x13a2 <_ZN9avr_usart6enableEb+0x4c>
    13a0:	97 7f       	andi	r25, 0xF7	; 247
    13a2:	11 96       	adiw	r26, 0x01	; 1
    13a4:	9c 93       	st	X, r25
    13a6:	a6 81       	ldd	r26, Z+6	; 0x06
    13a8:	b7 81       	ldd	r27, Z+7	; 0x07
    13aa:	11 96       	adiw	r26, 0x01	; 1
    13ac:	8c 91       	ld	r24, X
    13ae:	11 97       	sbiw	r26, 0x01	; 1
    13b0:	8f 7b       	andi	r24, 0xBF	; 191
    13b2:	11 96       	adiw	r26, 0x01	; 1
    13b4:	8c 93       	st	X, r24
    13b6:	a6 81       	ldd	r26, Z+6	; 0x06
    13b8:	b7 81       	ldd	r27, Z+7	; 0x07
    13ba:	11 96       	adiw	r26, 0x01	; 1
    13bc:	8c 91       	ld	r24, X
    13be:	11 97       	sbiw	r26, 0x01	; 1
    13c0:	8f 7d       	andi	r24, 0xDF	; 223
    13c2:	11 96       	adiw	r26, 0x01	; 1
    13c4:	8c 93       	st	X, r24
    13c6:	06 80       	ldd	r0, Z+6	; 0x06
    13c8:	f7 81       	ldd	r31, Z+7	; 0x07
    13ca:	e0 2d       	mov	r30, r0
    13cc:	81 81       	ldd	r24, Z+1	; 0x01
    13ce:	66 23       	and	r22, r22
    13d0:	11 f0       	breq	.+4      	; 0x13d6 <_ZN9avr_usart6enableEb+0x80>
    13d2:	80 68       	ori	r24, 0x80	; 128
    13d4:	01 c0       	rjmp	.+2      	; 0x13d8 <_ZN9avr_usart6enableEb+0x82>
    13d6:	8f 77       	andi	r24, 0x7F	; 127
    13d8:	81 83       	std	Z+1, r24	; 0x01
    13da:	80 e1       	ldi	r24, 0x10	; 16
    13dc:	89 83       	std	Y+1, r24	; 0x01
    13de:	87 e2       	ldi	r24, 0x27	; 39
    13e0:	8a 83       	std	Y+2, r24	; 0x02
    13e2:	1b 82       	std	Y+3, r1	; 0x03
    13e4:	1c 82       	std	Y+4, r1	; 0x04
    13e6:	1d 82       	std	Y+5, r1	; 0x05
    13e8:	1e 82       	std	Y+6, r1	; 0x06
    13ea:	1f 82       	std	Y+7, r1	; 0x07
    13ec:	18 86       	std	Y+8, r1	; 0x08
    13ee:	d9 80       	ldd	r13, Y+1	; 0x01
    13f0:	ea 80       	ldd	r14, Y+2	; 0x02
    13f2:	fb 80       	ldd	r15, Y+3	; 0x03
    13f4:	0c 81       	ldd	r16, Y+4	; 0x04
    13f6:	1d 81       	ldd	r17, Y+5	; 0x05
    13f8:	be 81       	ldd	r27, Y+6	; 0x06
    13fa:	ff 81       	ldd	r31, Y+7	; 0x07
    13fc:	e8 85       	ldd	r30, Y+8	; 0x08
    13fe:	2d 2d       	mov	r18, r13
    1400:	3e 2d       	mov	r19, r14
    1402:	4f 2d       	mov	r20, r15
    1404:	50 2f       	mov	r21, r16
    1406:	61 2f       	mov	r22, r17
    1408:	7b 2f       	mov	r23, r27
    140a:	8f 2f       	mov	r24, r31
    140c:	9e 2f       	mov	r25, r30
    140e:	af ef       	ldi	r26, 0xFF	; 255
    1410:	0e 94 68 19 	call	0x32d0	; 0x32d0 <__adddi3_s8>
    1414:	29 83       	std	Y+1, r18	; 0x01
    1416:	3a 83       	std	Y+2, r19	; 0x02
    1418:	4b 83       	std	Y+3, r20	; 0x03
    141a:	5c 83       	std	Y+4, r21	; 0x04
    141c:	6d 83       	std	Y+5, r22	; 0x05
    141e:	7e 83       	std	Y+6, r23	; 0x06
    1420:	8f 83       	std	Y+7, r24	; 0x07
    1422:	98 87       	std	Y+8, r25	; 0x08
    1424:	2d 2d       	mov	r18, r13
    1426:	3e 2d       	mov	r19, r14
    1428:	4f 2d       	mov	r20, r15
    142a:	50 2f       	mov	r21, r16
    142c:	61 2f       	mov	r22, r17
    142e:	7b 2f       	mov	r23, r27
    1430:	8f 2f       	mov	r24, r31
    1432:	9e 2f       	mov	r25, r30
    1434:	a0 e0       	ldi	r26, 0x00	; 0
    1436:	0e 94 86 19 	call	0x330c	; 0x330c <__cmpdi2_s8>
    143a:	c9 f6       	brne	.-78     	; 0x13ee <_ZN9avr_usart6enableEb+0x98>
    143c:	80 e0       	ldi	r24, 0x00	; 0
    143e:	90 e0       	ldi	r25, 0x00	; 0
    1440:	28 96       	adiw	r28, 0x08	; 8
    1442:	0f b6       	in	r0, 0x3f	; 63
    1444:	f8 94       	cli
    1446:	de bf       	out	0x3e, r29	; 62
    1448:	0f be       	out	0x3f, r0	; 63
    144a:	cd bf       	out	0x3d, r28	; 61
    144c:	df 91       	pop	r29
    144e:	cf 91       	pop	r28
    1450:	1f 91       	pop	r17
    1452:	0f 91       	pop	r16
    1454:	ff 90       	pop	r15
    1456:	ef 90       	pop	r14
    1458:	df 90       	pop	r13
    145a:	08 95       	ret

0000145c <_ZN17zero_device_class4readEPcj>:
    145c:	cf 93       	push	r28
    145e:	df 93       	push	r29
    1460:	cb 01       	movw	r24, r22
    1462:	ea 01       	movw	r28, r20
    1464:	60 e0       	ldi	r22, 0x00	; 0
    1466:	70 e0       	ldi	r23, 0x00	; 0
    1468:	0e 94 0c 03 	call	0x618	; 0x618 <memset>
    146c:	ce 01       	movw	r24, r28
    146e:	df 91       	pop	r29
    1470:	cf 91       	pop	r28
    1472:	08 95       	ret

00001474 <_ZN18debug_device_class5writeEPKcj>:
    1474:	cf 93       	push	r28
    1476:	df 93       	push	r29
    1478:	cb 01       	movw	r24, r22
    147a:	ea 01       	movw	r28, r20
    147c:	ba 01       	movw	r22, r20
    147e:	0e 94 52 14 	call	0x28a4	; 0x28a4 <diag_write>
    1482:	ce 01       	movw	r24, r28
    1484:	df 91       	pop	r29
    1486:	cf 91       	pop	r28
    1488:	08 95       	ret

0000148a <_ZN13crow_uartgate4sendEPN4crow6packetE>:
    148a:	0f 93       	push	r16
    148c:	1f 93       	push	r17
    148e:	cf 93       	push	r28
    1490:	df 93       	push	r29
    1492:	8c 01       	movw	r16, r24
    1494:	eb 01       	movw	r28, r22
    1496:	0e 94 3e 14 	call	0x287c	; 0x287c <system_lock>
    149a:	d8 01       	movw	r26, r16
    149c:	1d 96       	adiw	r26, 0x0d	; 13
    149e:	2d 91       	ld	r18, X+
    14a0:	3c 91       	ld	r19, X
    14a2:	1e 97       	sbiw	r26, 0x0e	; 14
    14a4:	c8 01       	movw	r24, r16
    14a6:	09 96       	adiw	r24, 0x09	; 9
    14a8:	23 2b       	or	r18, r19
    14aa:	39 f4       	brne	.+14     	; 0x14ba <_ZN13crow_uartgate4sendEPN4crow6packetE+0x30>
    14ac:	19 96       	adiw	r26, 0x09	; 9
    14ae:	2d 91       	ld	r18, X+
    14b0:	3c 91       	ld	r19, X
    14b2:	1a 97       	sbiw	r26, 0x0a	; 10
    14b4:	28 17       	cp	r18, r24
    14b6:	39 07       	cpc	r19, r25
    14b8:	f9 f0       	breq	.+62     	; 0x14f8 <_ZN13crow_uartgate4sendEPN4crow6packetE+0x6e>
    14ba:	a8 81       	ld	r26, Y
    14bc:	b9 81       	ldd	r27, Y+1	; 0x01
    14be:	ea 81       	ldd	r30, Y+2	; 0x02
    14c0:	fb 81       	ldd	r31, Y+3	; 0x03
    14c2:	13 96       	adiw	r26, 0x03	; 3
    14c4:	fc 93       	st	X, r31
    14c6:	ee 93       	st	-X, r30
    14c8:	12 97       	sbiw	r26, 0x02	; 2
    14ca:	b1 83       	std	Z+1, r27	; 0x01
    14cc:	a0 83       	st	Z, r26
    14ce:	d8 01       	movw	r26, r16
    14d0:	1b 96       	adiw	r26, 0x0b	; 11
    14d2:	ed 91       	ld	r30, X+
    14d4:	fc 91       	ld	r31, X
    14d6:	1c 97       	sbiw	r26, 0x0c	; 12
    14d8:	fb 83       	std	Y+3, r31	; 0x03
    14da:	ea 83       	std	Y+2, r30	; 0x02
    14dc:	99 83       	std	Y+1, r25	; 0x01
    14de:	88 83       	st	Y, r24
    14e0:	1c 96       	adiw	r26, 0x0c	; 12
    14e2:	dc 93       	st	X, r29
    14e4:	ce 93       	st	-X, r28
    14e6:	1b 97       	sbiw	r26, 0x0b	; 11
    14e8:	d1 83       	std	Z+1, r29	; 0x01
    14ea:	c0 83       	st	Z, r28
    14ec:	df 91       	pop	r29
    14ee:	cf 91       	pop	r28
    14f0:	1f 91       	pop	r17
    14f2:	0f 91       	pop	r16
    14f4:	0c 94 2f 14 	jmp	0x285e	; 0x285e <system_unlock>
    14f8:	be 01       	movw	r22, r28
    14fa:	c8 01       	movw	r24, r16
    14fc:	0e 94 9a 13 	call	0x2734	; 0x2734 <_ZN13crow_uartgate7do_sendEPN4crow6packetE.constprop.20>
    1500:	f5 cf       	rjmp	.-22     	; 0x14ec <_ZN13crow_uartgate4sendEPN4crow6packetE+0x62>

00001502 <_ZN9avr_usart5setupEl13uart_parity_ehh>:
    1502:	0f 93       	push	r16
    1504:	1f 93       	push	r17
    1506:	cf 93       	push	r28
    1508:	df 93       	push	r29
    150a:	8c 01       	movw	r16, r24
    150c:	9a 01       	movw	r18, r20
    150e:	ab 01       	movw	r20, r22
    1510:	fc 01       	movw	r30, r24
    1512:	c6 81       	ldd	r28, Z+6	; 0x06
    1514:	d7 81       	ldd	r29, Z+7	; 0x07
    1516:	88 81       	ld	r24, Y
    1518:	82 60       	ori	r24, 0x02	; 2
    151a:	88 83       	st	Y, r24
    151c:	60 e0       	ldi	r22, 0x00	; 0
    151e:	79 e0       	ldi	r23, 0x09	; 9
    1520:	8d e3       	ldi	r24, 0x3D	; 61
    1522:	90 e0       	ldi	r25, 0x00	; 0
    1524:	0e 94 05 18 	call	0x300a	; 0x300a <__divmodsi4>
    1528:	ca 01       	movw	r24, r20
    152a:	b9 01       	movw	r22, r18
    152c:	61 50       	subi	r22, 0x01	; 1
    152e:	71 09       	sbc	r23, r1
    1530:	81 09       	sbc	r24, r1
    1532:	91 09       	sbc	r25, r1
    1534:	22 e0       	ldi	r18, 0x02	; 2
    1536:	30 e0       	ldi	r19, 0x00	; 0
    1538:	40 e0       	ldi	r20, 0x00	; 0
    153a:	50 e0       	ldi	r21, 0x00	; 0
    153c:	0e 94 05 18 	call	0x300a	; 0x300a <__divmodsi4>
    1540:	83 2f       	mov	r24, r19
    1542:	99 27       	eor	r25, r25
    1544:	8d 83       	std	Y+5, r24	; 0x05
    1546:	2c 83       	std	Y+4, r18	; 0x04
    1548:	c8 01       	movw	r24, r16
    154a:	0e 94 67 13 	call	0x26ce	; 0x26ce <_ZN9avr_usart7irqinitEv.constprop.45>
    154e:	80 e0       	ldi	r24, 0x00	; 0
    1550:	90 e0       	ldi	r25, 0x00	; 0
    1552:	df 91       	pop	r29
    1554:	cf 91       	pop	r28
    1556:	1f 91       	pop	r17
    1558:	0f 91       	pop	r16
    155a:	08 95       	ret

0000155c <__unsleep>:
    155c:	cf 93       	push	r28
    155e:	df 93       	push	r29
    1560:	eb 01       	movw	r28, r22
    1562:	0e 94 96 15 	call	0x2b2c	; 0x2b2c <schedee_run>
    1566:	ce 01       	movw	r24, r28
    1568:	df 91       	pop	r29
    156a:	cf 91       	pop	r28
    156c:	0c 94 b8 0a 	jmp	0x1570	; 0x1570 <free>

00001570 <free>:
    1570:	0f 93       	push	r16
    1572:	1f 93       	push	r17
    1574:	cf 93       	push	r28
    1576:	df 93       	push	r29
    1578:	8c 01       	movw	r16, r24
    157a:	0e 94 3e 14 	call	0x287c	; 0x287c <system_lock>
    157e:	01 15       	cp	r16, r1
    1580:	11 05       	cpc	r17, r1
    1582:	09 f4       	brne	.+2      	; 0x1586 <free+0x16>
    1584:	80 c0       	rjmp	.+256    	; 0x1686 <free+0x116>
    1586:	f8 01       	movw	r30, r16
    1588:	32 97       	sbiw	r30, 0x02	; 2
    158a:	13 82       	std	Z+3, r1	; 0x03
    158c:	12 82       	std	Z+2, r1	; 0x02
    158e:	a0 91 b3 07 	lds	r26, 0x07B3	; 0x8007b3 <__flp>
    1592:	b0 91 b4 07 	lds	r27, 0x07B4	; 0x8007b4 <__flp+0x1>
    1596:	10 97       	sbiw	r26, 0x00	; 0
    1598:	81 f4       	brne	.+32     	; 0x15ba <free+0x4a>
    159a:	80 81       	ld	r24, Z
    159c:	91 81       	ldd	r25, Z+1	; 0x01
    159e:	08 0f       	add	r16, r24
    15a0:	19 1f       	adc	r17, r25
    15a2:	80 91 b1 07 	lds	r24, 0x07B1	; 0x8007b1 <__brkval>
    15a6:	90 91 b2 07 	lds	r25, 0x07B2	; 0x8007b2 <__brkval+0x1>
    15aa:	80 17       	cp	r24, r16
    15ac:	91 07       	cpc	r25, r17
    15ae:	11 f5       	brne	.+68     	; 0x15f4 <free+0x84>
    15b0:	f0 93 b2 07 	sts	0x07B2, r31	; 0x8007b2 <__brkval+0x1>
    15b4:	e0 93 b1 07 	sts	0x07B1, r30	; 0x8007b1 <__brkval>
    15b8:	66 c0       	rjmp	.+204    	; 0x1686 <free+0x116>
    15ba:	ed 01       	movw	r28, r26
    15bc:	20 e0       	ldi	r18, 0x00	; 0
    15be:	30 e0       	ldi	r19, 0x00	; 0
    15c0:	ce 17       	cp	r28, r30
    15c2:	df 07       	cpc	r29, r31
    15c4:	e0 f0       	brcs	.+56     	; 0x15fe <free+0x8e>
    15c6:	d3 83       	std	Z+3, r29	; 0x03
    15c8:	c2 83       	std	Z+2, r28	; 0x02
    15ca:	40 81       	ld	r20, Z
    15cc:	51 81       	ldd	r21, Z+1	; 0x01
    15ce:	04 0f       	add	r16, r20
    15d0:	15 1f       	adc	r17, r21
    15d2:	c0 17       	cp	r28, r16
    15d4:	d1 07       	cpc	r29, r17
    15d6:	59 f4       	brne	.+22     	; 0x15ee <free+0x7e>
    15d8:	88 81       	ld	r24, Y
    15da:	99 81       	ldd	r25, Y+1	; 0x01
    15dc:	84 0f       	add	r24, r20
    15de:	95 1f       	adc	r25, r21
    15e0:	02 96       	adiw	r24, 0x02	; 2
    15e2:	91 83       	std	Z+1, r25	; 0x01
    15e4:	80 83       	st	Z, r24
    15e6:	8a 81       	ldd	r24, Y+2	; 0x02
    15e8:	9b 81       	ldd	r25, Y+3	; 0x03
    15ea:	93 83       	std	Z+3, r25	; 0x03
    15ec:	82 83       	std	Z+2, r24	; 0x02
    15ee:	21 15       	cp	r18, r1
    15f0:	31 05       	cpc	r19, r1
    15f2:	61 f4       	brne	.+24     	; 0x160c <free+0x9c>
    15f4:	f0 93 b4 07 	sts	0x07B4, r31	; 0x8007b4 <__flp+0x1>
    15f8:	e0 93 b3 07 	sts	0x07B3, r30	; 0x8007b3 <__flp>
    15fc:	44 c0       	rjmp	.+136    	; 0x1686 <free+0x116>
    15fe:	8a 81       	ldd	r24, Y+2	; 0x02
    1600:	9b 81       	ldd	r25, Y+3	; 0x03
    1602:	9e 01       	movw	r18, r28
    1604:	00 97       	sbiw	r24, 0x00	; 0
    1606:	11 f0       	breq	.+4      	; 0x160c <free+0x9c>
    1608:	ec 01       	movw	r28, r24
    160a:	da cf       	rjmp	.-76     	; 0x15c0 <free+0x50>
    160c:	e9 01       	movw	r28, r18
    160e:	fb 83       	std	Y+3, r31	; 0x03
    1610:	ea 83       	std	Y+2, r30	; 0x02
    1612:	49 91       	ld	r20, Y+
    1614:	59 91       	ld	r21, Y+
    1616:	c4 0f       	add	r28, r20
    1618:	d5 1f       	adc	r29, r21
    161a:	ec 17       	cp	r30, r28
    161c:	fd 07       	cpc	r31, r29
    161e:	61 f4       	brne	.+24     	; 0x1638 <free+0xc8>
    1620:	80 81       	ld	r24, Z
    1622:	91 81       	ldd	r25, Z+1	; 0x01
    1624:	84 0f       	add	r24, r20
    1626:	95 1f       	adc	r25, r21
    1628:	02 96       	adiw	r24, 0x02	; 2
    162a:	e9 01       	movw	r28, r18
    162c:	99 83       	std	Y+1, r25	; 0x01
    162e:	88 83       	st	Y, r24
    1630:	82 81       	ldd	r24, Z+2	; 0x02
    1632:	93 81       	ldd	r25, Z+3	; 0x03
    1634:	9b 83       	std	Y+3, r25	; 0x03
    1636:	8a 83       	std	Y+2, r24	; 0x02
    1638:	e0 e0       	ldi	r30, 0x00	; 0
    163a:	f0 e0       	ldi	r31, 0x00	; 0
    163c:	12 96       	adiw	r26, 0x02	; 2
    163e:	8d 91       	ld	r24, X+
    1640:	9c 91       	ld	r25, X
    1642:	13 97       	sbiw	r26, 0x03	; 3
    1644:	00 97       	sbiw	r24, 0x00	; 0
    1646:	19 f0       	breq	.+6      	; 0x164e <free+0xde>
    1648:	fd 01       	movw	r30, r26
    164a:	dc 01       	movw	r26, r24
    164c:	f7 cf       	rjmp	.-18     	; 0x163c <free+0xcc>
    164e:	8d 91       	ld	r24, X+
    1650:	9c 91       	ld	r25, X
    1652:	11 97       	sbiw	r26, 0x01	; 1
    1654:	9d 01       	movw	r18, r26
    1656:	2e 5f       	subi	r18, 0xFE	; 254
    1658:	3f 4f       	sbci	r19, 0xFF	; 255
    165a:	82 0f       	add	r24, r18
    165c:	93 1f       	adc	r25, r19
    165e:	20 91 b1 07 	lds	r18, 0x07B1	; 0x8007b1 <__brkval>
    1662:	30 91 b2 07 	lds	r19, 0x07B2	; 0x8007b2 <__brkval+0x1>
    1666:	28 17       	cp	r18, r24
    1668:	39 07       	cpc	r19, r25
    166a:	69 f4       	brne	.+26     	; 0x1686 <free+0x116>
    166c:	30 97       	sbiw	r30, 0x00	; 0
    166e:	29 f4       	brne	.+10     	; 0x167a <free+0x10a>
    1670:	10 92 b4 07 	sts	0x07B4, r1	; 0x8007b4 <__flp+0x1>
    1674:	10 92 b3 07 	sts	0x07B3, r1	; 0x8007b3 <__flp>
    1678:	02 c0       	rjmp	.+4      	; 0x167e <free+0x10e>
    167a:	13 82       	std	Z+3, r1	; 0x03
    167c:	12 82       	std	Z+2, r1	; 0x02
    167e:	b0 93 b2 07 	sts	0x07B2, r27	; 0x8007b2 <__brkval+0x1>
    1682:	a0 93 b1 07 	sts	0x07B1, r26	; 0x8007b1 <__brkval>
    1686:	df 91       	pop	r29
    1688:	cf 91       	pop	r28
    168a:	1f 91       	pop	r17
    168c:	0f 91       	pop	r16
    168e:	0c 94 2f 14 	jmp	0x285e	; 0x285e <system_unlock>

00001692 <malloc>:
    1692:	ef 92       	push	r14
    1694:	ff 92       	push	r15
    1696:	0f 93       	push	r16
    1698:	1f 93       	push	r17
    169a:	cf 93       	push	r28
    169c:	df 93       	push	r29
    169e:	8c 01       	movw	r16, r24
    16a0:	0e 94 3e 14 	call	0x287c	; 0x287c <system_lock>
    16a4:	02 30       	cpi	r16, 0x02	; 2
    16a6:	11 05       	cpc	r17, r1
    16a8:	10 f4       	brcc	.+4      	; 0x16ae <malloc+0x1c>
    16aa:	02 e0       	ldi	r16, 0x02	; 2
    16ac:	10 e0       	ldi	r17, 0x00	; 0
    16ae:	e0 91 b3 07 	lds	r30, 0x07B3	; 0x8007b3 <__flp>
    16b2:	f0 91 b4 07 	lds	r31, 0x07B4	; 0x8007b4 <__flp+0x1>
    16b6:	80 e0       	ldi	r24, 0x00	; 0
    16b8:	90 e0       	ldi	r25, 0x00	; 0
    16ba:	a0 e0       	ldi	r26, 0x00	; 0
    16bc:	b0 e0       	ldi	r27, 0x00	; 0
    16be:	30 97       	sbiw	r30, 0x00	; 0
    16c0:	21 f1       	breq	.+72     	; 0x170a <malloc+0x78>
    16c2:	20 81       	ld	r18, Z
    16c4:	31 81       	ldd	r19, Z+1	; 0x01
    16c6:	52 81       	ldd	r21, Z+2	; 0x02
    16c8:	43 81       	ldd	r20, Z+3	; 0x03
    16ca:	20 17       	cp	r18, r16
    16cc:	31 07       	cpc	r19, r17
    16ce:	c8 f0       	brcs	.+50     	; 0x1702 <malloc+0x70>
    16d0:	02 17       	cp	r16, r18
    16d2:	13 07       	cpc	r17, r19
    16d4:	71 f4       	brne	.+28     	; 0x16f2 <malloc+0x60>
    16d6:	10 97       	sbiw	r26, 0x00	; 0
    16d8:	31 f0       	breq	.+12     	; 0x16e6 <malloc+0x54>
    16da:	12 96       	adiw	r26, 0x02	; 2
    16dc:	5c 93       	st	X, r21
    16de:	12 97       	sbiw	r26, 0x02	; 2
    16e0:	13 96       	adiw	r26, 0x03	; 3
    16e2:	4c 93       	st	X, r20
    16e4:	04 c0       	rjmp	.+8      	; 0x16ee <malloc+0x5c>
    16e6:	50 93 b3 07 	sts	0x07B3, r21	; 0x8007b3 <__flp>
    16ea:	40 93 b4 07 	sts	0x07B4, r20	; 0x8007b4 <__flp+0x1>
    16ee:	ef 01       	movw	r28, r30
    16f0:	20 c0       	rjmp	.+64     	; 0x1732 <malloc+0xa0>
    16f2:	00 97       	sbiw	r24, 0x00	; 0
    16f4:	19 f0       	breq	.+6      	; 0x16fc <malloc+0x6a>
    16f6:	28 17       	cp	r18, r24
    16f8:	39 07       	cpc	r19, r25
    16fa:	18 f4       	brcc	.+6      	; 0x1702 <malloc+0x70>
    16fc:	c9 01       	movw	r24, r18
    16fe:	ed 01       	movw	r28, r26
    1700:	7f 01       	movw	r14, r30
    1702:	df 01       	movw	r26, r30
    1704:	e5 2f       	mov	r30, r21
    1706:	f4 2f       	mov	r31, r20
    1708:	da cf       	rjmp	.-76     	; 0x16be <malloc+0x2c>
    170a:	00 97       	sbiw	r24, 0x00	; 0
    170c:	f1 f0       	breq	.+60     	; 0x174a <malloc+0xb8>
    170e:	80 1b       	sub	r24, r16
    1710:	91 0b       	sbc	r25, r17
    1712:	84 30       	cpi	r24, 0x04	; 4
    1714:	91 05       	cpc	r25, r1
    1716:	78 f4       	brcc	.+30     	; 0x1736 <malloc+0xa4>
    1718:	f7 01       	movw	r30, r14
    171a:	82 81       	ldd	r24, Z+2	; 0x02
    171c:	93 81       	ldd	r25, Z+3	; 0x03
    171e:	20 97       	sbiw	r28, 0x00	; 0
    1720:	19 f0       	breq	.+6      	; 0x1728 <malloc+0x96>
    1722:	9b 83       	std	Y+3, r25	; 0x03
    1724:	8a 83       	std	Y+2, r24	; 0x02
    1726:	04 c0       	rjmp	.+8      	; 0x1730 <malloc+0x9e>
    1728:	90 93 b4 07 	sts	0x07B4, r25	; 0x8007b4 <__flp+0x1>
    172c:	80 93 b3 07 	sts	0x07B3, r24	; 0x8007b3 <__flp>
    1730:	e7 01       	movw	r28, r14
    1732:	22 96       	adiw	r28, 0x02	; 2
    1734:	25 c0       	rjmp	.+74     	; 0x1780 <malloc+0xee>
    1736:	e7 01       	movw	r28, r14
    1738:	c8 0f       	add	r28, r24
    173a:	d9 1f       	adc	r29, r25
    173c:	09 93       	st	Y+, r16
    173e:	19 93       	st	Y+, r17
    1740:	02 97       	sbiw	r24, 0x02	; 2
    1742:	f7 01       	movw	r30, r14
    1744:	91 83       	std	Z+1, r25	; 0x01
    1746:	80 83       	st	Z, r24
    1748:	1b c0       	rjmp	.+54     	; 0x1780 <malloc+0xee>
    174a:	80 91 b1 07 	lds	r24, 0x07B1	; 0x8007b1 <__brkval>
    174e:	90 91 b2 07 	lds	r25, 0x07B2	; 0x8007b2 <__brkval+0x1>
    1752:	89 2b       	or	r24, r25
    1754:	31 f4       	brne	.+12     	; 0x1762 <malloc+0xd0>
    1756:	8b ed       	ldi	r24, 0xDB	; 219
    1758:	99 e0       	ldi	r25, 0x09	; 9
    175a:	90 93 b2 07 	sts	0x07B2, r25	; 0x8007b2 <__brkval+0x1>
    175e:	80 93 b1 07 	sts	0x07B1, r24	; 0x8007b1 <__brkval>
    1762:	e0 91 b1 07 	lds	r30, 0x07B1	; 0x8007b1 <__brkval>
    1766:	f0 91 b2 07 	lds	r31, 0x07B2	; 0x8007b2 <__brkval+0x1>
    176a:	c8 01       	movw	r24, r16
    176c:	02 96       	adiw	r24, 0x02	; 2
    176e:	8e 0f       	add	r24, r30
    1770:	9f 1f       	adc	r25, r31
    1772:	90 93 b2 07 	sts	0x07B2, r25	; 0x8007b2 <__brkval+0x1>
    1776:	80 93 b1 07 	sts	0x07B1, r24	; 0x8007b1 <__brkval>
    177a:	ef 01       	movw	r28, r30
    177c:	09 93       	st	Y+, r16
    177e:	19 93       	st	Y+, r17
    1780:	0e 94 2f 14 	call	0x285e	; 0x285e <system_unlock>
    1784:	ce 01       	movw	r24, r28
    1786:	df 91       	pop	r29
    1788:	cf 91       	pop	r28
    178a:	1f 91       	pop	r17
    178c:	0f 91       	pop	r16
    178e:	ff 90       	pop	r15
    1790:	ef 90       	pop	r14
    1792:	08 95       	ret

00001794 <debug_print_newline.lto_priv.103.lto_priv.106>:
    1794:	8d e0       	ldi	r24, 0x0D	; 13
    1796:	0e 94 60 14 	call	0x28c0	; 0x28c0 <diag_putc>
    179a:	8a e0       	ldi	r24, 0x0A	; 10
    179c:	0c 94 60 14 	jmp	0x28c0	; 0x28c0 <diag_putc>

000017a0 <_ZN18debug_device_class7releaseEP4file>:
    17a0:	88 ee       	ldi	r24, 0xE8	; 232
    17a2:	92 e0       	ldi	r25, 0x02	; 2
    17a4:	0e 94 89 14 	call	0x2912	; 0x2912 <debug_print>
    17a8:	0e 94 ca 0b 	call	0x1794	; 0x1794 <debug_print_newline.lto_priv.103.lto_priv.106>
    17ac:	80 e0       	ldi	r24, 0x00	; 0
    17ae:	90 e0       	ldi	r25, 0x00	; 0
    17b0:	08 95       	ret

000017b2 <_ZN18debug_device_class4openEP4file>:
    17b2:	86 ef       	ldi	r24, 0xF6	; 246
    17b4:	92 e0       	ldi	r25, 0x02	; 2
    17b6:	0e 94 89 14 	call	0x2912	; 0x2912 <debug_print>
    17ba:	0e 94 ca 0b 	call	0x1794	; 0x1794 <debug_print_newline.lto_priv.103.lto_priv.106>
    17be:	80 e0       	ldi	r24, 0x00	; 0
    17c0:	90 e0       	ldi	r25, 0x00	; 0
    17c2:	08 95       	ret

000017c4 <_ZN13crow_uartgate9init_recvEv>:
    17c4:	cf 93       	push	r28
    17c6:	df 93       	push	r29
    17c8:	ec 01       	movw	r28, r24
    17ca:	0e 94 3e 14 	call	0x287c	; 0x287c <system_lock>
    17ce:	89 e5       	ldi	r24, 0x59	; 89
    17d0:	90 e0       	ldi	r25, 0x00	; 0
    17d2:	0e 94 49 0b 	call	0x1692	; 0x1692 <malloc>
    17d6:	98 8b       	std	Y+16, r25	; 0x10
    17d8:	8f 87       	std	Y+15, r24	; 0x0f
    17da:	0f 96       	adiw	r24, 0x0f	; 15
    17dc:	98 8f       	std	Y+24, r25	; 0x18
    17de:	8f 8b       	std	Y+23, r24	; 0x17
    17e0:	80 e4       	ldi	r24, 0x40	; 64
    17e2:	90 e0       	ldi	r25, 0x00	; 0
    17e4:	9a 8f       	std	Y+26, r25	; 0x1a
    17e6:	89 8f       	std	Y+25, r24	; 0x19
    17e8:	1c 8e       	std	Y+28, r1	; 0x1c
    17ea:	1b 8e       	std	Y+27, r1	; 0x1b
    17ec:	8f ef       	ldi	r24, 0xFF	; 255
    17ee:	8d 8f       	std	Y+29, r24	; 0x1d
    17f0:	df 91       	pop	r29
    17f2:	cf 91       	pop	r28
    17f4:	0c 94 2f 14 	jmp	0x285e	; 0x285e <system_unlock>

000017f8 <_ZN13crow_uartgate14nblock_onestepEv>:
    17f8:	0f 93       	push	r16
    17fa:	1f 93       	push	r17
    17fc:	cf 93       	push	r28
    17fe:	df 93       	push	r29
    1800:	fc 01       	movw	r30, r24
    1802:	dc 01       	movw	r26, r24
    1804:	a1 5a       	subi	r26, 0xA1	; 161
    1806:	bf 4f       	sbci	r27, 0xFF	; 255
    1808:	4d 91       	ld	r20, X+
    180a:	5c 91       	ld	r21, X
    180c:	11 97       	sbiw	r26, 0x01	; 1
    180e:	12 96       	adiw	r26, 0x02	; 2
    1810:	2d 91       	ld	r18, X+
    1812:	3c 91       	ld	r19, X
    1814:	13 97       	sbiw	r26, 0x03	; 3
    1816:	42 17       	cp	r20, r18
    1818:	53 07       	cpc	r21, r19
    181a:	10 f0       	brcs	.+4      	; 0x1820 <_ZN13crow_uartgate14nblock_onestepEv+0x28>
    181c:	ca 01       	movw	r24, r20
    181e:	06 c0       	rjmp	.+12     	; 0x182c <_ZN13crow_uartgate14nblock_onestepEv+0x34>
    1820:	14 96       	adiw	r26, 0x04	; 4
    1822:	8d 91       	ld	r24, X+
    1824:	9c 91       	ld	r25, X
    1826:	15 97       	sbiw	r26, 0x05	; 5
    1828:	84 0f       	add	r24, r20
    182a:	95 1f       	adc	r25, r21
    182c:	82 1b       	sub	r24, r18
    182e:	93 0b       	sbc	r25, r19
    1830:	09 f4       	brne	.+2      	; 0x1834 <_ZN13crow_uartgate14nblock_onestepEv+0x3c>
    1832:	9d c0       	rjmp	.+314    	; 0x196e <_ZN13crow_uartgate14nblock_onestepEv+0x176>
    1834:	ef 01       	movw	r28, r30
    1836:	6f 96       	adiw	r28, 0x1f	; 31
    1838:	42 17       	cp	r20, r18
    183a:	53 07       	cpc	r21, r19
    183c:	c1 f0       	breq	.+48     	; 0x186e <_ZN13crow_uartgate14nblock_onestepEv+0x76>
    183e:	c2 0f       	add	r28, r18
    1840:	d3 1f       	adc	r29, r19
    1842:	88 81       	ld	r24, Y
    1844:	2f 5f       	subi	r18, 0xFF	; 255
    1846:	3f 4f       	sbci	r19, 0xFF	; 255
    1848:	13 96       	adiw	r26, 0x03	; 3
    184a:	3c 93       	st	X, r19
    184c:	2e 93       	st	-X, r18
    184e:	12 97       	sbiw	r26, 0x02	; 2
    1850:	14 96       	adiw	r26, 0x04	; 4
    1852:	4d 91       	ld	r20, X+
    1854:	5c 91       	ld	r21, X
    1856:	15 97       	sbiw	r26, 0x05	; 5
    1858:	24 17       	cp	r18, r20
    185a:	35 07       	cpc	r19, r21
    185c:	21 f4       	brne	.+8      	; 0x1866 <_ZN13crow_uartgate14nblock_onestepEv+0x6e>
    185e:	13 96       	adiw	r26, 0x03	; 3
    1860:	1c 92       	st	X, r1
    1862:	1e 92       	st	-X, r1
    1864:	12 97       	sbiw	r26, 0x02	; 2
    1866:	08 2e       	mov	r0, r24
    1868:	00 0c       	add	r0, r0
    186a:	99 0b       	sbc	r25, r25
    186c:	02 c0       	rjmp	.+4      	; 0x1872 <_ZN13crow_uartgate14nblock_onestepEv+0x7a>
    186e:	8f ef       	ldi	r24, 0xFF	; 255
    1870:	9f ef       	ldi	r25, 0xFF	; 255
    1872:	96 8d       	ldd	r25, Z+30	; 0x1e
    1874:	91 30       	cpi	r25, 0x01	; 1
    1876:	69 f0       	breq	.+26     	; 0x1892 <_ZN13crow_uartgate14nblock_onestepEv+0x9a>
    1878:	18 f0       	brcs	.+6      	; 0x1880 <_ZN13crow_uartgate14nblock_onestepEv+0x88>
    187a:	92 30       	cpi	r25, 0x02	; 2
    187c:	d9 f0       	breq	.+54     	; 0x18b4 <_ZN13crow_uartgate14nblock_onestepEv+0xbc>
    187e:	21 c0       	rjmp	.+66     	; 0x18c2 <_ZN13crow_uartgate14nblock_onestepEv+0xca>
    1880:	9f ef       	ldi	r25, 0xFF	; 255
    1882:	95 8f       	std	Z+29, r25	; 0x1d
    1884:	14 8e       	std	Z+28, r1	; 0x1c
    1886:	13 8e       	std	Z+27, r1	; 0x1b
    1888:	91 e0       	ldi	r25, 0x01	; 1
    188a:	96 8f       	std	Z+30, r25	; 0x1e
    188c:	8c 3a       	cpi	r24, 0xAC	; 172
    188e:	19 f4       	brne	.+6      	; 0x1896 <_ZN13crow_uartgate14nblock_onestepEv+0x9e>
    1890:	6e c0       	rjmp	.+220    	; 0x196e <_ZN13crow_uartgate14nblock_onestepEv+0x176>
    1892:	8c 3a       	cpi	r24, 0xAC	; 172
    1894:	21 f0       	breq	.+8      	; 0x189e <_ZN13crow_uartgate14nblock_onestepEv+0xa6>
    1896:	8d 3a       	cpi	r24, 0xAD	; 173
    1898:	a1 f4       	brne	.+40     	; 0x18c2 <_ZN13crow_uartgate14nblock_onestepEv+0xca>
    189a:	82 e0       	ldi	r24, 0x02	; 2
    189c:	36 c0       	rjmp	.+108    	; 0x190a <_ZN13crow_uartgate14nblock_onestepEv+0x112>
    189e:	83 8d       	ldd	r24, Z+27	; 0x1b
    18a0:	94 8d       	ldd	r25, Z+28	; 0x1c
    18a2:	89 2b       	or	r24, r25
    18a4:	09 f4       	brne	.+2      	; 0x18a8 <_ZN13crow_uartgate14nblock_onestepEv+0xb0>
    18a6:	63 c0       	rjmp	.+198    	; 0x196e <_ZN13crow_uartgate14nblock_onestepEv+0x176>
    18a8:	85 8d       	ldd	r24, Z+29	; 0x1d
    18aa:	81 11       	cpse	r24, r1
    18ac:	30 c0       	rjmp	.+96     	; 0x190e <_ZN13crow_uartgate14nblock_onestepEv+0x116>
    18ae:	81 e0       	ldi	r24, 0x01	; 1
    18b0:	90 e0       	ldi	r25, 0x00	; 0
    18b2:	35 c0       	rjmp	.+106    	; 0x191e <_ZN13crow_uartgate14nblock_onestepEv+0x126>
    18b4:	8e 3a       	cpi	r24, 0xAE	; 174
    18b6:	21 f0       	breq	.+8      	; 0x18c0 <_ZN13crow_uartgate14nblock_onestepEv+0xc8>
    18b8:	8f 3a       	cpi	r24, 0xAF	; 175
    18ba:	61 f5       	brne	.+88     	; 0x1914 <_ZN13crow_uartgate14nblock_onestepEv+0x11c>
    18bc:	8d ea       	ldi	r24, 0xAD	; 173
    18be:	01 c0       	rjmp	.+2      	; 0x18c2 <_ZN13crow_uartgate14nblock_onestepEv+0xca>
    18c0:	8c ea       	ldi	r24, 0xAC	; 172
    18c2:	23 8d       	ldd	r18, Z+27	; 0x1b
    18c4:	34 8d       	ldd	r19, Z+28	; 0x1c
    18c6:	41 8d       	ldd	r20, Z+25	; 0x19
    18c8:	52 8d       	ldd	r21, Z+26	; 0x1a
    18ca:	24 17       	cp	r18, r20
    18cc:	35 07       	cpc	r19, r21
    18ce:	2c f5       	brge	.+74     	; 0x191a <_ZN13crow_uartgate14nblock_onestepEv+0x122>
    18d0:	47 89       	ldd	r20, Z+23	; 0x17
    18d2:	50 8d       	ldd	r21, Z+24	; 0x18
    18d4:	b9 01       	movw	r22, r18
    18d6:	6f 5f       	subi	r22, 0xFF	; 255
    18d8:	7f 4f       	sbci	r23, 0xFF	; 255
    18da:	74 8f       	std	Z+28, r23	; 0x1c
    18dc:	63 8f       	std	Z+27, r22	; 0x1b
    18de:	da 01       	movw	r26, r20
    18e0:	a2 0f       	add	r26, r18
    18e2:	b3 1f       	adc	r27, r19
    18e4:	8c 93       	st	X, r24
    18e6:	95 8d       	ldd	r25, Z+29	; 0x1d
    18e8:	89 27       	eor	r24, r25
    18ea:	28 e0       	ldi	r18, 0x08	; 8
    18ec:	30 e0       	ldi	r19, 0x00	; 0
    18ee:	41 e3       	ldi	r20, 0x31	; 49
    18f0:	98 2f       	mov	r25, r24
    18f2:	99 0f       	add	r25, r25
    18f4:	87 ff       	sbrs	r24, 7
    18f6:	03 c0       	rjmp	.+6      	; 0x18fe <_ZN13crow_uartgate14nblock_onestepEv+0x106>
    18f8:	89 2f       	mov	r24, r25
    18fa:	84 27       	eor	r24, r20
    18fc:	01 c0       	rjmp	.+2      	; 0x1900 <_ZN13crow_uartgate14nblock_onestepEv+0x108>
    18fe:	89 2f       	mov	r24, r25
    1900:	21 50       	subi	r18, 0x01	; 1
    1902:	31 09       	sbc	r19, r1
    1904:	a9 f7       	brne	.-22     	; 0x18f0 <_ZN13crow_uartgate14nblock_onestepEv+0xf8>
    1906:	85 8f       	std	Z+29, r24	; 0x1d
    1908:	81 e0       	ldi	r24, 0x01	; 1
    190a:	86 8f       	std	Z+30, r24	; 0x1e
    190c:	30 c0       	rjmp	.+96     	; 0x196e <_ZN13crow_uartgate14nblock_onestepEv+0x176>
    190e:	8f ef       	ldi	r24, 0xFF	; 255
    1910:	9f ef       	ldi	r25, 0xFF	; 255
    1912:	05 c0       	rjmp	.+10     	; 0x191e <_ZN13crow_uartgate14nblock_onestepEv+0x126>
    1914:	8d ef       	ldi	r24, 0xFD	; 253
    1916:	9f ef       	ldi	r25, 0xFF	; 255
    1918:	02 c0       	rjmp	.+4      	; 0x191e <_ZN13crow_uartgate14nblock_onestepEv+0x126>
    191a:	8e ef       	ldi	r24, 0xFE	; 254
    191c:	9f ef       	ldi	r25, 0xFF	; 255
    191e:	16 8e       	std	Z+30, r1	; 0x1e
    1920:	01 97       	sbiw	r24, 0x01	; 1
    1922:	29 f5       	brne	.+74     	; 0x196e <_ZN13crow_uartgate14nblock_onestepEv+0x176>
    1924:	8f 01       	movw	r16, r30
    1926:	c7 85       	ldd	r28, Z+15	; 0x0f
    1928:	d0 89       	ldd	r29, Z+16	; 0x10
    192a:	cf 01       	movw	r24, r30
    192c:	0e 94 e2 0b 	call	0x17c4	; 0x17c4 <_ZN13crow_uartgate9init_recvEv>
    1930:	f8 01       	movw	r30, r16
    1932:	86 81       	ldd	r24, Z+6	; 0x06
    1934:	9b 89       	ldd	r25, Y+19	; 0x13
    1936:	fe 01       	movw	r30, r28
    1938:	e9 0f       	add	r30, r25
    193a:	f1 1d       	adc	r31, r1
    193c:	81 8f       	std	Z+25, r24	; 0x19
    193e:	8b 89       	ldd	r24, Y+19	; 0x13
    1940:	8f 5f       	subi	r24, 0xFF	; 255
    1942:	8b 8b       	std	Y+19, r24	; 0x13
    1944:	db 83       	std	Y+3, r29	; 0x03
    1946:	ca 83       	std	Y+2, r28	; 0x02
    1948:	d9 83       	std	Y+1, r29	; 0x01
    194a:	c8 83       	st	Y, r28
    194c:	ce 01       	movw	r24, r28
    194e:	04 96       	adiw	r24, 0x04	; 4
    1950:	9f 83       	std	Y+7, r25	; 0x07
    1952:	8e 83       	std	Y+6, r24	; 0x06
    1954:	9d 83       	std	Y+5, r25	; 0x05
    1956:	8c 83       	std	Y+4, r24	; 0x04
    1958:	19 87       	std	Y+9, r17	; 0x09
    195a:	08 87       	std	Y+8, r16	; 0x08
    195c:	1c 86       	std	Y+12, r1	; 0x0c
    195e:	1e 86       	std	Y+14, r1	; 0x0e
    1960:	ce 01       	movw	r24, r28
    1962:	df 91       	pop	r29
    1964:	cf 91       	pop	r28
    1966:	1f 91       	pop	r17
    1968:	0f 91       	pop	r16
    196a:	0c 94 1f 10 	jmp	0x203e	; 0x203e <_ZN4crow6travelEPNS_6packetE>
    196e:	df 91       	pop	r29
    1970:	cf 91       	pop	r28
    1972:	1f 91       	pop	r17
    1974:	0f 91       	pop	r16
    1976:	08 95       	ret

00001978 <timer_manager>:
    1978:	2f 92       	push	r2
    197a:	3f 92       	push	r3
    197c:	4f 92       	push	r4
    197e:	5f 92       	push	r5
    1980:	6f 92       	push	r6
    1982:	7f 92       	push	r7
    1984:	8f 92       	push	r8
    1986:	9f 92       	push	r9
    1988:	af 92       	push	r10
    198a:	bf 92       	push	r11
    198c:	cf 92       	push	r12
    198e:	df 92       	push	r13
    1990:	ef 92       	push	r14
    1992:	ff 92       	push	r15
    1994:	0f 93       	push	r16
    1996:	1f 93       	push	r17
    1998:	cf 93       	push	r28
    199a:	df 93       	push	r29
    199c:	00 d0       	rcall	.+0      	; 0x199e <timer_manager+0x26>
    199e:	1f 92       	push	r1
    19a0:	cd b7       	in	r28, 0x3d	; 61
    19a2:	de b7       	in	r29, 0x3e	; 62
    19a4:	0e 94 3e 14 	call	0x287c	; 0x287c <system_lock>
    19a8:	80 91 a7 07 	lds	r24, 0x07A7	; 0x8007a7 <__jiffies>
    19ac:	89 83       	std	Y+1, r24	; 0x01
    19ae:	e0 91 a8 07 	lds	r30, 0x07A8	; 0x8007a8 <__jiffies+0x1>
    19b2:	ea 83       	std	Y+2, r30	; 0x02
    19b4:	20 90 a9 07 	lds	r2, 0x07A9	; 0x8007a9 <__jiffies+0x2>
    19b8:	30 90 aa 07 	lds	r3, 0x07AA	; 0x8007aa <__jiffies+0x3>
    19bc:	40 90 ab 07 	lds	r4, 0x07AB	; 0x8007ab <__jiffies+0x4>
    19c0:	f0 91 ac 07 	lds	r31, 0x07AC	; 0x8007ac <__jiffies+0x5>
    19c4:	fb 83       	std	Y+3, r31	; 0x03
    19c6:	80 91 ad 07 	lds	r24, 0x07AD	; 0x8007ad <__jiffies+0x6>
    19ca:	8c 83       	std	Y+4, r24	; 0x04
    19cc:	50 90 ae 07 	lds	r5, 0x07AE	; 0x8007ae <__jiffies+0x7>
    19d0:	0e 94 2f 14 	call	0x285e	; 0x285e <system_unlock>
    19d4:	0e 94 3e 14 	call	0x287c	; 0x287c <system_lock>
    19d8:	81 2c       	mov	r8, r1
    19da:	99 24       	eor	r9, r9
    19dc:	93 94       	inc	r9
    19de:	61 2c       	mov	r6, r1
    19e0:	92 e0       	ldi	r25, 0x02	; 2
    19e2:	79 2e       	mov	r7, r25
    19e4:	a0 91 0f 02 	lds	r26, 0x020F	; 0x80020f <ktimer_list>
    19e8:	b0 91 10 02 	lds	r27, 0x0210	; 0x800210 <ktimer_list+0x1>
    19ec:	f2 e0       	ldi	r31, 0x02	; 2
    19ee:	af 30       	cpi	r26, 0x0F	; 15
    19f0:	bf 07       	cpc	r27, r31
    19f2:	09 f4       	brne	.+2      	; 0x19f6 <timer_manager+0x7e>
    19f4:	5b c0       	rjmp	.+182    	; 0x1aac <timer_manager+0x134>
    19f6:	29 81       	ldd	r18, Y+1	; 0x01
    19f8:	3a 81       	ldd	r19, Y+2	; 0x02
    19fa:	a1 01       	movw	r20, r2
    19fc:	64 2d       	mov	r22, r4
    19fe:	7b 81       	ldd	r23, Y+3	; 0x03
    1a00:	8c 81       	ldd	r24, Y+4	; 0x04
    1a02:	95 2d       	mov	r25, r5
    1a04:	18 96       	adiw	r26, 0x08	; 8
    1a06:	ac 90       	ld	r10, X
    1a08:	18 97       	sbiw	r26, 0x08	; 8
    1a0a:	19 96       	adiw	r26, 0x09	; 9
    1a0c:	bc 90       	ld	r11, X
    1a0e:	19 97       	sbiw	r26, 0x09	; 9
    1a10:	1a 96       	adiw	r26, 0x0a	; 10
    1a12:	cc 90       	ld	r12, X
    1a14:	1a 97       	sbiw	r26, 0x0a	; 10
    1a16:	1b 96       	adiw	r26, 0x0b	; 11
    1a18:	dc 90       	ld	r13, X
    1a1a:	1b 97       	sbiw	r26, 0x0b	; 11
    1a1c:	1c 96       	adiw	r26, 0x0c	; 12
    1a1e:	ec 90       	ld	r14, X
    1a20:	1c 97       	sbiw	r26, 0x0c	; 12
    1a22:	1d 96       	adiw	r26, 0x0d	; 13
    1a24:	fc 90       	ld	r15, X
    1a26:	1d 97       	sbiw	r26, 0x0d	; 13
    1a28:	1e 96       	adiw	r26, 0x0e	; 14
    1a2a:	0c 91       	ld	r16, X
    1a2c:	1e 97       	sbiw	r26, 0x0e	; 14
    1a2e:	1f 96       	adiw	r26, 0x0f	; 15
    1a30:	1c 91       	ld	r17, X
    1a32:	1f 97       	sbiw	r26, 0x0f	; 15
    1a34:	0e 94 74 19 	call	0x32e8	; 0x32e8 <__subdi3>
    1a38:	50 96       	adiw	r26, 0x10	; 16
    1a3a:	ac 90       	ld	r10, X
    1a3c:	50 97       	sbiw	r26, 0x10	; 16
    1a3e:	51 96       	adiw	r26, 0x11	; 17
    1a40:	bc 90       	ld	r11, X
    1a42:	51 97       	sbiw	r26, 0x11	; 17
    1a44:	52 96       	adiw	r26, 0x12	; 18
    1a46:	cc 90       	ld	r12, X
    1a48:	52 97       	sbiw	r26, 0x12	; 18
    1a4a:	53 96       	adiw	r26, 0x13	; 19
    1a4c:	dc 90       	ld	r13, X
    1a4e:	53 97       	sbiw	r26, 0x13	; 19
    1a50:	54 96       	adiw	r26, 0x14	; 20
    1a52:	ec 90       	ld	r14, X
    1a54:	54 97       	sbiw	r26, 0x14	; 20
    1a56:	55 96       	adiw	r26, 0x15	; 21
    1a58:	fc 90       	ld	r15, X
    1a5a:	55 97       	sbiw	r26, 0x15	; 21
    1a5c:	56 96       	adiw	r26, 0x16	; 22
    1a5e:	0c 91       	ld	r16, X
    1a60:	56 97       	sbiw	r26, 0x16	; 22
    1a62:	57 96       	adiw	r26, 0x17	; 23
    1a64:	1c 91       	ld	r17, X
    1a66:	57 97       	sbiw	r26, 0x17	; 23
    1a68:	0e 94 7d 19 	call	0x32fa	; 0x32fa <__cmpdi2>
    1a6c:	fc f0       	brlt	.+62     	; 0x1aac <timer_manager+0x134>
    1a6e:	8d 91       	ld	r24, X+
    1a70:	9c 91       	ld	r25, X
    1a72:	11 97       	sbiw	r26, 0x01	; 1
    1a74:	12 96       	adiw	r26, 0x02	; 2
    1a76:	2d 91       	ld	r18, X+
    1a78:	3c 91       	ld	r19, X
    1a7a:	13 97       	sbiw	r26, 0x03	; 3
    1a7c:	fc 01       	movw	r30, r24
    1a7e:	33 83       	std	Z+3, r19	; 0x03
    1a80:	22 83       	std	Z+2, r18	; 0x02
    1a82:	f9 01       	movw	r30, r18
    1a84:	91 83       	std	Z+1, r25	; 0x01
    1a86:	80 83       	st	Z, r24
    1a88:	11 96       	adiw	r26, 0x01	; 1
    1a8a:	9c 92       	st	X, r9
    1a8c:	8e 92       	st	-X, r8
    1a8e:	13 96       	adiw	r26, 0x03	; 3
    1a90:	7c 92       	st	X, r7
    1a92:	6e 92       	st	-X, r6
    1a94:	12 97       	sbiw	r26, 0x02	; 2
    1a96:	14 96       	adiw	r26, 0x04	; 4
    1a98:	ed 91       	ld	r30, X+
    1a9a:	fc 91       	ld	r31, X
    1a9c:	15 97       	sbiw	r26, 0x05	; 5
    1a9e:	bd 01       	movw	r22, r26
    1aa0:	16 96       	adiw	r26, 0x06	; 6
    1aa2:	8d 91       	ld	r24, X+
    1aa4:	9c 91       	ld	r25, X
    1aa6:	17 97       	sbiw	r26, 0x07	; 7
    1aa8:	19 95       	eicall
    1aaa:	9c cf       	rjmp	.-200    	; 0x19e4 <timer_manager+0x6c>
    1aac:	0f 90       	pop	r0
    1aae:	0f 90       	pop	r0
    1ab0:	0f 90       	pop	r0
    1ab2:	0f 90       	pop	r0
    1ab4:	df 91       	pop	r29
    1ab6:	cf 91       	pop	r28
    1ab8:	1f 91       	pop	r17
    1aba:	0f 91       	pop	r16
    1abc:	ff 90       	pop	r15
    1abe:	ef 90       	pop	r14
    1ac0:	df 90       	pop	r13
    1ac2:	cf 90       	pop	r12
    1ac4:	bf 90       	pop	r11
    1ac6:	af 90       	pop	r10
    1ac8:	9f 90       	pop	r9
    1aca:	8f 90       	pop	r8
    1acc:	7f 90       	pop	r7
    1ace:	6f 90       	pop	r6
    1ad0:	5f 90       	pop	r5
    1ad2:	4f 90       	pop	r4
    1ad4:	3f 90       	pop	r3
    1ad6:	2f 90       	pop	r2
    1ad8:	0c 94 2f 14 	jmp	0x285e	; 0x285e <system_unlock>

00001adc <_ZL12crow_utilizePN4crow6packetE.lto_priv.108>:
    1adc:	cf 93       	push	r28
    1ade:	df 93       	push	r29
    1ae0:	ec 01       	movw	r28, r24
    1ae2:	0e 94 3e 14 	call	0x287c	; 0x287c <system_lock>
    1ae6:	ce 01       	movw	r24, r28
    1ae8:	0e 94 09 10 	call	0x2012	; 0x2012 <dlist_del.lto_priv.81.lto_priv.96>
    1aec:	ce 01       	movw	r24, r28
    1aee:	04 96       	adiw	r24, 0x04	; 4
    1af0:	0e 94 09 10 	call	0x2012	; 0x2012 <dlist_del.lto_priv.81.lto_priv.96>
    1af4:	ce 01       	movw	r24, r28
    1af6:	0e 94 b8 0a 	call	0x1570	; 0x1570 <free>
    1afa:	df 91       	pop	r29
    1afc:	cf 91       	pop	r28
    1afe:	0c 94 2f 14 	jmp	0x285e	; 0x285e <system_unlock>

00001b02 <_Z16uartgate_handlerPvi>:
    1b02:	0f 93       	push	r16
    1b04:	1f 93       	push	r17
    1b06:	cf 93       	push	r28
    1b08:	df 93       	push	r29
    1b0a:	ec 01       	movw	r28, r24
    1b0c:	61 30       	cpi	r22, 0x01	; 1
    1b0e:	71 05       	cpc	r23, r1
    1b10:	99 f1       	breq	.+102    	; 0x1b78 <_Z16uartgate_handlerPvi+0x76>
    1b12:	62 30       	cpi	r22, 0x02	; 2
    1b14:	71 05       	cpc	r23, r1
    1b16:	09 f4       	brne	.+2      	; 0x1b1a <_Z16uartgate_handlerPvi+0x18>
    1b18:	2a c1       	rjmp	.+596    	; 0x1d6e <_Z16uartgate_handlerPvi+0x26c>
    1b1a:	67 2b       	or	r22, r23
    1b1c:	09 f0       	breq	.+2      	; 0x1b20 <_Z16uartgate_handlerPvi+0x1e>
    1b1e:	4d c1       	rjmp	.+666    	; 0x1dba <_Z16uartgate_handlerPvi+0x2b8>
    1b20:	8f 81       	ldd	r24, Y+7	; 0x07
    1b22:	98 85       	ldd	r25, Y+8	; 0x08
    1b24:	dc 01       	movw	r26, r24
    1b26:	ed 91       	ld	r30, X+
    1b28:	fc 91       	ld	r31, X
    1b2a:	04 80       	ldd	r0, Z+4	; 0x04
    1b2c:	f5 81       	ldd	r31, Z+5	; 0x05
    1b2e:	e0 2d       	mov	r30, r0
    1b30:	19 95       	eicall
    1b32:	fe 01       	movw	r30, r28
    1b34:	e1 5a       	subi	r30, 0xA1	; 161
    1b36:	ff 4f       	sbci	r31, 0xFF	; 255
    1b38:	40 81       	ld	r20, Z
    1b3a:	51 81       	ldd	r21, Z+1	; 0x01
    1b3c:	22 81       	ldd	r18, Z+2	; 0x02
    1b3e:	33 81       	ldd	r19, Z+3	; 0x03
    1b40:	21 15       	cp	r18, r1
    1b42:	31 05       	cpc	r19, r1
    1b44:	11 f4       	brne	.+4      	; 0x1b4a <_Z16uartgate_handlerPvi+0x48>
    1b46:	24 81       	ldd	r18, Z+4	; 0x04
    1b48:	35 81       	ldd	r19, Z+5	; 0x05
    1b4a:	21 50       	subi	r18, 0x01	; 1
    1b4c:	31 09       	sbc	r19, r1
    1b4e:	42 17       	cp	r20, r18
    1b50:	53 07       	cpc	r21, r19
    1b52:	09 f4       	brne	.+2      	; 0x1b56 <_Z16uartgate_handlerPvi+0x54>
    1b54:	32 c1       	rjmp	.+612    	; 0x1dba <_Z16uartgate_handlerPvi+0x2b8>
    1b56:	c4 0f       	add	r28, r20
    1b58:	d5 1f       	adc	r29, r21
    1b5a:	8f 8f       	std	Y+31, r24	; 0x1f
    1b5c:	80 81       	ld	r24, Z
    1b5e:	91 81       	ldd	r25, Z+1	; 0x01
    1b60:	01 96       	adiw	r24, 0x01	; 1
    1b62:	91 83       	std	Z+1, r25	; 0x01
    1b64:	80 83       	st	Z, r24
    1b66:	24 81       	ldd	r18, Z+4	; 0x04
    1b68:	35 81       	ldd	r19, Z+5	; 0x05
    1b6a:	82 17       	cp	r24, r18
    1b6c:	93 07       	cpc	r25, r19
    1b6e:	09 f0       	breq	.+2      	; 0x1b72 <_Z16uartgate_handlerPvi+0x70>
    1b70:	24 c1       	rjmp	.+584    	; 0x1dba <_Z16uartgate_handlerPvi+0x2b8>
    1b72:	11 82       	std	Z+1, r1	; 0x01
    1b74:	10 82       	st	Z, r1
    1b76:	21 c1       	rjmp	.+578    	; 0x1dba <_Z16uartgate_handlerPvi+0x2b8>
    1b78:	89 89       	ldd	r24, Y+17	; 0x11
    1b7a:	82 30       	cpi	r24, 0x02	; 2
    1b7c:	09 f4       	brne	.+2      	; 0x1b80 <_Z16uartgate_handlerPvi+0x7e>
    1b7e:	80 c0       	rjmp	.+256    	; 0x1c80 <_Z16uartgate_handlerPvi+0x17e>
    1b80:	30 f4       	brcc	.+12     	; 0x1b8e <_Z16uartgate_handlerPvi+0x8c>
    1b82:	88 23       	and	r24, r24
    1b84:	59 f0       	breq	.+22     	; 0x1b9c <_Z16uartgate_handlerPvi+0x9a>
    1b86:	81 30       	cpi	r24, 0x01	; 1
    1b88:	09 f4       	brne	.+2      	; 0x1b8c <_Z16uartgate_handlerPvi+0x8a>
    1b8a:	5a c0       	rjmp	.+180    	; 0x1c40 <_Z16uartgate_handlerPvi+0x13e>
    1b8c:	16 c1       	rjmp	.+556    	; 0x1dba <_Z16uartgate_handlerPvi+0x2b8>
    1b8e:	83 30       	cpi	r24, 0x03	; 3
    1b90:	09 f4       	brne	.+2      	; 0x1b94 <_Z16uartgate_handlerPvi+0x92>
    1b92:	83 c0       	rjmp	.+262    	; 0x1c9a <_Z16uartgate_handlerPvi+0x198>
    1b94:	84 30       	cpi	r24, 0x04	; 4
    1b96:	09 f4       	brne	.+2      	; 0x1b9a <_Z16uartgate_handlerPvi+0x98>
    1b98:	cc c0       	rjmp	.+408    	; 0x1d32 <_Z16uartgate_handlerPvi+0x230>
    1b9a:	0f c1       	rjmp	.+542    	; 0x1dba <_Z16uartgate_handlerPvi+0x2b8>
    1b9c:	eb 89       	ldd	r30, Y+19	; 0x13
    1b9e:	fc 89       	ldd	r31, Y+20	; 0x14
    1ba0:	8d 89       	ldd	r24, Y+21	; 0x15
    1ba2:	9e 89       	ldd	r25, Y+22	; 0x16
    1ba4:	e8 17       	cp	r30, r24
    1ba6:	f9 07       	cpc	r31, r25
    1ba8:	b1 f4       	brne	.+44     	; 0x1bd6 <_Z16uartgate_handlerPvi+0xd4>
    1baa:	6a 89       	ldd	r22, Y+18	; 0x12
    1bac:	24 e5       	ldi	r18, 0x54	; 84
    1bae:	26 0f       	add	r18, r22
    1bb0:	8f 81       	ldd	r24, Y+7	; 0x07
    1bb2:	98 85       	ldd	r25, Y+8	; 0x08
    1bb4:	22 30       	cpi	r18, 0x02	; 2
    1bb6:	58 f4       	brcc	.+22     	; 0x1bce <_Z16uartgate_handlerPvi+0xcc>
    1bb8:	dc 01       	movw	r26, r24
    1bba:	ed 91       	ld	r30, X+
    1bbc:	fc 91       	ld	r31, X
    1bbe:	06 80       	ldd	r0, Z+6	; 0x06
    1bc0:	f7 81       	ldd	r31, Z+7	; 0x07
    1bc2:	e0 2d       	mov	r30, r0
    1bc4:	6d ea       	ldi	r22, 0xAD	; 173
    1bc6:	7f ef       	ldi	r23, 0xFF	; 255
    1bc8:	19 95       	eicall
    1bca:	84 e0       	ldi	r24, 0x04	; 4
    1bcc:	ce c0       	rjmp	.+412    	; 0x1d6a <_Z16uartgate_handlerPvi+0x268>
    1bce:	22 e0       	ldi	r18, 0x02	; 2
    1bd0:	29 8b       	std	Y+17, r18	; 0x11
    1bd2:	70 e0       	ldi	r23, 0x00	; 0
    1bd4:	2a c0       	rjmp	.+84     	; 0x1c2a <_Z16uartgate_handlerPvi+0x128>
    1bd6:	cf 01       	movw	r24, r30
    1bd8:	01 96       	adiw	r24, 0x01	; 1
    1bda:	9c 8b       	std	Y+20, r25	; 0x14
    1bdc:	8b 8b       	std	Y+19, r24	; 0x13
    1bde:	60 81       	ld	r22, Z
    1be0:	8a 89       	ldd	r24, Y+18	; 0x12
    1be2:	86 27       	eor	r24, r22
    1be4:	28 e0       	ldi	r18, 0x08	; 8
    1be6:	30 e0       	ldi	r19, 0x00	; 0
    1be8:	41 e3       	ldi	r20, 0x31	; 49
    1bea:	98 2f       	mov	r25, r24
    1bec:	99 0f       	add	r25, r25
    1bee:	87 ff       	sbrs	r24, 7
    1bf0:	03 c0       	rjmp	.+6      	; 0x1bf8 <_Z16uartgate_handlerPvi+0xf6>
    1bf2:	89 2f       	mov	r24, r25
    1bf4:	84 27       	eor	r24, r20
    1bf6:	01 c0       	rjmp	.+2      	; 0x1bfa <_Z16uartgate_handlerPvi+0xf8>
    1bf8:	89 2f       	mov	r24, r25
    1bfa:	21 50       	subi	r18, 0x01	; 1
    1bfc:	31 09       	sbc	r19, r1
    1bfe:	a9 f7       	brne	.-22     	; 0x1bea <_Z16uartgate_handlerPvi+0xe8>
    1c00:	8a 8b       	std	Y+18, r24	; 0x12
    1c02:	8f 81       	ldd	r24, Y+7	; 0x07
    1c04:	98 85       	ldd	r25, Y+8	; 0x08
    1c06:	24 e5       	ldi	r18, 0x54	; 84
    1c08:	26 0f       	add	r18, r22
    1c0a:	22 30       	cpi	r18, 0x02	; 2
    1c0c:	58 f4       	brcc	.+22     	; 0x1c24 <_Z16uartgate_handlerPvi+0x122>
    1c0e:	dc 01       	movw	r26, r24
    1c10:	ed 91       	ld	r30, X+
    1c12:	fc 91       	ld	r31, X
    1c14:	06 80       	ldd	r0, Z+6	; 0x06
    1c16:	f7 81       	ldd	r31, Z+7	; 0x07
    1c18:	e0 2d       	mov	r30, r0
    1c1a:	6d ea       	ldi	r22, 0xAD	; 173
    1c1c:	7f ef       	ldi	r23, 0xFF	; 255
    1c1e:	19 95       	eicall
    1c20:	81 e0       	ldi	r24, 0x01	; 1
    1c22:	a3 c0       	rjmp	.+326    	; 0x1d6a <_Z16uartgate_handlerPvi+0x268>
    1c24:	06 2e       	mov	r0, r22
    1c26:	00 0c       	add	r0, r0
    1c28:	77 0b       	sbc	r23, r23
    1c2a:	ec 01       	movw	r28, r24
    1c2c:	e8 81       	ld	r30, Y
    1c2e:	f9 81       	ldd	r31, Y+1	; 0x01
    1c30:	06 80       	ldd	r0, Z+6	; 0x06
    1c32:	f7 81       	ldd	r31, Z+7	; 0x07
    1c34:	e0 2d       	mov	r30, r0
    1c36:	df 91       	pop	r29
    1c38:	cf 91       	pop	r28
    1c3a:	1f 91       	pop	r17
    1c3c:	0f 91       	pop	r16
    1c3e:	19 94       	eijmp
    1c40:	eb 89       	ldd	r30, Y+19	; 0x13
    1c42:	fc 89       	ldd	r31, Y+20	; 0x14
    1c44:	31 97       	sbiw	r30, 0x01	; 1
    1c46:	80 81       	ld	r24, Z
    1c48:	8c 3a       	cpi	r24, 0xAC	; 172
    1c4a:	69 f0       	breq	.+26     	; 0x1c66 <_Z16uartgate_handlerPvi+0x164>
    1c4c:	8d 3a       	cpi	r24, 0xAD	; 173
    1c4e:	b1 f4       	brne	.+44     	; 0x1c7c <_Z16uartgate_handlerPvi+0x17a>
    1c50:	8f 81       	ldd	r24, Y+7	; 0x07
    1c52:	98 85       	ldd	r25, Y+8	; 0x08
    1c54:	dc 01       	movw	r26, r24
    1c56:	ed 91       	ld	r30, X+
    1c58:	fc 91       	ld	r31, X
    1c5a:	06 80       	ldd	r0, Z+6	; 0x06
    1c5c:	f7 81       	ldd	r31, Z+7	; 0x07
    1c5e:	e0 2d       	mov	r30, r0
    1c60:	6f ea       	ldi	r22, 0xAF	; 175
    1c62:	7f ef       	ldi	r23, 0xFF	; 255
    1c64:	0a c0       	rjmp	.+20     	; 0x1c7a <_Z16uartgate_handlerPvi+0x178>
    1c66:	8f 81       	ldd	r24, Y+7	; 0x07
    1c68:	98 85       	ldd	r25, Y+8	; 0x08
    1c6a:	dc 01       	movw	r26, r24
    1c6c:	ed 91       	ld	r30, X+
    1c6e:	fc 91       	ld	r31, X
    1c70:	06 80       	ldd	r0, Z+6	; 0x06
    1c72:	f7 81       	ldd	r31, Z+7	; 0x07
    1c74:	e0 2d       	mov	r30, r0
    1c76:	6e ea       	ldi	r22, 0xAE	; 174
    1c78:	7f ef       	ldi	r23, 0xFF	; 255
    1c7a:	19 95       	eicall
    1c7c:	19 8a       	std	Y+17, r1	; 0x11
    1c7e:	9d c0       	rjmp	.+314    	; 0x1dba <_Z16uartgate_handlerPvi+0x2b8>
    1c80:	8f 81       	ldd	r24, Y+7	; 0x07
    1c82:	98 85       	ldd	r25, Y+8	; 0x08
    1c84:	dc 01       	movw	r26, r24
    1c86:	ed 91       	ld	r30, X+
    1c88:	fc 91       	ld	r31, X
    1c8a:	06 80       	ldd	r0, Z+6	; 0x06
    1c8c:	f7 81       	ldd	r31, Z+7	; 0x07
    1c8e:	e0 2d       	mov	r30, r0
    1c90:	6c ea       	ldi	r22, 0xAC	; 172
    1c92:	7f ef       	ldi	r23, 0xFF	; 255
    1c94:	19 95       	eicall
    1c96:	83 e0       	ldi	r24, 0x03	; 3
    1c98:	68 c0       	rjmp	.+208    	; 0x1d6a <_Z16uartgate_handlerPvi+0x268>
    1c9a:	8f 81       	ldd	r24, Y+7	; 0x07
    1c9c:	98 85       	ldd	r25, Y+8	; 0x08
    1c9e:	dc 01       	movw	r26, r24
    1ca0:	ed 91       	ld	r30, X+
    1ca2:	fc 91       	ld	r31, X
    1ca4:	02 80       	ldd	r0, Z+2	; 0x02
    1ca6:	f3 81       	ldd	r31, Z+3	; 0x03
    1ca8:	e0 2d       	mov	r30, r0
    1caa:	60 e0       	ldi	r22, 0x00	; 0
    1cac:	19 95       	eicall
    1cae:	0d 85       	ldd	r16, Y+13	; 0x0d
    1cb0:	1e 85       	ldd	r17, Y+14	; 0x0e
    1cb2:	69 85       	ldd	r22, Y+9	; 0x09
    1cb4:	7a 85       	ldd	r23, Y+10	; 0x0a
    1cb6:	ce 01       	movw	r24, r28
    1cb8:	09 96       	adiw	r24, 0x09	; 9
    1cba:	68 17       	cp	r22, r24
    1cbc:	79 07       	cpc	r23, r25
    1cbe:	19 f4       	brne	.+6      	; 0x1cc6 <_Z16uartgate_handlerPvi+0x1c4>
    1cc0:	1e 86       	std	Y+14, r1	; 0x0e
    1cc2:	1d 86       	std	Y+13, r1	; 0x0d
    1cc4:	03 c0       	rjmp	.+6      	; 0x1ccc <_Z16uartgate_handlerPvi+0x1ca>
    1cc6:	ce 01       	movw	r24, r28
    1cc8:	0e 94 9a 13 	call	0x2734	; 0x2734 <_ZN13crow_uartgate7do_sendEPN4crow6packetE.constprop.20>
    1ccc:	0e 94 3e 14 	call	0x287c	; 0x287c <system_lock>
    1cd0:	e8 01       	movw	r28, r16
    1cd2:	88 85       	ldd	r24, Y+8	; 0x08
    1cd4:	99 85       	ldd	r25, Y+9	; 0x09
    1cd6:	89 2b       	or	r24, r25
    1cd8:	19 f4       	brne	.+6      	; 0x1ce0 <_Z16uartgate_handlerPvi+0x1de>
    1cda:	88 8d       	ldd	r24, Y+24	; 0x18
    1cdc:	81 11       	cpse	r24, r1
    1cde:	04 c0       	rjmp	.+8      	; 0x1ce8 <_Z16uartgate_handlerPvi+0x1e6>
    1ce0:	c8 01       	movw	r24, r16
    1ce2:	0e 94 6e 0d 	call	0x1adc	; 0x1adc <_ZL12crow_utilizePN4crow6packetE.lto_priv.108>
    1ce6:	1f c0       	rjmp	.+62     	; 0x1d26 <_Z16uartgate_handlerPvi+0x224>
    1ce8:	0e 94 19 04 	call	0x832	; 0x832 <_ZN4crow6millisEv>
    1cec:	9b 87       	std	Y+11, r25	; 0x0b
    1cee:	8a 87       	std	Y+10, r24	; 0x0a
    1cf0:	a8 81       	ld	r26, Y
    1cf2:	b9 81       	ldd	r27, Y+1	; 0x01
    1cf4:	e8 01       	movw	r28, r16
    1cf6:	ea 81       	ldd	r30, Y+2	; 0x02
    1cf8:	fb 81       	ldd	r31, Y+3	; 0x03
    1cfa:	13 96       	adiw	r26, 0x03	; 3
    1cfc:	fc 93       	st	X, r31
    1cfe:	ee 93       	st	-X, r30
    1d00:	12 97       	sbiw	r26, 0x02	; 2
    1d02:	b1 83       	std	Z+1, r27	; 0x01
    1d04:	a0 83       	st	Z, r26
    1d06:	e0 91 1d 02 	lds	r30, 0x021D	; 0x80021d <crow_outters+0x2>
    1d0a:	f0 91 1e 02 	lds	r31, 0x021E	; 0x80021e <crow_outters+0x3>
    1d0e:	fb 83       	std	Y+3, r31	; 0x03
    1d10:	ea 83       	std	Y+2, r30	; 0x02
    1d12:	8b e1       	ldi	r24, 0x1B	; 27
    1d14:	92 e0       	ldi	r25, 0x02	; 2
    1d16:	99 83       	std	Y+1, r25	; 0x01
    1d18:	88 83       	st	Y, r24
    1d1a:	10 93 1e 02 	sts	0x021E, r17	; 0x80021e <crow_outters+0x3>
    1d1e:	00 93 1d 02 	sts	0x021D, r16	; 0x80021d <crow_outters+0x2>
    1d22:	11 83       	std	Z+1, r17	; 0x01
    1d24:	00 83       	st	Z, r16
    1d26:	df 91       	pop	r29
    1d28:	cf 91       	pop	r28
    1d2a:	1f 91       	pop	r17
    1d2c:	0f 91       	pop	r16
    1d2e:	0c 94 2f 14 	jmp	0x285e	; 0x285e <system_unlock>
    1d32:	8a 89       	ldd	r24, Y+18	; 0x12
    1d34:	8c 3a       	cpi	r24, 0xAC	; 172
    1d36:	69 f0       	breq	.+26     	; 0x1d52 <_Z16uartgate_handlerPvi+0x250>
    1d38:	8d 3a       	cpi	r24, 0xAD	; 173
    1d3a:	b1 f4       	brne	.+44     	; 0x1d68 <_Z16uartgate_handlerPvi+0x266>
    1d3c:	8f 81       	ldd	r24, Y+7	; 0x07
    1d3e:	98 85       	ldd	r25, Y+8	; 0x08
    1d40:	dc 01       	movw	r26, r24
    1d42:	ed 91       	ld	r30, X+
    1d44:	fc 91       	ld	r31, X
    1d46:	06 80       	ldd	r0, Z+6	; 0x06
    1d48:	f7 81       	ldd	r31, Z+7	; 0x07
    1d4a:	e0 2d       	mov	r30, r0
    1d4c:	6f ea       	ldi	r22, 0xAF	; 175
    1d4e:	7f ef       	ldi	r23, 0xFF	; 255
    1d50:	0a c0       	rjmp	.+20     	; 0x1d66 <_Z16uartgate_handlerPvi+0x264>
    1d52:	8f 81       	ldd	r24, Y+7	; 0x07
    1d54:	98 85       	ldd	r25, Y+8	; 0x08
    1d56:	dc 01       	movw	r26, r24
    1d58:	ed 91       	ld	r30, X+
    1d5a:	fc 91       	ld	r31, X
    1d5c:	06 80       	ldd	r0, Z+6	; 0x06
    1d5e:	f7 81       	ldd	r31, Z+7	; 0x07
    1d60:	e0 2d       	mov	r30, r0
    1d62:	6e ea       	ldi	r22, 0xAE	; 174
    1d64:	7f ef       	ldi	r23, 0xFF	; 255
    1d66:	19 95       	eicall
    1d68:	82 e0       	ldi	r24, 0x02	; 2
    1d6a:	89 8b       	std	Y+17, r24	; 0x11
    1d6c:	26 c0       	rjmp	.+76     	; 0x1dba <_Z16uartgate_handlerPvi+0x2b8>
    1d6e:	87 e0       	ldi	r24, 0x07	; 7
    1d70:	93 e0       	ldi	r25, 0x03	; 3
    1d72:	0e 94 89 14 	call	0x2912	; 0x2912 <debug_print>
    1d76:	8e e0       	ldi	r24, 0x0E	; 14
    1d78:	93 e0       	ldi	r25, 0x03	; 3
    1d7a:	0e 94 89 14 	call	0x2912	; 0x2912 <debug_print>
    1d7e:	0e 94 ca 0b 	call	0x1794	; 0x1794 <debug_print_newline.lto_priv.103.lto_priv.106>
    1d82:	87 e4       	ldi	r24, 0x47	; 71
    1d84:	93 e0       	ldi	r25, 0x03	; 3
    1d86:	0e 94 89 14 	call	0x2912	; 0x2912 <debug_print>
    1d8a:	8c e5       	ldi	r24, 0x5C	; 92
    1d8c:	93 e0       	ldi	r25, 0x03	; 3
    1d8e:	0e 94 89 14 	call	0x2912	; 0x2912 <debug_print>
    1d92:	0e 94 ca 0b 	call	0x1794	; 0x1794 <debug_print_newline.lto_priv.103.lto_priv.106>
    1d96:	8e e4       	ldi	r24, 0x4E	; 78
    1d98:	93 e0       	ldi	r25, 0x03	; 3
    1d9a:	0e 94 89 14 	call	0x2912	; 0x2912 <debug_print>
    1d9e:	8e ec       	ldi	r24, 0xCE	; 206
    1da0:	90 e0       	ldi	r25, 0x00	; 0
    1da2:	0e 94 2a 15 	call	0x2a54	; 0x2a54 <debug_printdec_int16>
    1da6:	0e 94 ca 0b 	call	0x1794	; 0x1794 <debug_print_newline.lto_priv.103.lto_priv.106>
    1daa:	85 e5       	ldi	r24, 0x55	; 85
    1dac:	93 e0       	ldi	r25, 0x03	; 3
    1dae:	0e 94 89 14 	call	0x2912	; 0x2912 <debug_print>
    1db2:	0e 94 6d 14 	call	0x28da	; 0x28da <debug_print_newline.lto_priv.101.lto_priv.109>
    1db6:	0e 94 14 04 	call	0x828	; 0x828 <abort>
    1dba:	df 91       	pop	r29
    1dbc:	cf 91       	pop	r28
    1dbe:	1f 91       	pop	r17
    1dc0:	0f 91       	pop	r16
    1dc2:	08 95       	ret

00001dc4 <_ZL28cooperative_schedee_finalizeP7schedee.lto_priv.118>:
    1dc4:	0f 93       	push	r16
    1dc6:	1f 93       	push	r17
    1dc8:	cf 93       	push	r28
    1dca:	df 93       	push	r29
    1dcc:	1f 92       	push	r1
    1dce:	1f 92       	push	r1
    1dd0:	cd b7       	in	r28, 0x3d	; 61
    1dd2:	de b7       	in	r29, 0x3e	; 62
    1dd4:	8c 01       	movw	r16, r24
    1dd6:	65 ef       	ldi	r22, 0xF5	; 245
    1dd8:	73 e0       	ldi	r23, 0x03	; 3
    1dda:	ce 01       	movw	r24, r28
    1ddc:	01 96       	adiw	r24, 0x01	; 1
    1dde:	0e 94 72 04 	call	0x8e4	; 0x8e4 <_ZN3gxx6tracerC1EPKc>
    1de2:	0e 94 ca 0b 	call	0x1794	; 0x1794 <debug_print_newline.lto_priv.103.lto_priv.106>
    1de6:	c8 01       	movw	r24, r16
    1de8:	0e 94 b8 0a 	call	0x1570	; 0x1570 <free>
    1dec:	ce 01       	movw	r24, r28
    1dee:	01 96       	adiw	r24, 0x01	; 1
    1df0:	0e 94 cf 13 	call	0x279e	; 0x279e <_ZN3gxx6tracerD2Ev.constprop.72>
    1df4:	0f 90       	pop	r0
    1df6:	0f 90       	pop	r0
    1df8:	df 91       	pop	r29
    1dfa:	cf 91       	pop	r28
    1dfc:	1f 91       	pop	r17
    1dfe:	0f 91       	pop	r16
    1e00:	08 95       	ret

00001e02 <_ZL28cooperative_schedee_displaceP7schedee.lto_priv.117>:
    1e02:	0f 93       	push	r16
    1e04:	1f 93       	push	r17
    1e06:	cf 93       	push	r28
    1e08:	df 93       	push	r29
    1e0a:	1f 92       	push	r1
    1e0c:	1f 92       	push	r1
    1e0e:	cd b7       	in	r28, 0x3d	; 61
    1e10:	de b7       	in	r29, 0x3e	; 62
    1e12:	8c 01       	movw	r16, r24
    1e14:	69 ec       	ldi	r22, 0xC9	; 201
    1e16:	73 e0       	ldi	r23, 0x03	; 3
    1e18:	ce 01       	movw	r24, r28
    1e1a:	01 96       	adiw	r24, 0x01	; 1
    1e1c:	0e 94 72 04 	call	0x8e4	; 0x8e4 <_ZN3gxx6tracerC1EPKc>
    1e20:	0e 94 ca 0b 	call	0x1794	; 0x1794 <debug_print_newline.lto_priv.103.lto_priv.106>
    1e24:	f8 01       	movw	r30, r16
    1e26:	80 85       	ldd	r24, Z+8	; 0x08
    1e28:	8e 7f       	andi	r24, 0xFE	; 254
    1e2a:	80 87       	std	Z+8, r24	; 0x08
    1e2c:	c8 01       	movw	r24, r16
    1e2e:	49 96       	adiw	r24, 0x19	; 25
    1e30:	0e 94 d2 02 	call	0x5a4	; 0x5a4 <context_save_and_invoke_displace>
    1e34:	ce 01       	movw	r24, r28
    1e36:	01 96       	adiw	r24, 0x01	; 1
    1e38:	0e 94 cf 13 	call	0x279e	; 0x279e <_ZN3gxx6tracerD2Ev.constprop.72>
    1e3c:	0f 90       	pop	r0
    1e3e:	0f 90       	pop	r0
    1e40:	df 91       	pop	r29
    1e42:	cf 91       	pop	r28
    1e44:	1f 91       	pop	r17
    1e46:	0f 91       	pop	r16
    1e48:	08 95       	ret

00001e4a <_ZL27cooperative_schedee_executeP7schedee.lto_priv.116>:
    1e4a:	0f 93       	push	r16
    1e4c:	1f 93       	push	r17
    1e4e:	cf 93       	push	r28
    1e50:	df 93       	push	r29
    1e52:	1f 92       	push	r1
    1e54:	1f 92       	push	r1
    1e56:	cd b7       	in	r28, 0x3d	; 61
    1e58:	de b7       	in	r29, 0x3e	; 62
    1e5a:	8c 01       	movw	r16, r24
    1e5c:	6e e9       	ldi	r22, 0x9E	; 158
    1e5e:	73 e0       	ldi	r23, 0x03	; 3
    1e60:	ce 01       	movw	r24, r28
    1e62:	01 96       	adiw	r24, 0x01	; 1
    1e64:	0e 94 72 04 	call	0x8e4	; 0x8e4 <_ZN3gxx6tracerC1EPKc>
    1e68:	0e 94 ca 0b 	call	0x1794	; 0x1794 <debug_print_newline.lto_priv.103.lto_priv.106>
    1e6c:	c8 01       	movw	r24, r16
    1e6e:	49 96       	adiw	r24, 0x19	; 25
    1e70:	0e 94 9d 02 	call	0x53a	; 0x53a <context_load>
    1e74:	ce 01       	movw	r24, r28
    1e76:	01 96       	adiw	r24, 0x01	; 1
    1e78:	0e 94 cf 13 	call	0x279e	; 0x279e <_ZN3gxx6tracerD2Ev.constprop.72>
    1e7c:	0f 90       	pop	r0
    1e7e:	0f 90       	pop	r0
    1e80:	df 91       	pop	r29
    1e82:	cf 91       	pop	r28
    1e84:	1f 91       	pop	r17
    1e86:	0f 91       	pop	r16
    1e88:	08 95       	ret

00001e8a <_ZL7starterPv.lto_priv.114>:
    1e8a:	0f 93       	push	r16
    1e8c:	1f 93       	push	r17
    1e8e:	cf 93       	push	r28
    1e90:	df 93       	push	r29
    1e92:	00 d0       	rcall	.+0      	; 0x1e94 <_ZL7starterPv.lto_priv.114+0xa>
    1e94:	1f 92       	push	r1
    1e96:	cd b7       	in	r28, 0x3d	; 61
    1e98:	de b7       	in	r29, 0x3e	; 62
    1e9a:	8c 01       	movw	r16, r24
    1e9c:	6a e8       	ldi	r22, 0x8A	; 138
    1e9e:	73 e0       	ldi	r23, 0x03	; 3
    1ea0:	ce 01       	movw	r24, r28
    1ea2:	03 96       	adiw	r24, 0x03	; 3
    1ea4:	0e 94 72 04 	call	0x8e4	; 0x8e4 <_ZN3gxx6tracerC1EPKc>
    1ea8:	0e 94 ca 0b 	call	0x1794	; 0x1794 <debug_print_newline.lto_priv.103.lto_priv.106>
    1eac:	d8 01       	movw	r26, r16
    1eae:	a0 5c       	subi	r26, 0xC0	; 192
    1eb0:	bf 4f       	sbci	r27, 0xFF	; 255
    1eb2:	f8 01       	movw	r30, r16
    1eb4:	26 ad       	ldd	r18, Z+62	; 0x3e
    1eb6:	37 ad       	ldd	r19, Z+63	; 0x3f
    1eb8:	8d 91       	ld	r24, X+
    1eba:	9c 91       	ld	r25, X
    1ebc:	f9 01       	movw	r30, r18
    1ebe:	19 95       	eicall
    1ec0:	f8 01       	movw	r30, r16
    1ec2:	ea 5b       	subi	r30, 0xBA	; 186
    1ec4:	ff 4f       	sbci	r31, 0xFF	; 255
    1ec6:	91 83       	std	Z+1, r25	; 0x01
    1ec8:	80 83       	st	Z, r24
    1eca:	00 91 af 07 	lds	r16, 0x07AF	; 0x8007af <__current_schedee>
    1ece:	10 91 b0 07 	lds	r17, 0x07B0	; 0x8007b0 <__current_schedee+0x1>
    1ed2:	6d e6       	ldi	r22, 0x6D	; 109
    1ed4:	73 e0       	ldi	r23, 0x03	; 3
    1ed6:	ce 01       	movw	r24, r28
    1ed8:	01 96       	adiw	r24, 0x01	; 1
    1eda:	0e 94 72 04 	call	0x8e4	; 0x8e4 <_ZN3gxx6tracerC1EPKc>
    1ede:	0e 94 ca 0b 	call	0x1794	; 0x1794 <debug_print_newline.lto_priv.103.lto_priv.106>
    1ee2:	84 e0       	ldi	r24, 0x04	; 4
    1ee4:	d8 01       	movw	r26, r16
    1ee6:	17 96       	adiw	r26, 0x07	; 7
    1ee8:	8c 93       	st	X, r24
    1eea:	0e 94 3e 14 	call	0x287c	; 0x287c <system_lock>
    1eee:	c8 01       	movw	r24, r16
    1ef0:	02 96       	adiw	r24, 0x02	; 2
    1ef2:	f8 01       	movw	r30, r16
    1ef4:	a2 81       	ldd	r26, Z+2	; 0x02
    1ef6:	b3 81       	ldd	r27, Z+3	; 0x03
    1ef8:	24 81       	ldd	r18, Z+4	; 0x04
    1efa:	35 81       	ldd	r19, Z+5	; 0x05
    1efc:	13 96       	adiw	r26, 0x03	; 3
    1efe:	3c 93       	st	X, r19
    1f00:	2e 93       	st	-X, r18
    1f02:	12 97       	sbiw	r26, 0x02	; 2
    1f04:	f9 01       	movw	r30, r18
    1f06:	b1 83       	std	Z+1, r27	; 0x01
    1f08:	a0 83       	st	Z, r26
    1f0a:	e3 e1       	ldi	r30, 0x13	; 19
    1f0c:	f2 e0       	ldi	r31, 0x02	; 2
    1f0e:	20 81       	ld	r18, Z
    1f10:	31 81       	ldd	r19, Z+1	; 0x01
    1f12:	d8 01       	movw	r26, r16
    1f14:	15 96       	adiw	r26, 0x05	; 5
    1f16:	fc 93       	st	X, r31
    1f18:	ee 93       	st	-X, r30
    1f1a:	14 97       	sbiw	r26, 0x04	; 4
    1f1c:	13 96       	adiw	r26, 0x03	; 3
    1f1e:	3c 93       	st	X, r19
    1f20:	2e 93       	st	-X, r18
    1f22:	12 97       	sbiw	r26, 0x02	; 2
    1f24:	d9 01       	movw	r26, r18
    1f26:	13 96       	adiw	r26, 0x03	; 3
    1f28:	9c 93       	st	X, r25
    1f2a:	8e 93       	st	-X, r24
    1f2c:	12 97       	sbiw	r26, 0x02	; 2
    1f2e:	91 83       	std	Z+1, r25	; 0x01
    1f30:	80 83       	st	Z, r24
    1f32:	0e 94 2f 14 	call	0x285e	; 0x285e <system_unlock>
    1f36:	ce 01       	movw	r24, r28
    1f38:	01 96       	adiw	r24, 0x01	; 1
    1f3a:	0e 94 cf 13 	call	0x279e	; 0x279e <_ZN3gxx6tracerD2Ev.constprop.72>
    1f3e:	0e 94 63 15 	call	0x2ac6	; 0x2ac6 <__displace__>
    1f42:	ce 01       	movw	r24, r28
    1f44:	03 96       	adiw	r24, 0x03	; 3
    1f46:	0e 94 cf 13 	call	0x279e	; 0x279e <_ZN3gxx6tracerD2Ev.constprop.72>
    1f4a:	0f 90       	pop	r0
    1f4c:	0f 90       	pop	r0
    1f4e:	0f 90       	pop	r0
    1f50:	0f 90       	pop	r0
    1f52:	df 91       	pop	r29
    1f54:	cf 91       	pop	r28
    1f56:	1f 91       	pop	r17
    1f58:	0f 91       	pop	r16
    1f5a:	08 95       	ret

00001f5c <_ZL18crow_tower_releasePN4crow6packetE>:
    1f5c:	cf 93       	push	r28
    1f5e:	df 93       	push	r29
    1f60:	ec 01       	movw	r28, r24
    1f62:	0e 94 3e 14 	call	0x287c	; 0x287c <system_lock>
    1f66:	a8 81       	ld	r26, Y
    1f68:	b9 81       	ldd	r27, Y+1	; 0x01
    1f6a:	ea 81       	ldd	r30, Y+2	; 0x02
    1f6c:	fb 81       	ldd	r31, Y+3	; 0x03
    1f6e:	13 96       	adiw	r26, 0x03	; 3
    1f70:	fc 93       	st	X, r31
    1f72:	ee 93       	st	-X, r30
    1f74:	12 97       	sbiw	r26, 0x02	; 2
    1f76:	b1 83       	std	Z+1, r27	; 0x01
    1f78:	a0 83       	st	Z, r26
    1f7a:	db 83       	std	Y+3, r29	; 0x03
    1f7c:	ca 83       	std	Y+2, r28	; 0x02
    1f7e:	d9 83       	std	Y+1, r29	; 0x01
    1f80:	c8 83       	st	Y, r28
    1f82:	8e 85       	ldd	r24, Y+14	; 0x0e
    1f84:	80 ff       	sbrs	r24, 0
    1f86:	04 c0       	rjmp	.+8      	; 0x1f90 <_ZL18crow_tower_releasePN4crow6packetE+0x34>
    1f88:	ce 01       	movw	r24, r28
    1f8a:	0e 94 6e 0d 	call	0x1adc	; 0x1adc <_ZL12crow_utilizePN4crow6packetE.lto_priv.108>
    1f8e:	02 c0       	rjmp	.+4      	; 0x1f94 <_ZL18crow_tower_releasePN4crow6packetE+0x38>
    1f90:	82 60       	ori	r24, 0x02	; 2
    1f92:	8e 87       	std	Y+14, r24	; 0x0e
    1f94:	df 91       	pop	r29
    1f96:	cf 91       	pop	r28
    1f98:	0c 94 2f 14 	jmp	0x285e	; 0x285e <system_unlock>

00001f9c <_ZL19utilize_from_outersPN4crow6packetE>:
    1f9c:	ef 92       	push	r14
    1f9e:	ff 92       	push	r15
    1fa0:	0f 93       	push	r16
    1fa2:	1f 93       	push	r17
    1fa4:	cf 93       	push	r28
    1fa6:	df 93       	push	r29
    1fa8:	8c 01       	movw	r16, r24
    1faa:	c0 91 1b 02 	lds	r28, 0x021B	; 0x80021b <crow_outters>
    1fae:	d0 91 1c 02 	lds	r29, 0x021C	; 0x80021c <crow_outters+0x1>
    1fb2:	7c 01       	movw	r14, r24
    1fb4:	89 e1       	ldi	r24, 0x19	; 25
    1fb6:	e8 0e       	add	r14, r24
    1fb8:	f1 1c       	adc	r15, r1
    1fba:	e2 e0       	ldi	r30, 0x02	; 2
    1fbc:	cb 31       	cpi	r28, 0x1B	; 27
    1fbe:	de 07       	cpc	r29, r30
    1fc0:	09 f1       	breq	.+66     	; 0x2004 <_ZL19utilize_from_outersPN4crow6packetE+0x68>
    1fc2:	2e 89       	ldd	r18, Y+22	; 0x16
    1fc4:	3f 89       	ldd	r19, Y+23	; 0x17
    1fc6:	f8 01       	movw	r30, r16
    1fc8:	86 89       	ldd	r24, Z+22	; 0x16
    1fca:	97 89       	ldd	r25, Z+23	; 0x17
    1fcc:	28 17       	cp	r18, r24
    1fce:	39 07       	cpc	r19, r25
    1fd0:	a9 f4       	brne	.+42     	; 0x1ffc <_ZL19utilize_from_outersPN4crow6packetE+0x60>
    1fd2:	42 89       	ldd	r20, Z+18	; 0x12
    1fd4:	8a 89       	ldd	r24, Y+18	; 0x12
    1fd6:	48 13       	cpse	r20, r24
    1fd8:	11 c0       	rjmp	.+34     	; 0x1ffc <_ZL19utilize_from_outersPN4crow6packetE+0x60>
    1fda:	50 e0       	ldi	r21, 0x00	; 0
    1fdc:	b7 01       	movw	r22, r14
    1fde:	ce 01       	movw	r24, r28
    1fe0:	49 96       	adiw	r24, 0x19	; 25
    1fe2:	0e 94 7d 03 	call	0x6fa	; 0x6fa <memcmp>
    1fe6:	89 2b       	or	r24, r25
    1fe8:	49 f4       	brne	.+18     	; 0x1ffc <_ZL19utilize_from_outersPN4crow6packetE+0x60>
    1fea:	ce 01       	movw	r24, r28
    1fec:	df 91       	pop	r29
    1fee:	cf 91       	pop	r28
    1ff0:	1f 91       	pop	r17
    1ff2:	0f 91       	pop	r16
    1ff4:	ff 90       	pop	r15
    1ff6:	ef 90       	pop	r14
    1ff8:	0c 94 6e 0d 	jmp	0x1adc	; 0x1adc <_ZL12crow_utilizePN4crow6packetE.lto_priv.108>
    1ffc:	09 90       	ld	r0, Y+
    1ffe:	d8 81       	ld	r29, Y
    2000:	c0 2d       	mov	r28, r0
    2002:	db cf       	rjmp	.-74     	; 0x1fba <_ZL19utilize_from_outersPN4crow6packetE+0x1e>
    2004:	df 91       	pop	r29
    2006:	cf 91       	pop	r28
    2008:	1f 91       	pop	r17
    200a:	0f 91       	pop	r16
    200c:	ff 90       	pop	r15
    200e:	ef 90       	pop	r14
    2010:	08 95       	ret

00002012 <dlist_del.lto_priv.81.lto_priv.96>:
    2012:	cf 93       	push	r28
    2014:	df 93       	push	r29
    2016:	fc 01       	movw	r30, r24
    2018:	c0 81       	ld	r28, Z
    201a:	d1 81       	ldd	r29, Z+1	; 0x01
    201c:	a2 81       	ldd	r26, Z+2	; 0x02
    201e:	b3 81       	ldd	r27, Z+3	; 0x03
    2020:	bb 83       	std	Y+3, r27	; 0x03
    2022:	aa 83       	std	Y+2, r26	; 0x02
    2024:	cd 93       	st	X+, r28
    2026:	dc 93       	st	X, r29
    2028:	80 e0       	ldi	r24, 0x00	; 0
    202a:	91 e0       	ldi	r25, 0x01	; 1
    202c:	91 83       	std	Z+1, r25	; 0x01
    202e:	80 83       	st	Z, r24
    2030:	80 e0       	ldi	r24, 0x00	; 0
    2032:	92 e0       	ldi	r25, 0x02	; 2
    2034:	93 83       	std	Z+3, r25	; 0x03
    2036:	82 83       	std	Z+2, r24	; 0x02
    2038:	df 91       	pop	r29
    203a:	cf 91       	pop	r28
    203c:	08 95       	ret

0000203e <_ZN4crow6travelEPNS_6packetE>:
    203e:	cf 93       	push	r28
    2040:	df 93       	push	r29
    2042:	ec 01       	movw	r28, r24
    2044:	0e 94 3e 14 	call	0x287c	; 0x287c <system_lock>
    2048:	e7 e1       	ldi	r30, 0x17	; 23
    204a:	f2 e0       	ldi	r31, 0x02	; 2
    204c:	a2 81       	ldd	r26, Z+2	; 0x02
    204e:	b3 81       	ldd	r27, Z+3	; 0x03
    2050:	bb 83       	std	Y+3, r27	; 0x03
    2052:	aa 83       	std	Y+2, r26	; 0x02
    2054:	f9 83       	std	Y+1, r31	; 0x01
    2056:	e8 83       	st	Y, r30
    2058:	d3 83       	std	Z+3, r29	; 0x03
    205a:	c2 83       	std	Z+2, r28	; 0x02
    205c:	cd 93       	st	X+, r28
    205e:	dc 93       	st	X, r29
    2060:	df 91       	pop	r29
    2062:	cf 91       	pop	r28
    2064:	0c 94 2f 14 	jmp	0x285e	; 0x285e <system_unlock>

00002068 <_ZL13crow_send_ackPN4crow6packetE>:
    2068:	0f 93       	push	r16
    206a:	1f 93       	push	r17
    206c:	cf 93       	push	r28
    206e:	df 93       	push	r29
    2070:	8c 01       	movw	r16, r24
    2072:	60 e0       	ldi	r22, 0x00	; 0
    2074:	70 e0       	ldi	r23, 0x00	; 0
    2076:	fc 01       	movw	r30, r24
    2078:	82 89       	ldd	r24, Z+18	; 0x12
    207a:	0e 94 02 13 	call	0x2604	; 0x2604 <_ZN4crow13create_packetEPNS_7gatewayEhj.constprop.60>
    207e:	ec 01       	movw	r28, r24
    2080:	81 e0       	ldi	r24, 0x01	; 1
    2082:	f8 01       	movw	r30, r16
    2084:	90 8d       	ldd	r25, Z+24	; 0x18
    2086:	92 30       	cpi	r25, 0x02	; 2
    2088:	09 f0       	breq	.+2      	; 0x208c <_ZL13crow_send_ackPN4crow6packetE+0x24>
    208a:	80 e0       	ldi	r24, 0x00	; 0
    208c:	88 0f       	add	r24, r24
    208e:	88 0f       	add	r24, r24
    2090:	88 0f       	add	r24, r24
    2092:	9f 85       	ldd	r25, Y+15	; 0x0f
    2094:	97 70       	andi	r25, 0x07	; 7
    2096:	89 2b       	or	r24, r25
    2098:	81 60       	ori	r24, 0x01	; 1
    209a:	8f 87       	std	Y+15, r24	; 0x0f
    209c:	18 8e       	std	Y+24, r1	; 0x18
    209e:	f8 01       	movw	r30, r16
    20a0:	86 89       	ldd	r24, Z+22	; 0x16
    20a2:	97 89       	ldd	r25, Z+23	; 0x17
    20a4:	9f 8b       	std	Y+23, r25	; 0x17
    20a6:	8e 8b       	std	Y+22, r24	; 0x16
    20a8:	42 89       	ldd	r20, Z+18	; 0x12
    20aa:	50 e0       	ldi	r21, 0x00	; 0
    20ac:	b8 01       	movw	r22, r16
    20ae:	67 5e       	subi	r22, 0xE7	; 231
    20b0:	7f 4f       	sbci	r23, 0xFF	; 255
    20b2:	ce 01       	movw	r24, r28
    20b4:	49 96       	adiw	r24, 0x19	; 25
    20b6:	0e 94 98 03 	call	0x730	; 0x730 <memcpy>
    20ba:	8e 85       	ldd	r24, Y+14	; 0x0e
    20bc:	81 60       	ori	r24, 0x01	; 1
    20be:	8e 87       	std	Y+14, r24	; 0x0e
    20c0:	ce 01       	movw	r24, r28
    20c2:	df 91       	pop	r29
    20c4:	cf 91       	pop	r28
    20c6:	1f 91       	pop	r17
    20c8:	0f 91       	pop	r16
    20ca:	0c 94 1f 10 	jmp	0x203e	; 0x203e <_ZN4crow6travelEPNS_6packetE>

000020ce <_ZN4crow7releaseEPNS_6packetE>:
    20ce:	cf 93       	push	r28
    20d0:	df 93       	push	r29
    20d2:	ec 01       	movw	r28, r24
    20d4:	0e 94 3e 14 	call	0x287c	; 0x287c <system_lock>
    20d8:	8e 85       	ldd	r24, Y+14	; 0x0e
    20da:	81 ff       	sbrs	r24, 1
    20dc:	04 c0       	rjmp	.+8      	; 0x20e6 <_ZN4crow7releaseEPNS_6packetE+0x18>
    20de:	ce 01       	movw	r24, r28
    20e0:	0e 94 6e 0d 	call	0x1adc	; 0x1adc <_ZL12crow_utilizePN4crow6packetE.lto_priv.108>
    20e4:	02 c0       	rjmp	.+4      	; 0x20ea <_ZN4crow7releaseEPNS_6packetE+0x1c>
    20e6:	81 60       	ori	r24, 0x01	; 1
    20e8:	8e 87       	std	Y+14, r24	; 0x0e
    20ea:	df 91       	pop	r29
    20ec:	cf 91       	pop	r28
    20ee:	0c 94 2f 14 	jmp	0x285e	; 0x285e <system_unlock>

000020f2 <_ZL8__assertPKcS0_i.lto_priv.100>:
    20f2:	7c 01       	movw	r14, r24
    20f4:	8b 01       	movw	r16, r22
    20f6:	ea 01       	movw	r28, r20
    20f8:	81 e2       	ldi	r24, 0x21	; 33
    20fa:	94 e0       	ldi	r25, 0x04	; 4
    20fc:	0e 94 89 14 	call	0x2912	; 0x2912 <debug_print>
    2100:	0e 94 ca 0b 	call	0x1794	; 0x1794 <debug_print_newline.lto_priv.103.lto_priv.106>
    2104:	8a e2       	ldi	r24, 0x2A	; 42
    2106:	94 e0       	ldi	r25, 0x04	; 4
    2108:	0e 94 89 14 	call	0x2912	; 0x2912 <debug_print>
    210c:	80 e2       	ldi	r24, 0x20	; 32
    210e:	0e 94 60 14 	call	0x28c0	; 0x28c0 <diag_putc>
    2112:	8a e3       	ldi	r24, 0x3A	; 58
    2114:	0e 94 60 14 	call	0x28c0	; 0x28c0 <diag_putc>
    2118:	80 e2       	ldi	r24, 0x20	; 32
    211a:	0e 94 60 14 	call	0x28c0	; 0x28c0 <diag_putc>
    211e:	c7 01       	movw	r24, r14
    2120:	0e 94 89 14 	call	0x2912	; 0x2912 <debug_print>
    2124:	0e 94 ca 0b 	call	0x1794	; 0x1794 <debug_print_newline.lto_priv.103.lto_priv.106>
    2128:	82 e3       	ldi	r24, 0x32	; 50
    212a:	94 e0       	ldi	r25, 0x04	; 4
    212c:	0e 94 89 14 	call	0x2912	; 0x2912 <debug_print>
    2130:	80 e2       	ldi	r24, 0x20	; 32
    2132:	0e 94 60 14 	call	0x28c0	; 0x28c0 <diag_putc>
    2136:	8a e3       	ldi	r24, 0x3A	; 58
    2138:	0e 94 60 14 	call	0x28c0	; 0x28c0 <diag_putc>
    213c:	80 e2       	ldi	r24, 0x20	; 32
    213e:	0e 94 60 14 	call	0x28c0	; 0x28c0 <diag_putc>
    2142:	c8 01       	movw	r24, r16
    2144:	0e 94 89 14 	call	0x2912	; 0x2912 <debug_print>
    2148:	0e 94 ca 0b 	call	0x1794	; 0x1794 <debug_print_newline.lto_priv.103.lto_priv.106>
    214c:	87 e3       	ldi	r24, 0x37	; 55
    214e:	94 e0       	ldi	r25, 0x04	; 4
    2150:	0e 94 89 14 	call	0x2912	; 0x2912 <debug_print>
    2154:	80 e2       	ldi	r24, 0x20	; 32
    2156:	0e 94 60 14 	call	0x28c0	; 0x28c0 <diag_putc>
    215a:	8a e3       	ldi	r24, 0x3A	; 58
    215c:	0e 94 60 14 	call	0x28c0	; 0x28c0 <diag_putc>
    2160:	80 e2       	ldi	r24, 0x20	; 32
    2162:	0e 94 60 14 	call	0x28c0	; 0x28c0 <diag_putc>
    2166:	ce 01       	movw	r24, r28
    2168:	0e 94 2a 15 	call	0x2a54	; 0x2a54 <debug_printdec_int16>
    216c:	0e 94 ca 0b 	call	0x1794	; 0x1794 <debug_print_newline.lto_priv.103.lto_priv.106>
    2170:	ff cf       	rjmp	.-2      	; 0x2170 <_ZL8__assertPKcS0_i.lto_priv.100+0x7e>

00002172 <_ZN4crow7onestepEv>:
    2172:	ef 92       	push	r14
    2174:	ff 92       	push	r15
    2176:	0f 93       	push	r16
    2178:	1f 93       	push	r17
    217a:	cf 93       	push	r28
    217c:	df 93       	push	r29
    217e:	c0 91 bd 09 	lds	r28, 0x09BD	; 0x8009bd <crow_gateways>
    2182:	d0 91 be 09 	lds	r29, 0x09BE	; 0x8009be <crow_gateways+0x1>
    2186:	29 e0       	ldi	r18, 0x09	; 9
    2188:	cd 3b       	cpi	r28, 0xBD	; 189
    218a:	d2 07       	cpc	r29, r18
    218c:	09 f4       	brne	.+2      	; 0x2190 <_ZN4crow7onestepEv+0x1e>
    218e:	77 c0       	rjmp	.+238    	; 0x227e <_ZN4crow7onestepEv+0x10c>
    2190:	de 01       	movw	r26, r28
    2192:	fe 91       	ld	r31, -X
    2194:	ee 91       	ld	r30, -X
    2196:	cd 01       	movw	r24, r26
    2198:	02 80       	ldd	r0, Z+2	; 0x02
    219a:	f3 81       	ldd	r31, Z+3	; 0x03
    219c:	e0 2d       	mov	r30, r0
    219e:	19 95       	eicall
    21a0:	09 90       	ld	r0, Y+
    21a2:	d8 81       	ld	r29, Y
    21a4:	c0 2d       	mov	r28, r0
    21a6:	ef cf       	rjmp	.-34     	; 0x2186 <_ZN4crow7onestepEv+0x14>
    21a8:	a8 81       	ld	r26, Y
    21aa:	b9 81       	ldd	r27, Y+1	; 0x01
    21ac:	ea 81       	ldd	r30, Y+2	; 0x02
    21ae:	fb 81       	ldd	r31, Y+3	; 0x03
    21b0:	13 96       	adiw	r26, 0x03	; 3
    21b2:	fc 93       	st	X, r31
    21b4:	ee 93       	st	-X, r30
    21b6:	12 97       	sbiw	r26, 0x02	; 2
    21b8:	b1 83       	std	Z+1, r27	; 0x01
    21ba:	a0 83       	st	Z, r26
    21bc:	db 83       	std	Y+3, r29	; 0x03
    21be:	ca 83       	std	Y+2, r28	; 0x02
    21c0:	d9 83       	std	Y+1, r29	; 0x01
    21c2:	c8 83       	st	Y, r28
    21c4:	0e 94 2f 14 	call	0x285e	; 0x285e <system_unlock>
    21c8:	8b 89       	ldd	r24, Y+19	; 0x13
    21ca:	9a 89       	ldd	r25, Y+18	; 0x12
    21cc:	e8 2f       	mov	r30, r24
    21ce:	f0 e0       	ldi	r31, 0x00	; 0
    21d0:	89 13       	cpse	r24, r25
    21d2:	67 c0       	rjmp	.+206    	; 0x22a2 <_ZN4crow7onestepEv+0x130>
    21d4:	7e 01       	movw	r14, r28
    21d6:	29 e1       	ldi	r18, 0x19	; 25
    21d8:	e2 0e       	add	r14, r18
    21da:	f1 1c       	adc	r15, r1
    21dc:	ee 0d       	add	r30, r14
    21de:	ff 1d       	adc	r31, r15
    21e0:	d7 01       	movw	r26, r14
    21e2:	ae 17       	cp	r26, r30
    21e4:	bf 07       	cpc	r27, r31
    21e6:	09 f0       	breq	.+2      	; 0x21ea <_ZN4crow7onestepEv+0x78>
    21e8:	56 c0       	rjmp	.+172    	; 0x2296 <_ZN4crow7onestepEv+0x124>
    21ea:	8f 85       	ldd	r24, Y+15	; 0x0f
    21ec:	80 fd       	sbrc	r24, 0
    21ee:	14 c1       	rjmp	.+552    	; 0x2418 <_ZN4crow7onestepEv+0x2a6>
    21f0:	88 85       	ldd	r24, Y+8	; 0x08
    21f2:	99 85       	ldd	r25, Y+9	; 0x09
    21f4:	89 2b       	or	r24, r25
    21f6:	09 f4       	brne	.+2      	; 0x21fa <_ZN4crow7onestepEv+0x88>
    21f8:	80 c1       	rjmp	.+768    	; 0x24fa <_ZN4crow7onestepEv+0x388>
    21fa:	88 8d       	ldd	r24, Y+24	; 0x18
    21fc:	81 50       	subi	r24, 0x01	; 1
    21fe:	82 30       	cpi	r24, 0x02	; 2
    2200:	18 f4       	brcc	.+6      	; 0x2208 <_ZN4crow7onestepEv+0x96>
    2202:	ce 01       	movw	r24, r28
    2204:	0e 94 34 10 	call	0x2068	; 0x2068 <_ZL13crow_send_ackPN4crow6packetE>
    2208:	88 8d       	ldd	r24, Y+24	; 0x18
    220a:	82 30       	cpi	r24, 0x02	; 2
    220c:	09 f0       	breq	.+2      	; 0x2210 <_ZN4crow7onestepEv+0x9e>
    220e:	75 c1       	rjmp	.+746    	; 0x24fa <_ZN4crow7onestepEv+0x388>
    2210:	00 91 1f 02 	lds	r16, 0x021F	; 0x80021f <crow_incoming>
    2214:	10 91 20 02 	lds	r17, 0x0220	; 0x800220 <crow_incoming+0x1>
    2218:	f2 e0       	ldi	r31, 0x02	; 2
    221a:	0f 31       	cpi	r16, 0x1F	; 31
    221c:	1f 07       	cpc	r17, r31
    221e:	09 f0       	breq	.+2      	; 0x2222 <_ZN4crow7onestepEv+0xb0>
    2220:	54 c1       	rjmp	.+680    	; 0x24ca <_ZN4crow7onestepEv+0x358>
    2222:	0e 94 3e 14 	call	0x287c	; 0x287c <system_lock>
    2226:	0e 94 19 04 	call	0x832	; 0x832 <_ZN4crow6millisEv>
    222a:	9b 87       	std	Y+11, r25	; 0x0b
    222c:	8a 87       	std	Y+10, r24	; 0x0a
    222e:	a8 81       	ld	r26, Y
    2230:	b9 81       	ldd	r27, Y+1	; 0x01
    2232:	ea 81       	ldd	r30, Y+2	; 0x02
    2234:	fb 81       	ldd	r31, Y+3	; 0x03
    2236:	13 96       	adiw	r26, 0x03	; 3
    2238:	fc 93       	st	X, r31
    223a:	ee 93       	st	-X, r30
    223c:	12 97       	sbiw	r26, 0x02	; 2
    223e:	b1 83       	std	Z+1, r27	; 0x01
    2240:	a0 83       	st	Z, r26
    2242:	e0 91 21 02 	lds	r30, 0x0221	; 0x800221 <crow_incoming+0x2>
    2246:	f0 91 22 02 	lds	r31, 0x0222	; 0x800222 <crow_incoming+0x3>
    224a:	fb 83       	std	Y+3, r31	; 0x03
    224c:	ea 83       	std	Y+2, r30	; 0x02
    224e:	19 83       	std	Y+1, r17	; 0x01
    2250:	08 83       	st	Y, r16
    2252:	d0 93 22 02 	sts	0x0222, r29	; 0x800222 <crow_incoming+0x3>
    2256:	c0 93 21 02 	sts	0x0221, r28	; 0x800221 <crow_incoming+0x2>
    225a:	d1 83       	std	Z+1, r29	; 0x01
    225c:	c0 83       	st	Z, r28
    225e:	0e 94 2f 14 	call	0x285e	; 0x285e <system_unlock>
    2262:	8f 85       	ldd	r24, Y+15	; 0x0f
    2264:	82 fd       	sbrc	r24, 2
    2266:	4d c1       	rjmp	.+666    	; 0x2502 <_ZN4crow7onestepEv+0x390>
    2268:	e0 91 b5 07 	lds	r30, 0x07B5	; 0x8007b5 <_ZN4crow21user_incoming_handlerE>
    226c:	f0 91 b6 07 	lds	r31, 0x07B6	; 0x8007b6 <_ZN4crow21user_incoming_handlerE+0x1>
    2270:	30 97       	sbiw	r30, 0x00	; 0
    2272:	09 f4       	brne	.+2      	; 0x2276 <_ZN4crow7onestepEv+0x104>
    2274:	46 c1       	rjmp	.+652    	; 0x2502 <_ZN4crow7onestepEv+0x390>
    2276:	ce 01       	movw	r24, r28
    2278:	19 95       	eicall
    227a:	0e 94 2f 14 	call	0x285e	; 0x285e <system_unlock>
    227e:	0e 94 3e 14 	call	0x287c	; 0x287c <system_lock>
    2282:	c0 91 17 02 	lds	r28, 0x0217	; 0x800217 <crow_travelled>
    2286:	d0 91 18 02 	lds	r29, 0x0218	; 0x800218 <crow_travelled+0x1>
    228a:	b2 e0       	ldi	r27, 0x02	; 2
    228c:	c7 31       	cpi	r28, 0x17	; 23
    228e:	db 07       	cpc	r29, r27
    2290:	09 f0       	breq	.+2      	; 0x2294 <_ZN4crow7onestepEv+0x122>
    2292:	8a cf       	rjmp	.-236    	; 0x21a8 <_ZN4crow7onestepEv+0x36>
    2294:	29 c0       	rjmp	.+82     	; 0x22e8 <_ZN4crow7onestepEv+0x176>
    2296:	31 97       	sbiw	r30, 0x01	; 1
    2298:	ae 17       	cp	r26, r30
    229a:	bf 07       	cpc	r27, r31
    229c:	09 f0       	breq	.+2      	; 0x22a0 <_ZN4crow7onestepEv+0x12e>
    229e:	35 c1       	rjmp	.+618    	; 0x250a <_ZN4crow7onestepEv+0x398>
    22a0:	a4 cf       	rjmp	.-184    	; 0x21ea <_ZN4crow7onestepEv+0x78>
    22a2:	ec 0f       	add	r30, r28
    22a4:	fd 1f       	adc	r31, r29
    22a6:	21 8d       	ldd	r18, Z+25	; 0x19
    22a8:	e0 91 bd 09 	lds	r30, 0x09BD	; 0x8009bd <crow_gateways>
    22ac:	f0 91 be 09 	lds	r31, 0x09BE	; 0x8009be <crow_gateways+0x1>
    22b0:	b9 e0       	ldi	r27, 0x09	; 9
    22b2:	ed 3b       	cpi	r30, 0xBD	; 189
    22b4:	fb 07       	cpc	r31, r27
    22b6:	09 f4       	brne	.+2      	; 0x22ba <_ZN4crow7onestepEv+0x148>
    22b8:	2d c1       	rjmp	.+602    	; 0x2514 <_ZN4crow7onestepEv+0x3a2>
    22ba:	cf 01       	movw	r24, r30
    22bc:	02 97       	sbiw	r24, 0x02	; 2
    22be:	dc 01       	movw	r26, r24
    22c0:	16 96       	adiw	r26, 0x06	; 6
    22c2:	3c 91       	ld	r19, X
    22c4:	23 13       	cpse	r18, r19
    22c6:	0c c0       	rjmp	.+24     	; 0x22e0 <_ZN4crow7onestepEv+0x16e>
    22c8:	00 97       	sbiw	r24, 0x00	; 0
    22ca:	09 f4       	brne	.+2      	; 0x22ce <_ZN4crow7onestepEv+0x15c>
    22cc:	23 c1       	rjmp	.+582    	; 0x2514 <_ZN4crow7onestepEv+0x3a2>
    22ce:	dc 01       	movw	r26, r24
    22d0:	ed 91       	ld	r30, X+
    22d2:	fc 91       	ld	r31, X
    22d4:	01 90       	ld	r0, Z+
    22d6:	f0 81       	ld	r31, Z
    22d8:	e0 2d       	mov	r30, r0
    22da:	be 01       	movw	r22, r28
    22dc:	19 95       	eicall
    22de:	cd cf       	rjmp	.-102    	; 0x227a <_ZN4crow7onestepEv+0x108>
    22e0:	01 90       	ld	r0, Z+
    22e2:	f0 81       	ld	r31, Z
    22e4:	e0 2d       	mov	r30, r0
    22e6:	e4 cf       	rjmp	.-56     	; 0x22b0 <_ZN4crow7onestepEv+0x13e>
    22e8:	0e 94 2f 14 	call	0x285e	; 0x285e <system_unlock>
    22ec:	0e 94 19 04 	call	0x832	; 0x832 <_ZN4crow6millisEv>
    22f0:	7c 01       	movw	r14, r24
    22f2:	0e 94 3e 14 	call	0x287c	; 0x287c <system_lock>
    22f6:	80 91 1b 02 	lds	r24, 0x021B	; 0x80021b <crow_outters>
    22fa:	90 91 1c 02 	lds	r25, 0x021C	; 0x80021c <crow_outters+0x1>
    22fe:	8b 51       	subi	r24, 0x1B	; 27
    2300:	92 40       	sbci	r25, 0x02	; 2
    2302:	79 f4       	brne	.+30     	; 0x2322 <_ZN4crow7onestepEv+0x1b0>
    2304:	0e 94 2f 14 	call	0x285e	; 0x285e <system_unlock>
    2308:	0e 94 19 04 	call	0x832	; 0x832 <_ZN4crow6millisEv>
    230c:	8c 01       	movw	r16, r24
    230e:	0e 94 3e 14 	call	0x287c	; 0x287c <system_lock>
    2312:	80 91 1f 02 	lds	r24, 0x021F	; 0x80021f <crow_incoming>
    2316:	90 91 20 02 	lds	r25, 0x0220	; 0x800220 <crow_incoming+0x1>
    231a:	8f 51       	subi	r24, 0x1F	; 31
    231c:	92 40       	sbci	r25, 0x02	; 2
    231e:	f1 f5       	brne	.+124    	; 0x239c <_ZN4crow7onestepEv+0x22a>
    2320:	4b c0       	rjmp	.+150    	; 0x23b8 <_ZN4crow7onestepEv+0x246>
    2322:	0e 94 2f 14 	call	0x285e	; 0x285e <system_unlock>
    2326:	0e 94 3e 14 	call	0x287c	; 0x287c <system_lock>
    232a:	c0 91 1b 02 	lds	r28, 0x021B	; 0x80021b <crow_outters>
    232e:	d0 91 1c 02 	lds	r29, 0x021C	; 0x80021c <crow_outters+0x1>
    2332:	08 81       	ld	r16, Y
    2334:	19 81       	ldd	r17, Y+1	; 0x01
    2336:	f2 e0       	ldi	r31, 0x02	; 2
    2338:	cb 31       	cpi	r28, 0x1B	; 27
    233a:	df 07       	cpc	r29, r31
    233c:	19 f3       	breq	.-58     	; 0x2304 <_ZN4crow7onestepEv+0x192>
    233e:	8e 85       	ldd	r24, Y+14	; 0x0e
    2340:	81 ff       	sbrs	r24, 1
    2342:	03 c0       	rjmp	.+6      	; 0x234a <_ZN4crow7onestepEv+0x1d8>
    2344:	4b ee       	ldi	r20, 0xEB	; 235
    2346:	51 e0       	ldi	r21, 0x01	; 1
    2348:	44 c0       	rjmp	.+136    	; 0x23d2 <_ZN4crow7onestepEv+0x260>
    234a:	8a 85       	ldd	r24, Y+10	; 0x0a
    234c:	9b 85       	ldd	r25, Y+11	; 0x0b
    234e:	97 01       	movw	r18, r14
    2350:	28 1b       	sub	r18, r24
    2352:	39 0b       	sbc	r19, r25
    2354:	8c 89       	ldd	r24, Y+20	; 0x14
    2356:	9d 89       	ldd	r25, Y+21	; 0x15
    2358:	82 17       	cp	r24, r18
    235a:	93 07       	cpc	r25, r19
    235c:	e8 f4       	brcc	.+58     	; 0x2398 <_ZN4crow7onestepEv+0x226>
    235e:	a8 81       	ld	r26, Y
    2360:	b9 81       	ldd	r27, Y+1	; 0x01
    2362:	ea 81       	ldd	r30, Y+2	; 0x02
    2364:	fb 81       	ldd	r31, Y+3	; 0x03
    2366:	13 96       	adiw	r26, 0x03	; 3
    2368:	fc 93       	st	X, r31
    236a:	ee 93       	st	-X, r30
    236c:	12 97       	sbiw	r26, 0x02	; 2
    236e:	b1 83       	std	Z+1, r27	; 0x01
    2370:	a0 83       	st	Z, r26
    2372:	db 83       	std	Y+3, r29	; 0x03
    2374:	ca 83       	std	Y+2, r28	; 0x02
    2376:	d9 83       	std	Y+1, r29	; 0x01
    2378:	c8 83       	st	Y, r28
    237a:	8c 85       	ldd	r24, Y+12	; 0x0c
    237c:	8f 5f       	subi	r24, 0xFF	; 255
    237e:	8c 87       	std	Y+12, r24	; 0x0c
    2380:	85 30       	cpi	r24, 0x05	; 5
    2382:	39 f4       	brne	.+14     	; 0x2392 <_ZN4crow7onestepEv+0x220>
    2384:	ce 01       	movw	r24, r28
    2386:	0e 94 ae 0f 	call	0x1f5c	; 0x1f5c <_ZL18crow_tower_releasePN4crow6packetE>
    238a:	ce 01       	movw	r24, r28
    238c:	0e 94 67 10 	call	0x20ce	; 0x20ce <_ZN4crow7releaseEPNS_6packetE>
    2390:	03 c0       	rjmp	.+6      	; 0x2398 <_ZN4crow7onestepEv+0x226>
    2392:	ce 01       	movw	r24, r28
    2394:	0e 94 1f 10 	call	0x203e	; 0x203e <_ZN4crow6travelEPNS_6packetE>
    2398:	e8 01       	movw	r28, r16
    239a:	cb cf       	rjmp	.-106    	; 0x2332 <_ZN4crow7onestepEv+0x1c0>
    239c:	0e 94 2f 14 	call	0x285e	; 0x285e <system_unlock>
    23a0:	0e 94 3e 14 	call	0x287c	; 0x287c <system_lock>
    23a4:	e0 91 1f 02 	lds	r30, 0x021F	; 0x80021f <crow_incoming>
    23a8:	f0 91 20 02 	lds	r31, 0x0220	; 0x800220 <crow_incoming+0x1>
    23ac:	c0 81       	ld	r28, Z
    23ae:	d1 81       	ldd	r29, Z+1	; 0x01
    23b0:	22 e0       	ldi	r18, 0x02	; 2
    23b2:	ef 31       	cpi	r30, 0x1F	; 31
    23b4:	f2 07       	cpc	r31, r18
    23b6:	41 f4       	brne	.+16     	; 0x23c8 <_ZN4crow7onestepEv+0x256>
    23b8:	df 91       	pop	r29
    23ba:	cf 91       	pop	r28
    23bc:	1f 91       	pop	r17
    23be:	0f 91       	pop	r16
    23c0:	ff 90       	pop	r15
    23c2:	ef 90       	pop	r14
    23c4:	0c 94 2f 14 	jmp	0x285e	; 0x285e <system_unlock>
    23c8:	86 85       	ldd	r24, Z+14	; 0x0e
    23ca:	81 ff       	sbrs	r24, 1
    23cc:	08 c0       	rjmp	.+16     	; 0x23de <_ZN4crow7onestepEv+0x26c>
    23ce:	45 e1       	ldi	r20, 0x15	; 21
    23d0:	52 e0       	ldi	r21, 0x02	; 2
    23d2:	68 ed       	ldi	r22, 0xD8	; 216
    23d4:	74 e0       	ldi	r23, 0x04	; 4
    23d6:	85 e0       	ldi	r24, 0x05	; 5
    23d8:	95 e0       	ldi	r25, 0x05	; 5
    23da:	0e 94 79 10 	call	0x20f2	; 0x20f2 <_ZL8__assertPKcS0_i.lto_priv.100>
    23de:	82 85       	ldd	r24, Z+10	; 0x0a
    23e0:	93 85       	ldd	r25, Z+11	; 0x0b
    23e2:	98 01       	movw	r18, r16
    23e4:	28 1b       	sub	r18, r24
    23e6:	39 0b       	sbc	r19, r25
    23e8:	84 89       	ldd	r24, Z+20	; 0x14
    23ea:	95 89       	ldd	r25, Z+21	; 0x15
    23ec:	82 17       	cp	r24, r18
    23ee:	93 07       	cpc	r25, r19
    23f0:	70 f4       	brcc	.+28     	; 0x240e <_ZN4crow7onestepEv+0x29c>
    23f2:	84 85       	ldd	r24, Z+12	; 0x0c
    23f4:	8f 5f       	subi	r24, 0xFF	; 255
    23f6:	84 87       	std	Z+12, r24	; 0x0c
    23f8:	85 30       	cpi	r24, 0x05	; 5
    23fa:	21 f4       	brne	.+8      	; 0x2404 <_ZN4crow7onestepEv+0x292>
    23fc:	cf 01       	movw	r24, r30
    23fe:	0e 94 6e 0d 	call	0x1adc	; 0x1adc <_ZL12crow_utilizePN4crow6packetE.lto_priv.108>
    2402:	05 c0       	rjmp	.+10     	; 0x240e <_ZN4crow7onestepEv+0x29c>
    2404:	13 87       	std	Z+11, r17	; 0x0b
    2406:	02 87       	std	Z+10, r16	; 0x0a
    2408:	cf 01       	movw	r24, r30
    240a:	0e 94 34 10 	call	0x2068	; 0x2068 <_ZL13crow_send_ackPN4crow6packetE>
    240e:	fe 01       	movw	r30, r28
    2410:	09 90       	ld	r0, Y+
    2412:	d8 81       	ld	r29, Y
    2414:	c0 2d       	mov	r28, r0
    2416:	cc cf       	rjmp	.-104    	; 0x23b0 <_ZN4crow7onestepEv+0x23e>
    2418:	86 95       	lsr	r24
    241a:	86 95       	lsr	r24
    241c:	86 95       	lsr	r24
    241e:	81 30       	cpi	r24, 0x01	; 1
    2420:	69 f0       	breq	.+26     	; 0x243c <_ZN4crow7onestepEv+0x2ca>
    2422:	40 f0       	brcs	.+16     	; 0x2434 <_ZN4crow7onestepEv+0x2c2>
    2424:	82 30       	cpi	r24, 0x02	; 2
    2426:	09 f0       	breq	.+2      	; 0x242a <_ZN4crow7onestepEv+0x2b8>
    2428:	75 c0       	rjmp	.+234    	; 0x2514 <_ZN4crow7onestepEv+0x3a2>
    242a:	00 91 1f 02 	lds	r16, 0x021F	; 0x80021f <crow_incoming>
    242e:	10 91 20 02 	lds	r17, 0x0220	; 0x800220 <crow_incoming+0x1>
    2432:	36 c0       	rjmp	.+108    	; 0x24a0 <_ZN4crow7onestepEv+0x32e>
    2434:	ce 01       	movw	r24, r28
    2436:	0e 94 ce 0f 	call	0x1f9c	; 0x1f9c <_ZL19utilize_from_outersPN4crow6packetE>
    243a:	6c c0       	rjmp	.+216    	; 0x2514 <_ZN4crow7onestepEv+0x3a2>
    243c:	ce 01       	movw	r24, r28
    243e:	0e 94 ce 0f 	call	0x1f9c	; 0x1f9c <_ZL19utilize_from_outersPN4crow6packetE>
    2442:	60 e0       	ldi	r22, 0x00	; 0
    2444:	70 e0       	ldi	r23, 0x00	; 0
    2446:	8a 89       	ldd	r24, Y+18	; 0x12
    2448:	0e 94 02 13 	call	0x2604	; 0x2604 <_ZN4crow13create_packetEPNS_7gatewayEhj.constprop.60>
    244c:	8c 01       	movw	r16, r24
    244e:	dc 01       	movw	r26, r24
    2450:	1f 96       	adiw	r26, 0x0f	; 15
    2452:	8c 91       	ld	r24, X
    2454:	1f 97       	sbiw	r26, 0x0f	; 15
    2456:	87 70       	andi	r24, 0x07	; 7
    2458:	80 61       	ori	r24, 0x10	; 16
    245a:	81 60       	ori	r24, 0x01	; 1
    245c:	1f 96       	adiw	r26, 0x0f	; 15
    245e:	8c 93       	st	X, r24
    2460:	1f 97       	sbiw	r26, 0x0f	; 15
    2462:	58 96       	adiw	r26, 0x18	; 24
    2464:	1c 92       	st	X, r1
    2466:	58 97       	sbiw	r26, 0x18	; 24
    2468:	8e 89       	ldd	r24, Y+22	; 0x16
    246a:	9f 89       	ldd	r25, Y+23	; 0x17
    246c:	57 96       	adiw	r26, 0x17	; 23
    246e:	9c 93       	st	X, r25
    2470:	8e 93       	st	-X, r24
    2472:	56 97       	sbiw	r26, 0x16	; 22
    2474:	4a 89       	ldd	r20, Y+18	; 0x12
    2476:	50 e0       	ldi	r21, 0x00	; 0
    2478:	b7 01       	movw	r22, r14
    247a:	c8 01       	movw	r24, r16
    247c:	49 96       	adiw	r24, 0x19	; 25
    247e:	0e 94 98 03 	call	0x730	; 0x730 <memcpy>
    2482:	c8 01       	movw	r24, r16
    2484:	0e 94 1f 10 	call	0x203e	; 0x203e <_ZN4crow6travelEPNS_6packetE>
    2488:	45 c0       	rjmp	.+138    	; 0x2514 <_ZN4crow7onestepEv+0x3a2>
    248a:	f8 01       	movw	r30, r16
    248c:	26 89       	ldd	r18, Z+22	; 0x16
    248e:	37 89       	ldd	r19, Z+23	; 0x17
    2490:	8e 89       	ldd	r24, Y+22	; 0x16
    2492:	9f 89       	ldd	r25, Y+23	; 0x17
    2494:	28 17       	cp	r18, r24
    2496:	39 07       	cpc	r19, r25
    2498:	41 f0       	breq	.+16     	; 0x24aa <_ZN4crow7onestepEv+0x338>
    249a:	d8 01       	movw	r26, r16
    249c:	0d 91       	ld	r16, X+
    249e:	1c 91       	ld	r17, X
    24a0:	b2 e0       	ldi	r27, 0x02	; 2
    24a2:	0f 31       	cpi	r16, 0x1F	; 31
    24a4:	1b 07       	cpc	r17, r27
    24a6:	89 f7       	brne	.-30     	; 0x248a <_ZN4crow7onestepEv+0x318>
    24a8:	35 c0       	rjmp	.+106    	; 0x2514 <_ZN4crow7onestepEv+0x3a2>
    24aa:	4a 89       	ldd	r20, Y+18	; 0x12
    24ac:	82 89       	ldd	r24, Z+18	; 0x12
    24ae:	48 13       	cpse	r20, r24
    24b0:	f4 cf       	rjmp	.-24     	; 0x249a <_ZN4crow7onestepEv+0x328>
    24b2:	50 e0       	ldi	r21, 0x00	; 0
    24b4:	b7 01       	movw	r22, r14
    24b6:	c8 01       	movw	r24, r16
    24b8:	49 96       	adiw	r24, 0x19	; 25
    24ba:	0e 94 7d 03 	call	0x6fa	; 0x6fa <memcmp>
    24be:	89 2b       	or	r24, r25
    24c0:	61 f7       	brne	.-40     	; 0x249a <_ZN4crow7onestepEv+0x328>
    24c2:	c8 01       	movw	r24, r16
    24c4:	0e 94 ae 0f 	call	0x1f5c	; 0x1f5c <_ZL18crow_tower_releasePN4crow6packetE>
    24c8:	25 c0       	rjmp	.+74     	; 0x2514 <_ZN4crow7onestepEv+0x3a2>
    24ca:	d8 01       	movw	r26, r16
    24cc:	56 96       	adiw	r26, 0x16	; 22
    24ce:	2d 91       	ld	r18, X+
    24d0:	3c 91       	ld	r19, X
    24d2:	57 97       	sbiw	r26, 0x17	; 23
    24d4:	8e 89       	ldd	r24, Y+22	; 0x16
    24d6:	9f 89       	ldd	r25, Y+23	; 0x17
    24d8:	28 17       	cp	r18, r24
    24da:	39 07       	cpc	r19, r25
    24dc:	f9 f4       	brne	.+62     	; 0x251c <_ZN4crow7onestepEv+0x3aa>
    24de:	52 96       	adiw	r26, 0x12	; 18
    24e0:	4c 91       	ld	r20, X
    24e2:	8a 89       	ldd	r24, Y+18	; 0x12
    24e4:	48 13       	cpse	r20, r24
    24e6:	1a c0       	rjmp	.+52     	; 0x251c <_ZN4crow7onestepEv+0x3aa>
    24e8:	50 e0       	ldi	r21, 0x00	; 0
    24ea:	b7 01       	movw	r22, r14
    24ec:	c8 01       	movw	r24, r16
    24ee:	49 96       	adiw	r24, 0x19	; 25
    24f0:	0e 94 7d 03 	call	0x6fa	; 0x6fa <memcmp>
    24f4:	89 2b       	or	r24, r25
    24f6:	91 f4       	brne	.+36     	; 0x251c <_ZN4crow7onestepEv+0x3aa>
    24f8:	0d c0       	rjmp	.+26     	; 0x2514 <_ZN4crow7onestepEv+0x3a2>
    24fa:	ce 01       	movw	r24, r28
    24fc:	0e 94 ae 0f 	call	0x1f5c	; 0x1f5c <_ZL18crow_tower_releasePN4crow6packetE>
    2500:	b0 ce       	rjmp	.-672    	; 0x2262 <_ZN4crow7onestepEv+0xf0>
    2502:	ce 01       	movw	r24, r28
    2504:	0e 94 67 10 	call	0x20ce	; 0x20ce <_ZN4crow7releaseEPNS_6packetE>
    2508:	b8 ce       	rjmp	.-656    	; 0x227a <_ZN4crow7onestepEv+0x108>
    250a:	80 81       	ld	r24, Z
    250c:	9c 91       	ld	r25, X
    250e:	90 83       	st	Z, r25
    2510:	8d 93       	st	X+, r24
    2512:	67 ce       	rjmp	.-818    	; 0x21e2 <_ZN4crow7onestepEv+0x70>
    2514:	ce 01       	movw	r24, r28
    2516:	0e 94 6e 0d 	call	0x1adc	; 0x1adc <_ZL12crow_utilizePN4crow6packetE.lto_priv.108>
    251a:	af ce       	rjmp	.-674    	; 0x227a <_ZN4crow7onestepEv+0x108>
    251c:	f8 01       	movw	r30, r16
    251e:	00 81       	ld	r16, Z
    2520:	11 81       	ldd	r17, Z+1	; 0x01
    2522:	7a ce       	rjmp	.-780    	; 0x2218 <_ZN4crow7onestepEv+0xa6>

00002524 <_GLOBAL__D_65535_1_main.o.6052>:
    2524:	cf 93       	push	r28
    2526:	df 93       	push	r29
    2528:	c2 ee       	ldi	r28, 0xE2	; 226
    252a:	d6 e0       	ldi	r29, 0x06	; 6
    252c:	d0 93 79 09 	sts	0x0979, r29	; 0x800979 <null_device+0x1>
    2530:	c0 93 78 09 	sts	0x0978, r28	; 0x800978 <null_device>
    2534:	8e e7       	ldi	r24, 0x7E	; 126
    2536:	99 e0       	ldi	r25, 0x09	; 9
    2538:	0e 94 09 10 	call	0x2012	; 0x2012 <dlist_del.lto_priv.81.lto_priv.96>
    253c:	d0 93 90 09 	sts	0x0990, r29	; 0x800990 <zero_device+0x1>
    2540:	c0 93 8f 09 	sts	0x098F, r28	; 0x80098f <zero_device>
    2544:	85 e9       	ldi	r24, 0x95	; 149
    2546:	99 e0       	ldi	r25, 0x09	; 9
    2548:	0e 94 09 10 	call	0x2012	; 0x2012 <dlist_del.lto_priv.81.lto_priv.96>
    254c:	d0 93 a7 09 	sts	0x09A7, r29	; 0x8009a7 <debug_device+0x1>
    2550:	c0 93 a6 09 	sts	0x09A6, r28	; 0x8009a6 <debug_device>
    2554:	8c ea       	ldi	r24, 0xAC	; 172
    2556:	99 e0       	ldi	r25, 0x09	; 9
    2558:	0e 94 09 10 	call	0x2012	; 0x2012 <dlist_del.lto_priv.81.lto_priv.96>
    255c:	8d eb       	ldi	r24, 0xBD	; 189
    255e:	99 e0       	ldi	r25, 0x09	; 9
    2560:	0e 94 09 10 	call	0x2012	; 0x2012 <dlist_del.lto_priv.81.lto_priv.96>
    2564:	81 ec       	ldi	r24, 0xC1	; 193
    2566:	99 e0       	ldi	r25, 0x09	; 9
    2568:	df 91       	pop	r29
    256a:	cf 91       	pop	r28
    256c:	0c 94 09 10 	jmp	0x2012	; 0x2012 <dlist_del.lto_priv.81.lto_priv.96>

00002570 <_GLOBAL__I_65535_0_main.o.6050>:
    2570:	e1 ec       	ldi	r30, 0xC1	; 193
    2572:	f9 e0       	ldi	r31, 0x09	; 9
    2574:	f3 83       	std	Z+3, r31	; 0x03
    2576:	e2 83       	std	Z+2, r30	; 0x02
    2578:	f1 83       	std	Z+1, r31	; 0x01
    257a:	e0 83       	st	Z, r30
    257c:	ed eb       	ldi	r30, 0xBD	; 189
    257e:	f9 e0       	ldi	r31, 0x09	; 9
    2580:	f3 83       	std	Z+3, r31	; 0x03
    2582:	e2 83       	std	Z+2, r30	; 0x02
    2584:	f1 83       	std	Z+1, r31	; 0x01
    2586:	e0 83       	st	Z, r30
    2588:	e6 ea       	ldi	r30, 0xA6	; 166
    258a:	f9 e0       	ldi	r31, 0x09	; 9
    258c:	8c ea       	ldi	r24, 0xAC	; 172
    258e:	99 e0       	ldi	r25, 0x09	; 9
    2590:	91 87       	std	Z+9, r25	; 0x09
    2592:	80 87       	std	Z+8, r24	; 0x08
    2594:	97 83       	std	Z+7, r25	; 0x07
    2596:	86 83       	std	Z+6, r24	; 0x06
    2598:	84 ef       	ldi	r24, 0xF4	; 244
    259a:	96 e0       	ldi	r25, 0x06	; 6
    259c:	91 83       	std	Z+1, r25	; 0x01
    259e:	80 83       	st	Z, r24
    25a0:	ef e8       	ldi	r30, 0x8F	; 143
    25a2:	f9 e0       	ldi	r31, 0x09	; 9
    25a4:	85 e9       	ldi	r24, 0x95	; 149
    25a6:	99 e0       	ldi	r25, 0x09	; 9
    25a8:	91 87       	std	Z+9, r25	; 0x09
    25aa:	80 87       	std	Z+8, r24	; 0x08
    25ac:	97 83       	std	Z+7, r25	; 0x07
    25ae:	86 83       	std	Z+6, r24	; 0x06
    25b0:	8a ec       	ldi	r24, 0xCA	; 202
    25b2:	96 e0       	ldi	r25, 0x06	; 6
    25b4:	91 83       	std	Z+1, r25	; 0x01
    25b6:	80 83       	st	Z, r24
    25b8:	e8 e7       	ldi	r30, 0x78	; 120
    25ba:	f9 e0       	ldi	r31, 0x09	; 9
    25bc:	8e e7       	ldi	r24, 0x7E	; 126
    25be:	99 e0       	ldi	r25, 0x09	; 9
    25c0:	91 87       	std	Z+9, r25	; 0x09
    25c2:	80 87       	std	Z+8, r24	; 0x08
    25c4:	97 83       	std	Z+7, r25	; 0x07
    25c6:	86 83       	std	Z+6, r24	; 0x06
    25c8:	82 eb       	ldi	r24, 0xB2	; 178
    25ca:	96 e0       	ldi	r25, 0x06	; 6
    25cc:	91 83       	std	Z+1, r25	; 0x01
    25ce:	80 83       	st	Z, r24
    25d0:	88 e0       	ldi	r24, 0x08	; 8
    25d2:	99 e0       	ldi	r25, 0x09	; 9
    25d4:	90 93 09 09 	sts	0x0909, r25	; 0x800909 <vfs_fslist+0x1>
    25d8:	80 93 08 09 	sts	0x0908, r24	; 0x800908 <vfs_fslist>
    25dc:	ef e6       	ldi	r30, 0x6F	; 111
    25de:	f9 e0       	ldi	r31, 0x09	; 9
    25e0:	80 ea       	ldi	r24, 0xA0	; 160
    25e2:	96 e0       	ldi	r25, 0x06	; 6
    25e4:	91 83       	std	Z+1, r25	; 0x01
    25e6:	80 83       	st	Z, r24
    25e8:	80 ec       	ldi	r24, 0xC0	; 192
    25ea:	90 e0       	ldi	r25, 0x00	; 0
    25ec:	97 83       	std	Z+7, r25	; 0x07
    25ee:	86 83       	std	Z+6, r24	; 0x06
    25f0:	88 e1       	ldi	r24, 0x18	; 24
    25f2:	80 87       	std	Z+8, r24	; 0x08
    25f4:	ea e0       	ldi	r30, 0x0A	; 10
    25f6:	f9 e0       	ldi	r31, 0x09	; 9
    25f8:	88 e9       	ldi	r24, 0x98	; 152
    25fa:	96 e0       	ldi	r25, 0x06	; 6
    25fc:	91 83       	std	Z+1, r25	; 0x01
    25fe:	80 83       	st	Z, r24
    2600:	11 8a       	std	Z+17, r1	; 0x11
    2602:	08 95       	ret

00002604 <_ZN4crow13create_packetEPNS_7gatewayEhj.constprop.60>:
    2604:	df 92       	push	r13
    2606:	ef 92       	push	r14
    2608:	ff 92       	push	r15
    260a:	0f 93       	push	r16
    260c:	1f 93       	push	r17
    260e:	cf 93       	push	r28
    2610:	df 93       	push	r29
    2612:	d8 2e       	mov	r13, r24
    2614:	7b 01       	movw	r14, r22
    2616:	0e 94 3e 14 	call	0x287c	; 0x287c <system_lock>
    261a:	0d 2d       	mov	r16, r13
    261c:	10 e0       	ldi	r17, 0x00	; 0
    261e:	c7 01       	movw	r24, r14
    2620:	49 96       	adiw	r24, 0x19	; 25
    2622:	80 0f       	add	r24, r16
    2624:	91 1f       	adc	r25, r17
    2626:	0e 94 49 0b 	call	0x1692	; 0x1692 <malloc>
    262a:	ec 01       	movw	r28, r24
    262c:	0e 94 2f 14 	call	0x285e	; 0x285e <system_unlock>
    2630:	8a e0       	ldi	r24, 0x0A	; 10
    2632:	e8 0e       	add	r14, r24
    2634:	f1 1c       	adc	r15, r1
    2636:	0e 0d       	add	r16, r14
    2638:	1f 1d       	adc	r17, r15
    263a:	19 8b       	std	Y+17, r17	; 0x11
    263c:	08 8b       	std	Y+16, r16	; 0x10
    263e:	da 8a       	std	Y+18, r13	; 0x12
    2640:	88 ec       	ldi	r24, 0xC8	; 200
    2642:	90 e0       	ldi	r25, 0x00	; 0
    2644:	9d 8b       	std	Y+21, r25	; 0x15
    2646:	8c 8b       	std	Y+20, r24	; 0x14
    2648:	1f 86       	std	Y+15, r1	; 0x0f
    264a:	18 8e       	std	Y+24, r1	; 0x18
    264c:	1b 8a       	std	Y+19, r1	; 0x13
    264e:	db 83       	std	Y+3, r29	; 0x03
    2650:	ca 83       	std	Y+2, r28	; 0x02
    2652:	d9 83       	std	Y+1, r29	; 0x01
    2654:	c8 83       	st	Y, r28
    2656:	ce 01       	movw	r24, r28
    2658:	04 96       	adiw	r24, 0x04	; 4
    265a:	9f 83       	std	Y+7, r25	; 0x07
    265c:	8e 83       	std	Y+6, r24	; 0x06
    265e:	9d 83       	std	Y+5, r25	; 0x05
    2660:	8c 83       	std	Y+4, r24	; 0x04
    2662:	19 86       	std	Y+9, r1	; 0x09
    2664:	18 86       	std	Y+8, r1	; 0x08
    2666:	1c 86       	std	Y+12, r1	; 0x0c
    2668:	1e 86       	std	Y+14, r1	; 0x0e
    266a:	ce 01       	movw	r24, r28
    266c:	df 91       	pop	r29
    266e:	cf 91       	pop	r28
    2670:	1f 91       	pop	r17
    2672:	0f 91       	pop	r16
    2674:	ff 90       	pop	r15
    2676:	ef 90       	pop	r14
    2678:	df 90       	pop	r13
    267a:	08 95       	ret

0000267c <debug_writehex_reversed.constprop.52>:
    267c:	ef 92       	push	r14
    267e:	ff 92       	push	r15
    2680:	0f 93       	push	r16
    2682:	1f 93       	push	r17
    2684:	cf 93       	push	r28
    2686:	7c 01       	movw	r14, r24
    2688:	8c 01       	movw	r16, r24
    268a:	0e 5f       	subi	r16, 0xFE	; 254
    268c:	1f 4f       	sbci	r17, 0xFF	; 255
    268e:	e0 16       	cp	r14, r16
    2690:	f1 06       	cpc	r15, r17
    2692:	b9 f0       	breq	.+46     	; 0x26c2 <debug_writehex_reversed.constprop.52+0x46>
    2694:	f8 01       	movw	r30, r16
    2696:	c2 91       	ld	r28, -Z
    2698:	8f 01       	movw	r16, r30
    269a:	8c 2f       	mov	r24, r28
    269c:	82 95       	swap	r24
    269e:	8f 70       	andi	r24, 0x0F	; 15
    26a0:	8a 30       	cpi	r24, 0x0A	; 10
    26a2:	10 f4       	brcc	.+4      	; 0x26a8 <debug_writehex_reversed.constprop.52+0x2c>
    26a4:	80 5d       	subi	r24, 0xD0	; 208
    26a6:	01 c0       	rjmp	.+2      	; 0x26aa <debug_writehex_reversed.constprop.52+0x2e>
    26a8:	89 5c       	subi	r24, 0xC9	; 201
    26aa:	0e 94 60 14 	call	0x28c0	; 0x28c0 <diag_putc>
    26ae:	8c 2f       	mov	r24, r28
    26b0:	8f 70       	andi	r24, 0x0F	; 15
    26b2:	8a 30       	cpi	r24, 0x0A	; 10
    26b4:	10 f4       	brcc	.+4      	; 0x26ba <debug_writehex_reversed.constprop.52+0x3e>
    26b6:	80 5d       	subi	r24, 0xD0	; 208
    26b8:	01 c0       	rjmp	.+2      	; 0x26bc <debug_writehex_reversed.constprop.52+0x40>
    26ba:	89 5c       	subi	r24, 0xC9	; 201
    26bc:	0e 94 60 14 	call	0x28c0	; 0x28c0 <diag_putc>
    26c0:	e6 cf       	rjmp	.-52     	; 0x268e <debug_writehex_reversed.constprop.52+0x12>
    26c2:	cf 91       	pop	r28
    26c4:	1f 91       	pop	r17
    26c6:	0f 91       	pop	r16
    26c8:	ff 90       	pop	r15
    26ca:	ef 90       	pop	r14
    26cc:	08 95       	ret

000026ce <_ZN9avr_usart7irqinitEv.constprop.45>:
    26ce:	fc 01       	movw	r30, r24
    26d0:	20 85       	ldd	r18, Z+8	; 0x08
    26d2:	30 e0       	ldi	r19, 0x00	; 0
    26d4:	46 e0       	ldi	r20, 0x06	; 6
    26d6:	42 9f       	mul	r20, r18
    26d8:	f0 01       	movw	r30, r0
    26da:	43 9f       	mul	r20, r19
    26dc:	f0 0d       	add	r31, r0
    26de:	11 24       	eor	r1, r1
    26e0:	e9 54       	subi	r30, 0x49	; 73
    26e2:	f8 4f       	sbci	r31, 0xF8	; 248
    26e4:	6a e6       	ldi	r22, 0x6A	; 106
    26e6:	79 e0       	ldi	r23, 0x09	; 9
    26e8:	71 83       	std	Z+1, r23	; 0x01
    26ea:	60 83       	st	Z, r22
    26ec:	93 83       	std	Z+3, r25	; 0x03
    26ee:	82 83       	std	Z+2, r24	; 0x02
    26f0:	b9 01       	movw	r22, r18
    26f2:	6f 5f       	subi	r22, 0xFF	; 255
    26f4:	7f 4f       	sbci	r23, 0xFF	; 255
    26f6:	46 9f       	mul	r20, r22
    26f8:	f0 01       	movw	r30, r0
    26fa:	47 9f       	mul	r20, r23
    26fc:	f0 0d       	add	r31, r0
    26fe:	11 24       	eor	r1, r1
    2700:	e9 54       	subi	r30, 0x49	; 73
    2702:	f8 4f       	sbci	r31, 0xF8	; 248
    2704:	6b e5       	ldi	r22, 0x5B	; 91
    2706:	79 e0       	ldi	r23, 0x09	; 9
    2708:	71 83       	std	Z+1, r23	; 0x01
    270a:	60 83       	st	Z, r22
    270c:	93 83       	std	Z+3, r25	; 0x03
    270e:	82 83       	std	Z+2, r24	; 0x02
    2710:	2e 5f       	subi	r18, 0xFE	; 254
    2712:	3f 4f       	sbci	r19, 0xFF	; 255
    2714:	42 9f       	mul	r20, r18
    2716:	f0 01       	movw	r30, r0
    2718:	43 9f       	mul	r20, r19
    271a:	f0 0d       	add	r31, r0
    271c:	11 24       	eor	r1, r1
    271e:	e9 54       	subi	r30, 0x49	; 73
    2720:	f8 4f       	sbci	r31, 0xF8	; 248
    2722:	2c e4       	ldi	r18, 0x4C	; 76
    2724:	39 e0       	ldi	r19, 0x09	; 9
    2726:	31 83       	std	Z+1, r19	; 0x01
    2728:	20 83       	st	Z, r18
    272a:	93 83       	std	Z+3, r25	; 0x03
    272c:	82 83       	std	Z+2, r24	; 0x02
    272e:	80 e0       	ldi	r24, 0x00	; 0
    2730:	90 e0       	ldi	r25, 0x00	; 0
    2732:	08 95       	ret

00002734 <_ZN13crow_uartgate7do_sendEPN4crow6packetE.constprop.20>:
    2734:	0f 93       	push	r16
    2736:	1f 93       	push	r17
    2738:	cf 93       	push	r28
    273a:	df 93       	push	r29
    273c:	ec 01       	movw	r28, r24
    273e:	8b 01       	movw	r16, r22
    2740:	cb 01       	movw	r24, r22
    2742:	0e 94 09 10 	call	0x2012	; 0x2012 <dlist_del.lto_priv.81.lto_priv.96>
    2746:	1e 87       	std	Y+14, r17	; 0x0e
    2748:	0d 87       	std	Y+13, r16	; 0x0d
    274a:	98 01       	movw	r18, r16
    274c:	21 5f       	subi	r18, 0xF1	; 241
    274e:	3f 4f       	sbci	r19, 0xFF	; 255
    2750:	3c 8b       	std	Y+20, r19	; 0x14
    2752:	2b 8b       	std	Y+19, r18	; 0x13
    2754:	d8 01       	movw	r26, r16
    2756:	50 96       	adiw	r26, 0x10	; 16
    2758:	8d 91       	ld	r24, X+
    275a:	9c 91       	ld	r25, X
    275c:	51 97       	sbiw	r26, 0x11	; 17
    275e:	82 0f       	add	r24, r18
    2760:	93 1f       	adc	r25, r19
    2762:	9e 8b       	std	Y+22, r25	; 0x16
    2764:	8d 8b       	std	Y+21, r24	; 0x15
    2766:	8f 81       	ldd	r24, Y+7	; 0x07
    2768:	98 85       	ldd	r25, Y+8	; 0x08
    276a:	dc 01       	movw	r26, r24
    276c:	ed 91       	ld	r30, X+
    276e:	fc 91       	ld	r31, X
    2770:	06 80       	ldd	r0, Z+6	; 0x06
    2772:	f7 81       	ldd	r31, Z+7	; 0x07
    2774:	e0 2d       	mov	r30, r0
    2776:	6c ea       	ldi	r22, 0xAC	; 172
    2778:	7f ef       	ldi	r23, 0xFF	; 255
    277a:	19 95       	eicall
    277c:	8f ef       	ldi	r24, 0xFF	; 255
    277e:	8a 8b       	std	Y+18, r24	; 0x12
    2780:	19 8a       	std	Y+17, r1	; 0x11
    2782:	8f 81       	ldd	r24, Y+7	; 0x07
    2784:	98 85       	ldd	r25, Y+8	; 0x08
    2786:	dc 01       	movw	r26, r24
    2788:	ed 91       	ld	r30, X+
    278a:	fc 91       	ld	r31, X
    278c:	02 80       	ldd	r0, Z+2	; 0x02
    278e:	f3 81       	ldd	r31, Z+3	; 0x03
    2790:	e0 2d       	mov	r30, r0
    2792:	61 e0       	ldi	r22, 0x01	; 1
    2794:	df 91       	pop	r29
    2796:	cf 91       	pop	r28
    2798:	1f 91       	pop	r17
    279a:	0f 91       	pop	r16
    279c:	19 94       	eijmp

0000279e <_ZN3gxx6tracerD2Ev.constprop.72>:
    279e:	cf 93       	push	r28
    27a0:	df 93       	push	r29
    27a2:	ec 01       	movw	r28, r24
    27a4:	80 91 07 09 	lds	r24, 0x0907	; 0x800907 <trace_level>
    27a8:	81 50       	subi	r24, 0x01	; 1
    27aa:	80 93 07 09 	sts	0x0907, r24	; 0x800907 <trace_level>
    27ae:	83 e3       	ldi	r24, 0x33	; 51
    27b0:	92 e0       	ldi	r25, 0x02	; 2
    27b2:	0e 94 89 14 	call	0x2912	; 0x2912 <debug_print>
    27b6:	20 91 07 09 	lds	r18, 0x0907	; 0x800907 <trace_level>
    27ba:	30 e0       	ldi	r19, 0x00	; 0
    27bc:	40 e0       	ldi	r20, 0x00	; 0
    27be:	50 e0       	ldi	r21, 0x00	; 0
    27c0:	60 e0       	ldi	r22, 0x00	; 0
    27c2:	70 e0       	ldi	r23, 0x00	; 0
    27c4:	80 e0       	ldi	r24, 0x00	; 0
    27c6:	90 e0       	ldi	r25, 0x00	; 0
    27c8:	0e 94 bb 14 	call	0x2976	; 0x2976 <debug_printdec_uint64>
    27cc:	84 e2       	ldi	r24, 0x24	; 36
    27ce:	96 e0       	ldi	r25, 0x06	; 6
    27d0:	0e 94 89 14 	call	0x2912	; 0x2912 <debug_print>
    27d4:	88 81       	ld	r24, Y
    27d6:	99 81       	ldd	r25, Y+1	; 0x01
    27d8:	0e 94 89 14 	call	0x2912	; 0x2912 <debug_print>
    27dc:	df 91       	pop	r29
    27de:	cf 91       	pop	r28
    27e0:	0c 94 ca 0b 	jmp	0x1794	; 0x1794 <debug_print_newline.lto_priv.103.lto_priv.106>

000027e4 <system_tick>:
    27e4:	20 91 a7 07 	lds	r18, 0x07A7	; 0x8007a7 <__jiffies>
    27e8:	30 91 a8 07 	lds	r19, 0x07A8	; 0x8007a8 <__jiffies+0x1>
    27ec:	40 91 a9 07 	lds	r20, 0x07A9	; 0x8007a9 <__jiffies+0x2>
    27f0:	50 91 aa 07 	lds	r21, 0x07AA	; 0x8007aa <__jiffies+0x3>
    27f4:	60 91 ab 07 	lds	r22, 0x07AB	; 0x8007ab <__jiffies+0x4>
    27f8:	70 91 ac 07 	lds	r23, 0x07AC	; 0x8007ac <__jiffies+0x5>
    27fc:	80 91 ad 07 	lds	r24, 0x07AD	; 0x8007ad <__jiffies+0x6>
    2800:	90 91 ae 07 	lds	r25, 0x07AE	; 0x8007ae <__jiffies+0x7>
    2804:	a1 e0       	ldi	r26, 0x01	; 1
    2806:	0e 94 68 19 	call	0x32d0	; 0x32d0 <__adddi3_s8>
    280a:	20 93 a7 07 	sts	0x07A7, r18	; 0x8007a7 <__jiffies>
    280e:	30 93 a8 07 	sts	0x07A8, r19	; 0x8007a8 <__jiffies+0x1>
    2812:	40 93 a9 07 	sts	0x07A9, r20	; 0x8007a9 <__jiffies+0x2>
    2816:	50 93 aa 07 	sts	0x07AA, r21	; 0x8007aa <__jiffies+0x3>
    281a:	60 93 ab 07 	sts	0x07AB, r22	; 0x8007ab <__jiffies+0x4>
    281e:	70 93 ac 07 	sts	0x07AC, r23	; 0x8007ac <__jiffies+0x5>
    2822:	80 93 ad 07 	sts	0x07AD, r24	; 0x8007ad <__jiffies+0x6>
    2826:	90 93 ae 07 	sts	0x07AE, r25	; 0x8007ae <__jiffies+0x7>
    282a:	08 95       	ret

0000282c <usart0_diag_putchar>:
    282c:	9f b7       	in	r25, 0x3f	; 63
    282e:	f8 94       	cli
    2830:	80 91 c0 00 	lds	r24, 0x00C0	; 0x8000c0 <_etext+0x7fcd7e>
    2834:	80 64       	ori	r24, 0x40	; 64
    2836:	80 93 c0 00 	sts	0x00C0, r24	; 0x8000c0 <_etext+0x7fcd7e>
    283a:	80 91 c0 00 	lds	r24, 0x00C0	; 0x8000c0 <_etext+0x7fcd7e>
    283e:	85 ff       	sbrs	r24, 5
    2840:	fc cf       	rjmp	.-8      	; 0x283a <usart0_diag_putchar+0xe>
    2842:	60 93 c6 00 	sts	0x00C6, r22	; 0x8000c6 <_etext+0x7fcd84>
    2846:	80 91 c0 00 	lds	r24, 0x00C0	; 0x8000c0 <_etext+0x7fcd7e>
    284a:	86 ff       	sbrs	r24, 6
    284c:	fc cf       	rjmp	.-8      	; 0x2846 <usart0_diag_putchar+0x1a>
    284e:	9f bf       	out	0x3f, r25	; 63
    2850:	80 e0       	ldi	r24, 0x00	; 0
    2852:	90 e0       	ldi	r25, 0x00	; 0
    2854:	08 95       	ret

00002856 <do_nothing>:
    2856:	08 95       	ret

00002858 <end_of_programm>:
    2858:	8f b7       	in	r24, 0x3f	; 63
    285a:	f8 94       	cli
    285c:	ff cf       	rjmp	.-2      	; 0x285c <end_of_programm+0x4>

0000285e <system_unlock>:
    285e:	80 91 c8 09 	lds	r24, 0x09C8	; 0x8009c8 <_ZL5count>
    2862:	90 91 c9 09 	lds	r25, 0x09C9	; 0x8009c9 <_ZL5count+0x1>
    2866:	01 97       	sbiw	r24, 0x01	; 1
    2868:	90 93 c9 09 	sts	0x09C9, r25	; 0x8009c9 <_ZL5count+0x1>
    286c:	80 93 c8 09 	sts	0x09C8, r24	; 0x8009c8 <_ZL5count>
    2870:	89 2b       	or	r24, r25
    2872:	19 f4       	brne	.+6      	; 0x287a <system_unlock+0x1c>
    2874:	80 91 c7 09 	lds	r24, 0x09C7	; 0x8009c7 <_ZL4save>
    2878:	8f bf       	out	0x3f, r24	; 63
    287a:	08 95       	ret

0000287c <system_lock>:
    287c:	80 91 c8 09 	lds	r24, 0x09C8	; 0x8009c8 <_ZL5count>
    2880:	90 91 c9 09 	lds	r25, 0x09C9	; 0x8009c9 <_ZL5count+0x1>
    2884:	89 2b       	or	r24, r25
    2886:	21 f4       	brne	.+8      	; 0x2890 <system_lock+0x14>
    2888:	8f b7       	in	r24, 0x3f	; 63
    288a:	f8 94       	cli
    288c:	80 93 c7 09 	sts	0x09C7, r24	; 0x8009c7 <_ZL4save>
    2890:	80 91 c8 09 	lds	r24, 0x09C8	; 0x8009c8 <_ZL5count>
    2894:	90 91 c9 09 	lds	r25, 0x09C9	; 0x8009c9 <_ZL5count+0x1>
    2898:	01 96       	adiw	r24, 0x01	; 1
    289a:	90 93 c9 09 	sts	0x09C9, r25	; 0x8009c9 <_ZL5count+0x1>
    289e:	80 93 c8 09 	sts	0x09C8, r24	; 0x8009c8 <_ZL5count>
    28a2:	08 95       	ret

000028a4 <diag_write>:
    28a4:	ab 01       	movw	r20, r22
    28a6:	e0 91 2b 02 	lds	r30, 0x022B	; 0x80022b <current_diag_ops>
    28aa:	f0 91 2c 02 	lds	r31, 0x022C	; 0x80022c <current_diag_ops+0x1>
    28ae:	04 80       	ldd	r0, Z+4	; 0x04
    28b0:	f5 81       	ldd	r31, Z+5	; 0x05
    28b2:	e0 2d       	mov	r30, r0
    28b4:	bc 01       	movw	r22, r24
    28b6:	80 91 c5 09 	lds	r24, 0x09C5	; 0x8009c5 <current_diag_priv>
    28ba:	90 91 c6 09 	lds	r25, 0x09C6	; 0x8009c6 <current_diag_priv+0x1>
    28be:	19 94       	eijmp

000028c0 <diag_putc>:
    28c0:	e0 91 2b 02 	lds	r30, 0x022B	; 0x80022b <current_diag_ops>
    28c4:	f0 91 2c 02 	lds	r31, 0x022C	; 0x80022c <current_diag_ops+0x1>
    28c8:	01 90       	ld	r0, Z+
    28ca:	f0 81       	ld	r31, Z
    28cc:	e0 2d       	mov	r30, r0
    28ce:	68 2f       	mov	r22, r24
    28d0:	80 91 c5 09 	lds	r24, 0x09C5	; 0x8009c5 <current_diag_priv>
    28d4:	90 91 c6 09 	lds	r25, 0x09C6	; 0x8009c6 <current_diag_priv+0x1>
    28d8:	19 94       	eijmp

000028da <debug_print_newline.lto_priv.101.lto_priv.109>:
    28da:	8d e0       	ldi	r24, 0x0D	; 13
    28dc:	0e 94 60 14 	call	0x28c0	; 0x28c0 <diag_putc>
    28e0:	8a e0       	ldi	r24, 0x0A	; 10
    28e2:	0c 94 60 14 	jmp	0x28c0	; 0x28c0 <diag_putc>

000028e6 <diag_write_stub>:
    28e6:	0f 93       	push	r16
    28e8:	1f 93       	push	r17
    28ea:	cf 93       	push	r28
    28ec:	df 93       	push	r29
    28ee:	eb 01       	movw	r28, r22
    28f0:	8b 01       	movw	r16, r22
    28f2:	04 0f       	add	r16, r20
    28f4:	15 1f       	adc	r17, r21
    28f6:	c0 17       	cp	r28, r16
    28f8:	d1 07       	cpc	r29, r17
    28fa:	21 f0       	breq	.+8      	; 0x2904 <diag_write_stub+0x1e>
    28fc:	89 91       	ld	r24, Y+
    28fe:	0e 94 60 14 	call	0x28c0	; 0x28c0 <diag_putc>
    2902:	f9 cf       	rjmp	.-14     	; 0x28f6 <diag_write_stub+0x10>
    2904:	80 e0       	ldi	r24, 0x00	; 0
    2906:	90 e0       	ldi	r25, 0x00	; 0
    2908:	df 91       	pop	r29
    290a:	cf 91       	pop	r28
    290c:	1f 91       	pop	r17
    290e:	0f 91       	pop	r16
    2910:	08 95       	ret

00002912 <debug_print>:
    2912:	00 97       	sbiw	r24, 0x00	; 0
    2914:	11 f0       	breq	.+4      	; 0x291a <debug_print+0x8>
    2916:	fc 01       	movw	r30, r24
    2918:	0c c0       	rjmp	.+24     	; 0x2932 <debug_print+0x20>
    291a:	8e e4       	ldi	r24, 0x4E	; 78
    291c:	0e 94 60 14 	call	0x28c0	; 0x28c0 <diag_putc>
    2920:	85 e5       	ldi	r24, 0x55	; 85
    2922:	0e 94 60 14 	call	0x28c0	; 0x28c0 <diag_putc>
    2926:	8c e4       	ldi	r24, 0x4C	; 76
    2928:	0e 94 60 14 	call	0x28c0	; 0x28c0 <diag_putc>
    292c:	8c e4       	ldi	r24, 0x4C	; 76
    292e:	0c 94 60 14 	jmp	0x28c0	; 0x28c0 <diag_putc>
    2932:	bf 01       	movw	r22, r30
    2934:	68 1b       	sub	r22, r24
    2936:	79 0b       	sbc	r23, r25
    2938:	21 91       	ld	r18, Z+
    293a:	21 11       	cpse	r18, r1
    293c:	fa cf       	rjmp	.-12     	; 0x2932 <debug_print+0x20>
    293e:	0c 94 52 14 	jmp	0x28a4	; 0x28a4 <diag_write>

00002942 <irq_stub>:
    2942:	cf 93       	push	r28
    2944:	df 93       	push	r29
    2946:	1f 92       	push	r1
    2948:	1f 92       	push	r1
    294a:	cd b7       	in	r28, 0x3d	; 61
    294c:	de b7       	in	r29, 0x3e	; 62
    294e:	8c 01       	movw	r16, r24
    2950:	8f b7       	in	r24, 0x3f	; 63
    2952:	f8 94       	cli
    2954:	88 e0       	ldi	r24, 0x08	; 8
    2956:	97 e0       	ldi	r25, 0x07	; 7
    2958:	0e 94 89 14 	call	0x2912	; 0x2912 <debug_print>
    295c:	1a 83       	std	Y+2, r17	; 0x02
    295e:	09 83       	std	Y+1, r16	; 0x01
    2960:	ce 01       	movw	r24, r28
    2962:	01 96       	adiw	r24, 0x01	; 1
    2964:	0e 94 3e 13 	call	0x267c	; 0x267c <debug_writehex_reversed.constprop.52>
    2968:	87 ed       	ldi	r24, 0xD7	; 215
    296a:	94 e0       	ldi	r25, 0x04	; 4
    296c:	0e 94 89 14 	call	0x2912	; 0x2912 <debug_print>
    2970:	0e 94 6d 14 	call	0x28da	; 0x28da <debug_print_newline.lto_priv.101.lto_priv.109>
    2974:	ff cf       	rjmp	.-2      	; 0x2974 <irq_stub+0x32>

00002976 <debug_printdec_uint64>:
    2976:	2f 92       	push	r2
    2978:	3f 92       	push	r3
    297a:	4f 92       	push	r4
    297c:	5f 92       	push	r5
    297e:	6f 92       	push	r6
    2980:	7f 92       	push	r7
    2982:	8f 92       	push	r8
    2984:	9f 92       	push	r9
    2986:	af 92       	push	r10
    2988:	bf 92       	push	r11
    298a:	cf 92       	push	r12
    298c:	df 92       	push	r13
    298e:	ef 92       	push	r14
    2990:	ff 92       	push	r15
    2992:	0f 93       	push	r16
    2994:	1f 93       	push	r17
    2996:	cf 93       	push	r28
    2998:	df 93       	push	r29
    299a:	cd b7       	in	r28, 0x3d	; 61
    299c:	de b7       	in	r29, 0x3e	; 62
    299e:	6a 97       	sbiw	r28, 0x1a	; 26
    29a0:	0f b6       	in	r0, 0x3f	; 63
    29a2:	f8 94       	cli
    29a4:	de bf       	out	0x3e, r29	; 62
    29a6:	0f be       	out	0x3f, r0	; 63
    29a8:	cd bf       	out	0x3d, r28	; 61
    29aa:	29 01       	movw	r4, r18
    29ac:	3a 01       	movw	r6, r20
    29ae:	4b 01       	movw	r8, r22
    29b0:	1c 01       	movw	r2, r24
    29b2:	a0 e0       	ldi	r26, 0x00	; 0
    29b4:	0e 94 86 19 	call	0x330c	; 0x330c <__cmpdi2_s8>
    29b8:	19 f4       	brne	.+6      	; 0x29c0 <debug_printdec_uint64+0x4a>
    29ba:	80 e3       	ldi	r24, 0x30	; 48
    29bc:	0e 94 60 14 	call	0x28c0	; 0x28c0 <diag_putc>
    29c0:	18 8e       	std	Y+24, r1	; 0x18
    29c2:	ce 01       	movw	r24, r28
    29c4:	48 96       	adiw	r24, 0x18	; 24
    29c6:	9a 8f       	std	Y+26, r25	; 0x1a
    29c8:	89 8f       	std	Y+25, r24	; 0x19
    29ca:	92 01       	movw	r18, r4
    29cc:	a3 01       	movw	r20, r6
    29ce:	b4 01       	movw	r22, r8
    29d0:	c1 01       	movw	r24, r2
    29d2:	a0 e0       	ldi	r26, 0x00	; 0
    29d4:	0e 94 86 19 	call	0x330c	; 0x330c <__cmpdi2_s8>
    29d8:	01 f1       	breq	.+64     	; 0x2a1a <debug_printdec_uint64+0xa4>
    29da:	8a e0       	ldi	r24, 0x0A	; 10
    29dc:	a8 2e       	mov	r10, r24
    29de:	b1 2c       	mov	r11, r1
    29e0:	c1 2c       	mov	r12, r1
    29e2:	d1 2c       	mov	r13, r1
    29e4:	e1 2c       	mov	r14, r1
    29e6:	f1 2c       	mov	r15, r1
    29e8:	00 e0       	ldi	r16, 0x00	; 0
    29ea:	10 e0       	ldi	r17, 0x00	; 0
    29ec:	92 01       	movw	r18, r4
    29ee:	a3 01       	movw	r20, r6
    29f0:	b4 01       	movw	r22, r8
    29f2:	c1 01       	movw	r24, r2
    29f4:	0e 94 b9 18 	call	0x3172	; 0x3172 <__umoddi3>
    29f8:	20 5d       	subi	r18, 0xD0	; 208
    29fa:	e9 8d       	ldd	r30, Y+25	; 0x19
    29fc:	fa 8d       	ldd	r31, Y+26	; 0x1a
    29fe:	22 93       	st	-Z, r18
    2a00:	fa 8f       	std	Y+26, r31	; 0x1a
    2a02:	e9 8f       	std	Y+25, r30	; 0x19
    2a04:	92 01       	movw	r18, r4
    2a06:	a3 01       	movw	r20, r6
    2a08:	b4 01       	movw	r22, r8
    2a0a:	c1 01       	movw	r24, r2
    2a0c:	0e 94 bb 18 	call	0x3176	; 0x3176 <__udivdi3>
    2a10:	29 01       	movw	r4, r18
    2a12:	3a 01       	movw	r6, r20
    2a14:	4b 01       	movw	r8, r22
    2a16:	1c 01       	movw	r2, r24
    2a18:	d8 cf       	rjmp	.-80     	; 0x29ca <debug_printdec_uint64+0x54>
    2a1a:	89 8d       	ldd	r24, Y+25	; 0x19
    2a1c:	9a 8d       	ldd	r25, Y+26	; 0x1a
    2a1e:	0e 94 89 14 	call	0x2912	; 0x2912 <debug_print>
    2a22:	6a 96       	adiw	r28, 0x1a	; 26
    2a24:	0f b6       	in	r0, 0x3f	; 63
    2a26:	f8 94       	cli
    2a28:	de bf       	out	0x3e, r29	; 62
    2a2a:	0f be       	out	0x3f, r0	; 63
    2a2c:	cd bf       	out	0x3d, r28	; 61
    2a2e:	df 91       	pop	r29
    2a30:	cf 91       	pop	r28
    2a32:	1f 91       	pop	r17
    2a34:	0f 91       	pop	r16
    2a36:	ff 90       	pop	r15
    2a38:	ef 90       	pop	r14
    2a3a:	df 90       	pop	r13
    2a3c:	cf 90       	pop	r12
    2a3e:	bf 90       	pop	r11
    2a40:	af 90       	pop	r10
    2a42:	9f 90       	pop	r9
    2a44:	8f 90       	pop	r8
    2a46:	7f 90       	pop	r7
    2a48:	6f 90       	pop	r6
    2a4a:	5f 90       	pop	r5
    2a4c:	4f 90       	pop	r4
    2a4e:	3f 90       	pop	r3
    2a50:	2f 90       	pop	r2
    2a52:	08 95       	ret

00002a54 <debug_printdec_int16>:
    2a54:	cf 92       	push	r12
    2a56:	df 92       	push	r13
    2a58:	ef 92       	push	r14
    2a5a:	ff 92       	push	r15
    2a5c:	0f 93       	push	r16
    2a5e:	1f 93       	push	r17
    2a60:	cf 93       	push	r28
    2a62:	df 93       	push	r29
    2a64:	e8 2e       	mov	r14, r24
    2a66:	d9 2f       	mov	r29, r25
    2a68:	c9 2f       	mov	r28, r25
    2a6a:	cc 0f       	add	r28, r28
    2a6c:	cc 0b       	sbc	r28, r28
    2a6e:	fc 2e       	mov	r15, r28
    2a70:	0c 2f       	mov	r16, r28
    2a72:	1c 2f       	mov	r17, r28
    2a74:	cc 2e       	mov	r12, r28
    2a76:	dc 2e       	mov	r13, r28
    2a78:	28 2f       	mov	r18, r24
    2a7a:	39 2f       	mov	r19, r25
    2a7c:	4c 2f       	mov	r20, r28
    2a7e:	5c 2f       	mov	r21, r28
    2a80:	6c 2f       	mov	r22, r28
    2a82:	7c 2f       	mov	r23, r28
    2a84:	8c 2f       	mov	r24, r28
    2a86:	9c 2f       	mov	r25, r28
    2a88:	a0 e0       	ldi	r26, 0x00	; 0
    2a8a:	0e 94 86 19 	call	0x330c	; 0x330c <__cmpdi2_s8>
    2a8e:	5c f4       	brge	.+22     	; 0x2aa6 <debug_printdec_int16+0x52>
    2a90:	0e 94 18 19 	call	0x3230	; 0x3230 <__negdi2>
    2a94:	e2 2e       	mov	r14, r18
    2a96:	d3 2f       	mov	r29, r19
    2a98:	c4 2f       	mov	r28, r20
    2a9a:	f5 2e       	mov	r15, r21
    2a9c:	8b 01       	movw	r16, r22
    2a9e:	6c 01       	movw	r12, r24
    2aa0:	8d e2       	ldi	r24, 0x2D	; 45
    2aa2:	0e 94 60 14 	call	0x28c0	; 0x28c0 <diag_putc>
    2aa6:	2e 2d       	mov	r18, r14
    2aa8:	3d 2f       	mov	r19, r29
    2aaa:	4c 2f       	mov	r20, r28
    2aac:	5f 2d       	mov	r21, r15
    2aae:	b8 01       	movw	r22, r16
    2ab0:	c6 01       	movw	r24, r12
    2ab2:	df 91       	pop	r29
    2ab4:	cf 91       	pop	r28
    2ab6:	1f 91       	pop	r17
    2ab8:	0f 91       	pop	r16
    2aba:	ff 90       	pop	r15
    2abc:	ef 90       	pop	r14
    2abe:	df 90       	pop	r13
    2ac0:	cf 90       	pop	r12
    2ac2:	0c 94 bb 14 	jmp	0x2976	; 0x2976 <debug_printdec_uint64>

00002ac6 <__displace__>:
    2ac6:	0f 93       	push	r16
    2ac8:	1f 93       	push	r17
    2aca:	cf 93       	push	r28
    2acc:	df 93       	push	r29
    2ace:	1f 92       	push	r1
    2ad0:	1f 92       	push	r1
    2ad2:	cd b7       	in	r28, 0x3d	; 61
    2ad4:	de b7       	in	r29, 0x3e	; 62
    2ad6:	65 e6       	ldi	r22, 0x65	; 101
    2ad8:	77 e0       	ldi	r23, 0x07	; 7
    2ada:	ce 01       	movw	r24, r28
    2adc:	01 96       	adiw	r24, 0x01	; 1
    2ade:	0e 94 72 04 	call	0x8e4	; 0x8e4 <_ZN3gxx6tracerC1EPKc>
    2ae2:	0e 94 ca 0b 	call	0x1794	; 0x1794 <debug_print_newline.lto_priv.103.lto_priv.106>
    2ae6:	80 91 af 07 	lds	r24, 0x07AF	; 0x8007af <__current_schedee>
    2aea:	90 91 b0 07 	lds	r25, 0x07B0	; 0x8007b0 <__current_schedee+0x1>
    2aee:	dc 01       	movw	r26, r24
    2af0:	18 96       	adiw	r26, 0x08	; 8
    2af2:	2c 91       	ld	r18, X
    2af4:	18 97       	sbiw	r26, 0x08	; 8
    2af6:	21 ff       	sbrs	r18, 1
    2af8:	0b c0       	rjmp	.+22     	; 0x2b10 <__displace__+0x4a>
    2afa:	57 96       	adiw	r26, 0x17	; 23
    2afc:	ed 91       	ld	r30, X+
    2afe:	fc 91       	ld	r31, X
    2b00:	58 97       	sbiw	r26, 0x18	; 24
    2b02:	02 80       	ldd	r0, Z+2	; 0x02
    2b04:	f3 81       	ldd	r31, Z+3	; 0x03
    2b06:	e0 2d       	mov	r30, r0
    2b08:	19 95       	eicall
    2b0a:	00 e0       	ldi	r16, 0x00	; 0
    2b0c:	10 e0       	ldi	r17, 0x00	; 0
    2b0e:	02 c0       	rjmp	.+4      	; 0x2b14 <__displace__+0x4e>
    2b10:	0f ef       	ldi	r16, 0xFF	; 255
    2b12:	1f ef       	ldi	r17, 0xFF	; 255
    2b14:	ce 01       	movw	r24, r28
    2b16:	01 96       	adiw	r24, 0x01	; 1
    2b18:	0e 94 cf 13 	call	0x279e	; 0x279e <_ZN3gxx6tracerD2Ev.constprop.72>
    2b1c:	c8 01       	movw	r24, r16
    2b1e:	0f 90       	pop	r0
    2b20:	0f 90       	pop	r0
    2b22:	df 91       	pop	r29
    2b24:	cf 91       	pop	r28
    2b26:	1f 91       	pop	r17
    2b28:	0f 91       	pop	r16
    2b2a:	08 95       	ret

00002b2c <schedee_run>:
    2b2c:	0f 93       	push	r16
    2b2e:	1f 93       	push	r17
    2b30:	cf 93       	push	r28
    2b32:	df 93       	push	r29
    2b34:	1f 92       	push	r1
    2b36:	1f 92       	push	r1
    2b38:	cd b7       	in	r28, 0x3d	; 61
    2b3a:	de b7       	in	r29, 0x3e	; 62
    2b3c:	8c 01       	movw	r16, r24
    2b3e:	62 e1       	ldi	r22, 0x12	; 18
    2b40:	77 e0       	ldi	r23, 0x07	; 7
    2b42:	ce 01       	movw	r24, r28
    2b44:	01 96       	adiw	r24, 0x01	; 1
    2b46:	0e 94 72 04 	call	0x8e4	; 0x8e4 <_ZN3gxx6tracerC1EPKc>
    2b4a:	0e 94 ca 0b 	call	0x1794	; 0x1794 <debug_print_newline.lto_priv.103.lto_priv.106>
    2b4e:	d8 01       	movw	r26, r16
    2b50:	17 96       	adiw	r26, 0x07	; 7
    2b52:	1c 92       	st	X, r1
    2b54:	0e 94 3e 14 	call	0x287c	; 0x287c <system_lock>
    2b58:	f8 01       	movw	r30, r16
    2b5a:	46 81       	ldd	r20, Z+6	; 0x06
    2b5c:	c8 01       	movw	r24, r16
    2b5e:	02 96       	adiw	r24, 0x02	; 2
    2b60:	22 81       	ldd	r18, Z+2	; 0x02
    2b62:	33 81       	ldd	r19, Z+3	; 0x03
    2b64:	a4 81       	ldd	r26, Z+4	; 0x04
    2b66:	b5 81       	ldd	r27, Z+5	; 0x05
    2b68:	f9 01       	movw	r30, r18
    2b6a:	b3 83       	std	Z+3, r27	; 0x03
    2b6c:	a2 83       	std	Z+2, r26	; 0x02
    2b6e:	2d 93       	st	X+, r18
    2b70:	3c 93       	st	X, r19
    2b72:	24 e0       	ldi	r18, 0x04	; 4
    2b74:	42 9f       	mul	r20, r18
    2b76:	f0 01       	movw	r30, r0
    2b78:	11 24       	eor	r1, r1
    2b7a:	e5 53       	subi	r30, 0x35	; 53
    2b7c:	f6 4f       	sbci	r31, 0xF6	; 246
    2b7e:	20 81       	ld	r18, Z
    2b80:	31 81       	ldd	r19, Z+1	; 0x01
    2b82:	d8 01       	movw	r26, r16
    2b84:	15 96       	adiw	r26, 0x05	; 5
    2b86:	fc 93       	st	X, r31
    2b88:	ee 93       	st	-X, r30
    2b8a:	14 97       	sbiw	r26, 0x04	; 4
    2b8c:	13 96       	adiw	r26, 0x03	; 3
    2b8e:	3c 93       	st	X, r19
    2b90:	2e 93       	st	-X, r18
    2b92:	12 97       	sbiw	r26, 0x02	; 2
    2b94:	d9 01       	movw	r26, r18
    2b96:	13 96       	adiw	r26, 0x03	; 3
    2b98:	9c 93       	st	X, r25
    2b9a:	8e 93       	st	-X, r24
    2b9c:	12 97       	sbiw	r26, 0x02	; 2
    2b9e:	91 83       	std	Z+1, r25	; 0x01
    2ba0:	80 83       	st	Z, r24
    2ba2:	0e 94 2f 14 	call	0x285e	; 0x285e <system_unlock>
    2ba6:	ce 01       	movw	r24, r28
    2ba8:	01 96       	adiw	r24, 0x01	; 1
    2baa:	0e 94 cf 13 	call	0x279e	; 0x279e <_ZN3gxx6tracerD2Ev.constprop.72>
    2bae:	0f 90       	pop	r0
    2bb0:	0f 90       	pop	r0
    2bb2:	df 91       	pop	r29
    2bb4:	cf 91       	pop	r28
    2bb6:	1f 91       	pop	r17
    2bb8:	0f 91       	pop	r16
    2bba:	08 95       	ret

00002bbc <schedee_manager>:
    2bbc:	0f 93       	push	r16
    2bbe:	1f 93       	push	r17
    2bc0:	cf 93       	push	r28
    2bc2:	df 93       	push	r29
    2bc4:	00 d0       	rcall	.+0      	; 0x2bc6 <schedee_manager+0xa>
    2bc6:	1f 92       	push	r1
    2bc8:	cd b7       	in	r28, 0x3d	; 61
    2bca:	de b7       	in	r29, 0x3e	; 62
    2bcc:	6e e4       	ldi	r22, 0x4E	; 78
    2bce:	77 e0       	ldi	r23, 0x07	; 7
    2bd0:	ce 01       	movw	r24, r28
    2bd2:	03 96       	adiw	r24, 0x03	; 3
    2bd4:	0e 94 72 04 	call	0x8e4	; 0x8e4 <_ZN3gxx6tracerC1EPKc>
    2bd8:	0e 94 ca 0b 	call	0x1794	; 0x1794 <debug_print_newline.lto_priv.103.lto_priv.106>
    2bdc:	00 91 13 02 	lds	r16, 0x0213	; 0x800213 <finallist>
    2be0:	10 91 14 02 	lds	r17, 0x0214	; 0x800214 <finallist+0x1>
    2be4:	82 e0       	ldi	r24, 0x02	; 2
    2be6:	03 31       	cpi	r16, 0x13	; 19
    2be8:	18 07       	cpc	r17, r24
    2bea:	d1 f0       	breq	.+52     	; 0x2c20 <schedee_manager+0x64>
    2bec:	c8 01       	movw	r24, r16
    2bee:	0e 94 09 10 	call	0x2012	; 0x2012 <dlist_del.lto_priv.81.lto_priv.96>
    2bf2:	d8 01       	movw	r26, r16
    2bf4:	9e 91       	ld	r25, -X
    2bf6:	8e 91       	ld	r24, -X
    2bf8:	8d 01       	movw	r16, r26
    2bfa:	00 97       	sbiw	r24, 0x00	; 0
    2bfc:	31 f0       	breq	.+12     	; 0x2c0a <schedee_manager+0x4e>
    2bfe:	fc 01       	movw	r30, r24
    2c00:	27 81       	ldd	r18, Z+7	; 0x07
    2c02:	26 30       	cpi	r18, 0x06	; 6
    2c04:	11 f4       	brne	.+4      	; 0x2c0a <schedee_manager+0x4e>
    2c06:	0e 94 96 15 	call	0x2b2c	; 0x2b2c <schedee_run>
    2c0a:	d8 01       	movw	r26, r16
    2c0c:	57 96       	adiw	r26, 0x17	; 23
    2c0e:	ed 91       	ld	r30, X+
    2c10:	fc 91       	ld	r31, X
    2c12:	58 97       	sbiw	r26, 0x18	; 24
    2c14:	04 80       	ldd	r0, Z+4	; 0x04
    2c16:	f5 81       	ldd	r31, Z+5	; 0x05
    2c18:	e0 2d       	mov	r30, r0
    2c1a:	c8 01       	movw	r24, r16
    2c1c:	19 95       	eicall
    2c1e:	de cf       	rjmp	.-68     	; 0x2bdc <schedee_manager+0x20>
    2c20:	0e 94 3e 14 	call	0x287c	; 0x287c <system_lock>
    2c24:	2b ec       	ldi	r18, 0xCB	; 203
    2c26:	39 e0       	ldi	r19, 0x09	; 9
    2c28:	80 e0       	ldi	r24, 0x00	; 0
    2c2a:	90 e0       	ldi	r25, 0x00	; 0
    2c2c:	f9 01       	movw	r30, r18
    2c2e:	a0 81       	ld	r26, Z
    2c30:	b1 81       	ldd	r27, Z+1	; 0x01
    2c32:	2a 17       	cp	r18, r26
    2c34:	3b 07       	cpc	r19, r27
    2c36:	09 f4       	brne	.+2      	; 0x2c3a <schedee_manager+0x7e>
    2c38:	49 c0       	rjmp	.+146    	; 0x2ccc <schedee_manager+0x110>
    2c3a:	8d 01       	movw	r16, r26
    2c3c:	02 50       	subi	r16, 0x02	; 2
    2c3e:	11 09       	sbc	r17, r1
    2c40:	4d 91       	ld	r20, X+
    2c42:	5c 91       	ld	r21, X
    2c44:	11 97       	sbiw	r26, 0x01	; 1
    2c46:	12 96       	adiw	r26, 0x02	; 2
    2c48:	6d 91       	ld	r22, X+
    2c4a:	7c 91       	ld	r23, X
    2c4c:	13 97       	sbiw	r26, 0x03	; 3
    2c4e:	fa 01       	movw	r30, r20
    2c50:	73 83       	std	Z+3, r23	; 0x03
    2c52:	62 83       	std	Z+2, r22	; 0x02
    2c54:	fb 01       	movw	r30, r22
    2c56:	51 83       	std	Z+1, r21	; 0x01
    2c58:	40 83       	st	Z, r20
    2c5a:	88 0f       	add	r24, r24
    2c5c:	99 1f       	adc	r25, r25
    2c5e:	88 0f       	add	r24, r24
    2c60:	99 1f       	adc	r25, r25
    2c62:	fc 01       	movw	r30, r24
    2c64:	e5 53       	subi	r30, 0x35	; 53
    2c66:	f6 4f       	sbci	r31, 0xF6	; 246
    2c68:	82 81       	ldd	r24, Z+2	; 0x02
    2c6a:	93 81       	ldd	r25, Z+3	; 0x03
    2c6c:	13 96       	adiw	r26, 0x03	; 3
    2c6e:	9c 93       	st	X, r25
    2c70:	8e 93       	st	-X, r24
    2c72:	12 97       	sbiw	r26, 0x02	; 2
    2c74:	11 96       	adiw	r26, 0x01	; 1
    2c76:	3c 93       	st	X, r19
    2c78:	2e 93       	st	-X, r18
    2c7a:	b3 83       	std	Z+3, r27	; 0x03
    2c7c:	a2 83       	std	Z+2, r26	; 0x02
    2c7e:	fc 01       	movw	r30, r24
    2c80:	b1 83       	std	Z+1, r27	; 0x01
    2c82:	a0 83       	st	Z, r26
    2c84:	6d e2       	ldi	r22, 0x2D	; 45
    2c86:	77 e0       	ldi	r23, 0x07	; 7
    2c88:	ce 01       	movw	r24, r28
    2c8a:	01 96       	adiw	r24, 0x01	; 1
    2c8c:	0e 94 72 04 	call	0x8e4	; 0x8e4 <_ZN3gxx6tracerC1EPKc>
    2c90:	0e 94 ca 0b 	call	0x1794	; 0x1794 <debug_print_newline.lto_priv.103.lto_priv.106>
    2c94:	10 93 b0 07 	sts	0x07B0, r17	; 0x8007b0 <__current_schedee+0x1>
    2c98:	00 93 af 07 	sts	0x07AF, r16	; 0x8007af <__current_schedee>
    2c9c:	d8 01       	movw	r26, r16
    2c9e:	18 96       	adiw	r26, 0x08	; 8
    2ca0:	8c 91       	ld	r24, X
    2ca2:	18 97       	sbiw	r26, 0x08	; 8
    2ca4:	81 60       	ori	r24, 0x01	; 1
    2ca6:	18 96       	adiw	r26, 0x08	; 8
    2ca8:	8c 93       	st	X, r24
    2caa:	0e 94 2f 14 	call	0x285e	; 0x285e <system_unlock>
    2cae:	d8 01       	movw	r26, r16
    2cb0:	57 96       	adiw	r26, 0x17	; 23
    2cb2:	ed 91       	ld	r30, X+
    2cb4:	fc 91       	ld	r31, X
    2cb6:	58 97       	sbiw	r26, 0x18	; 24
    2cb8:	01 90       	ld	r0, Z+
    2cba:	f0 81       	ld	r31, Z
    2cbc:	e0 2d       	mov	r30, r0
    2cbe:	c8 01       	movw	r24, r16
    2cc0:	19 95       	eicall
    2cc2:	ce 01       	movw	r24, r28
    2cc4:	01 96       	adiw	r24, 0x01	; 1
    2cc6:	0e 94 cf 13 	call	0x279e	; 0x279e <_ZN3gxx6tracerD2Ev.constprop.72>
    2cca:	09 c0       	rjmp	.+18     	; 0x2cde <schedee_manager+0x122>
    2ccc:	01 96       	adiw	r24, 0x01	; 1
    2cce:	2c 5f       	subi	r18, 0xFC	; 252
    2cd0:	3f 4f       	sbci	r19, 0xFF	; 255
    2cd2:	84 30       	cpi	r24, 0x04	; 4
    2cd4:	91 05       	cpc	r25, r1
    2cd6:	09 f0       	breq	.+2      	; 0x2cda <schedee_manager+0x11e>
    2cd8:	a9 cf       	rjmp	.-174    	; 0x2c2c <schedee_manager+0x70>
    2cda:	0e 94 2f 14 	call	0x285e	; 0x285e <system_unlock>
    2cde:	ce 01       	movw	r24, r28
    2ce0:	03 96       	adiw	r24, 0x03	; 3
    2ce2:	0e 94 cf 13 	call	0x279e	; 0x279e <_ZN3gxx6tracerD2Ev.constprop.72>
    2ce6:	0f 90       	pop	r0
    2ce8:	0f 90       	pop	r0
    2cea:	0f 90       	pop	r0
    2cec:	0f 90       	pop	r0
    2cee:	df 91       	pop	r29
    2cf0:	cf 91       	pop	r28
    2cf2:	1f 91       	pop	r17
    2cf4:	0f 91       	pop	r16
    2cf6:	08 95       	ret

00002cf8 <__kill_stack_and_schedule_invoke__>:
    2cf8:	cf 93       	push	r28
    2cfa:	df 93       	push	r29
    2cfc:	1f 92       	push	r1
    2cfe:	1f 92       	push	r1
    2d00:	cd b7       	in	r28, 0x3d	; 61
    2d02:	de b7       	in	r29, 0x3e	; 62
    2d04:	68 e7       	ldi	r22, 0x78	; 120
    2d06:	77 e0       	ldi	r23, 0x07	; 7
    2d08:	ce 01       	movw	r24, r28
    2d0a:	01 96       	adiw	r24, 0x01	; 1
    2d0c:	0e 94 72 04 	call	0x8e4	; 0x8e4 <_ZN3gxx6tracerC1EPKc>
    2d10:	0e 94 ca 0b 	call	0x1794	; 0x1794 <debug_print_newline.lto_priv.103.lto_priv.106>
    2d14:	8f ef       	ldi	r24, 0xFF	; 255
    2d16:	91 e2       	ldi	r25, 0x21	; 33
    2d18:	9e bf       	out	0x3e, r25	; 62
    2d1a:	8d bf       	out	0x3d, r24	; 61
    2d1c:	0e 94 b9 10 	call	0x2172	; 0x2172 <_ZN4crow7onestepEv>
    2d20:	0e 94 bc 0c 	call	0x1978	; 0x1978 <timer_manager>
    2d24:	0e 94 de 15 	call	0x2bbc	; 0x2bbc <schedee_manager>
    2d28:	f9 cf       	rjmp	.-14     	; 0x2d1c <__kill_stack_and_schedule_invoke__+0x24>

00002d2a <__subsf3>:
    2d2a:	50 58       	subi	r21, 0x80	; 128

00002d2c <__addsf3>:
    2d2c:	bb 27       	eor	r27, r27
    2d2e:	aa 27       	eor	r26, r26
    2d30:	0e 94 ad 16 	call	0x2d5a	; 0x2d5a <__addsf3x>
    2d34:	0c 94 a9 17 	jmp	0x2f52	; 0x2f52 <__fp_round>
    2d38:	0e 94 9b 17 	call	0x2f36	; 0x2f36 <__fp_pscA>
    2d3c:	38 f0       	brcs	.+14     	; 0x2d4c <__addsf3+0x20>
    2d3e:	0e 94 a2 17 	call	0x2f44	; 0x2f44 <__fp_pscB>
    2d42:	20 f0       	brcs	.+8      	; 0x2d4c <__addsf3+0x20>
    2d44:	39 f4       	brne	.+14     	; 0x2d54 <__addsf3+0x28>
    2d46:	9f 3f       	cpi	r25, 0xFF	; 255
    2d48:	19 f4       	brne	.+6      	; 0x2d50 <__addsf3+0x24>
    2d4a:	26 f4       	brtc	.+8      	; 0x2d54 <__addsf3+0x28>
    2d4c:	0c 94 88 17 	jmp	0x2f10	; 0x2f10 <__fp_nan>
    2d50:	0e f4       	brtc	.+2      	; 0x2d54 <__addsf3+0x28>
    2d52:	e0 95       	com	r30
    2d54:	e7 fb       	bst	r30, 7
    2d56:	0c 94 82 17 	jmp	0x2f04	; 0x2f04 <__fp_inf>

00002d5a <__addsf3x>:
    2d5a:	e9 2f       	mov	r30, r25
    2d5c:	0e 94 ba 17 	call	0x2f74	; 0x2f74 <__fp_split3>
    2d60:	58 f3       	brcs	.-42     	; 0x2d38 <__addsf3+0xc>
    2d62:	ba 17       	cp	r27, r26
    2d64:	62 07       	cpc	r22, r18
    2d66:	73 07       	cpc	r23, r19
    2d68:	84 07       	cpc	r24, r20
    2d6a:	95 07       	cpc	r25, r21
    2d6c:	20 f0       	brcs	.+8      	; 0x2d76 <__addsf3x+0x1c>
    2d6e:	79 f4       	brne	.+30     	; 0x2d8e <__addsf3x+0x34>
    2d70:	a6 f5       	brtc	.+104    	; 0x2dda <__addsf3x+0x80>
    2d72:	0c 94 dc 17 	jmp	0x2fb8	; 0x2fb8 <__fp_zero>
    2d76:	0e f4       	brtc	.+2      	; 0x2d7a <__addsf3x+0x20>
    2d78:	e0 95       	com	r30
    2d7a:	0b 2e       	mov	r0, r27
    2d7c:	ba 2f       	mov	r27, r26
    2d7e:	a0 2d       	mov	r26, r0
    2d80:	0b 01       	movw	r0, r22
    2d82:	b9 01       	movw	r22, r18
    2d84:	90 01       	movw	r18, r0
    2d86:	0c 01       	movw	r0, r24
    2d88:	ca 01       	movw	r24, r20
    2d8a:	a0 01       	movw	r20, r0
    2d8c:	11 24       	eor	r1, r1
    2d8e:	ff 27       	eor	r31, r31
    2d90:	59 1b       	sub	r21, r25
    2d92:	99 f0       	breq	.+38     	; 0x2dba <__addsf3x+0x60>
    2d94:	59 3f       	cpi	r21, 0xF9	; 249
    2d96:	50 f4       	brcc	.+20     	; 0x2dac <__addsf3x+0x52>
    2d98:	50 3e       	cpi	r21, 0xE0	; 224
    2d9a:	68 f1       	brcs	.+90     	; 0x2df6 <__addsf3x+0x9c>
    2d9c:	1a 16       	cp	r1, r26
    2d9e:	f0 40       	sbci	r31, 0x00	; 0
    2da0:	a2 2f       	mov	r26, r18
    2da2:	23 2f       	mov	r18, r19
    2da4:	34 2f       	mov	r19, r20
    2da6:	44 27       	eor	r20, r20
    2da8:	58 5f       	subi	r21, 0xF8	; 248
    2daa:	f3 cf       	rjmp	.-26     	; 0x2d92 <__addsf3x+0x38>
    2dac:	46 95       	lsr	r20
    2dae:	37 95       	ror	r19
    2db0:	27 95       	ror	r18
    2db2:	a7 95       	ror	r26
    2db4:	f0 40       	sbci	r31, 0x00	; 0
    2db6:	53 95       	inc	r21
    2db8:	c9 f7       	brne	.-14     	; 0x2dac <__addsf3x+0x52>
    2dba:	7e f4       	brtc	.+30     	; 0x2dda <__addsf3x+0x80>
    2dbc:	1f 16       	cp	r1, r31
    2dbe:	ba 0b       	sbc	r27, r26
    2dc0:	62 0b       	sbc	r22, r18
    2dc2:	73 0b       	sbc	r23, r19
    2dc4:	84 0b       	sbc	r24, r20
    2dc6:	ba f0       	brmi	.+46     	; 0x2df6 <__addsf3x+0x9c>
    2dc8:	91 50       	subi	r25, 0x01	; 1
    2dca:	a1 f0       	breq	.+40     	; 0x2df4 <__addsf3x+0x9a>
    2dcc:	ff 0f       	add	r31, r31
    2dce:	bb 1f       	adc	r27, r27
    2dd0:	66 1f       	adc	r22, r22
    2dd2:	77 1f       	adc	r23, r23
    2dd4:	88 1f       	adc	r24, r24
    2dd6:	c2 f7       	brpl	.-16     	; 0x2dc8 <__addsf3x+0x6e>
    2dd8:	0e c0       	rjmp	.+28     	; 0x2df6 <__addsf3x+0x9c>
    2dda:	ba 0f       	add	r27, r26
    2ddc:	62 1f       	adc	r22, r18
    2dde:	73 1f       	adc	r23, r19
    2de0:	84 1f       	adc	r24, r20
    2de2:	48 f4       	brcc	.+18     	; 0x2df6 <__addsf3x+0x9c>
    2de4:	87 95       	ror	r24
    2de6:	77 95       	ror	r23
    2de8:	67 95       	ror	r22
    2dea:	b7 95       	ror	r27
    2dec:	f7 95       	ror	r31
    2dee:	9e 3f       	cpi	r25, 0xFE	; 254
    2df0:	08 f0       	brcs	.+2      	; 0x2df4 <__addsf3x+0x9a>
    2df2:	b0 cf       	rjmp	.-160    	; 0x2d54 <__addsf3+0x28>
    2df4:	93 95       	inc	r25
    2df6:	88 0f       	add	r24, r24
    2df8:	08 f0       	brcs	.+2      	; 0x2dfc <__addsf3x+0xa2>
    2dfa:	99 27       	eor	r25, r25
    2dfc:	ee 0f       	add	r30, r30
    2dfe:	97 95       	ror	r25
    2e00:	87 95       	ror	r24
    2e02:	08 95       	ret

00002e04 <__fixsfdi>:
    2e04:	be e3       	ldi	r27, 0x3E	; 62
    2e06:	04 d0       	rcall	.+8      	; 0x2e10 <__fixunssfdi+0x2>
    2e08:	08 f4       	brcc	.+2      	; 0x2e0c <__fixsfdi+0x8>
    2e0a:	90 e8       	ldi	r25, 0x80	; 128
    2e0c:	08 95       	ret

00002e0e <__fixunssfdi>:
    2e0e:	bf e3       	ldi	r27, 0x3F	; 63
    2e10:	22 27       	eor	r18, r18
    2e12:	33 27       	eor	r19, r19
    2e14:	a9 01       	movw	r20, r18
    2e16:	0e 94 c2 17 	call	0x2f84	; 0x2f84 <__fp_splitA>
    2e1a:	60 f1       	brcs	.+88     	; 0x2e74 <__fixunssfdi+0x66>
    2e1c:	9f 57       	subi	r25, 0x7F	; 127
    2e1e:	48 f1       	brcs	.+82     	; 0x2e72 <__fixunssfdi+0x64>
    2e20:	b9 17       	cp	r27, r25
    2e22:	40 f1       	brcs	.+80     	; 0x2e74 <__fixunssfdi+0x66>
    2e24:	bf e3       	ldi	r27, 0x3F	; 63
    2e26:	b9 1b       	sub	r27, r25
    2e28:	99 27       	eor	r25, r25
    2e2a:	b8 50       	subi	r27, 0x08	; 8
    2e2c:	3a f4       	brpl	.+14     	; 0x2e3c <__fixunssfdi+0x2e>
    2e2e:	66 0f       	add	r22, r22
    2e30:	77 1f       	adc	r23, r23
    2e32:	88 1f       	adc	r24, r24
    2e34:	99 1f       	adc	r25, r25
    2e36:	b3 95       	inc	r27
    2e38:	d2 f3       	brmi	.-12     	; 0x2e2e <__fixunssfdi+0x20>
    2e3a:	16 c0       	rjmp	.+44     	; 0x2e68 <__fixunssfdi+0x5a>
    2e3c:	b8 50       	subi	r27, 0x08	; 8
    2e3e:	4a f0       	brmi	.+18     	; 0x2e52 <__fixunssfdi+0x44>
    2e40:	23 2f       	mov	r18, r19
    2e42:	34 2f       	mov	r19, r20
    2e44:	45 2f       	mov	r20, r21
    2e46:	56 2f       	mov	r21, r22
    2e48:	67 2f       	mov	r22, r23
    2e4a:	78 2f       	mov	r23, r24
    2e4c:	88 27       	eor	r24, r24
    2e4e:	b8 50       	subi	r27, 0x08	; 8
    2e50:	ba f7       	brpl	.-18     	; 0x2e40 <__fixunssfdi+0x32>
    2e52:	b8 5f       	subi	r27, 0xF8	; 248
    2e54:	49 f0       	breq	.+18     	; 0x2e68 <__fixunssfdi+0x5a>
    2e56:	86 95       	lsr	r24
    2e58:	77 95       	ror	r23
    2e5a:	67 95       	ror	r22
    2e5c:	57 95       	ror	r21
    2e5e:	47 95       	ror	r20
    2e60:	37 95       	ror	r19
    2e62:	27 95       	ror	r18
    2e64:	ba 95       	dec	r27
    2e66:	b9 f7       	brne	.-18     	; 0x2e56 <__fixunssfdi+0x48>
    2e68:	16 f4       	brtc	.+4      	; 0x2e6e <__fixunssfdi+0x60>
    2e6a:	0e 94 8b 17 	call	0x2f16	; 0x2f16 <__fp_negdi>
    2e6e:	88 94       	clc
    2e70:	08 95       	ret
    2e72:	88 94       	clc
    2e74:	60 e0       	ldi	r22, 0x00	; 0
    2e76:	70 e0       	ldi	r23, 0x00	; 0
    2e78:	cb 01       	movw	r24, r22
    2e7a:	08 95       	ret

00002e7c <__floatdisf>:
    2e7c:	97 fb       	bst	r25, 7
    2e7e:	16 f4       	brtc	.+4      	; 0x2e84 <__floatdisf+0x8>
    2e80:	0e 94 8b 17 	call	0x2f16	; 0x2f16 <__fp_negdi>
    2e84:	0c 94 45 17 	jmp	0x2e8a	; 0x2e8a <__fp_di2sf>

00002e88 <__floatundisf>:
    2e88:	e8 94       	clt

00002e8a <__fp_di2sf>:
    2e8a:	f9 2f       	mov	r31, r25
    2e8c:	96 eb       	ldi	r25, 0xB6	; 182
    2e8e:	ff 23       	and	r31, r31
    2e90:	81 f0       	breq	.+32     	; 0x2eb2 <__fp_di2sf+0x28>
    2e92:	12 16       	cp	r1, r18
    2e94:	13 06       	cpc	r1, r19
    2e96:	14 06       	cpc	r1, r20
    2e98:	44 0b       	sbc	r20, r20
    2e9a:	93 95       	inc	r25
    2e9c:	f6 95       	lsr	r31
    2e9e:	87 95       	ror	r24
    2ea0:	77 95       	ror	r23
    2ea2:	67 95       	ror	r22
    2ea4:	57 95       	ror	r21
    2ea6:	40 40       	sbci	r20, 0x00	; 0
    2ea8:	ff 23       	and	r31, r31
    2eaa:	b9 f7       	brne	.-18     	; 0x2e9a <__fp_di2sf+0x10>
    2eac:	1b c0       	rjmp	.+54     	; 0x2ee4 <__fp_di2sf+0x5a>
    2eae:	99 27       	eor	r25, r25
    2eb0:	08 95       	ret
    2eb2:	88 23       	and	r24, r24
    2eb4:	51 f4       	brne	.+20     	; 0x2eca <__fp_di2sf+0x40>
    2eb6:	98 50       	subi	r25, 0x08	; 8
    2eb8:	d2 f7       	brpl	.-12     	; 0x2eae <__fp_di2sf+0x24>
    2eba:	87 2b       	or	r24, r23
    2ebc:	76 2f       	mov	r23, r22
    2ebe:	65 2f       	mov	r22, r21
    2ec0:	54 2f       	mov	r21, r20
    2ec2:	43 2f       	mov	r20, r19
    2ec4:	32 2f       	mov	r19, r18
    2ec6:	20 e0       	ldi	r18, 0x00	; 0
    2ec8:	b1 f3       	breq	.-20     	; 0x2eb6 <__fp_di2sf+0x2c>
    2eca:	12 16       	cp	r1, r18
    2ecc:	13 06       	cpc	r1, r19
    2ece:	14 06       	cpc	r1, r20
    2ed0:	44 0b       	sbc	r20, r20
    2ed2:	88 23       	and	r24, r24
    2ed4:	3a f0       	brmi	.+14     	; 0x2ee4 <__fp_di2sf+0x5a>
    2ed6:	9a 95       	dec	r25
    2ed8:	44 0f       	add	r20, r20
    2eda:	55 1f       	adc	r21, r21
    2edc:	66 1f       	adc	r22, r22
    2ede:	77 1f       	adc	r23, r23
    2ee0:	88 1f       	adc	r24, r24
    2ee2:	ca f7       	brpl	.-14     	; 0x2ed6 <__fp_di2sf+0x4c>
    2ee4:	55 23       	and	r21, r21
    2ee6:	4a f4       	brpl	.+18     	; 0x2efa <__fp_di2sf+0x70>
    2ee8:	44 0f       	add	r20, r20
    2eea:	55 1f       	adc	r21, r21
    2eec:	11 f4       	brne	.+4      	; 0x2ef2 <__fp_di2sf+0x68>
    2eee:	60 ff       	sbrs	r22, 0
    2ef0:	04 c0       	rjmp	.+8      	; 0x2efa <__fp_di2sf+0x70>
    2ef2:	6f 5f       	subi	r22, 0xFF	; 255
    2ef4:	7f 4f       	sbci	r23, 0xFF	; 255
    2ef6:	8f 4f       	sbci	r24, 0xFF	; 255
    2ef8:	9f 4f       	sbci	r25, 0xFF	; 255
    2efa:	88 0f       	add	r24, r24
    2efc:	96 95       	lsr	r25
    2efe:	87 95       	ror	r24
    2f00:	97 f9       	bld	r25, 7
    2f02:	08 95       	ret

00002f04 <__fp_inf>:
    2f04:	97 f9       	bld	r25, 7
    2f06:	9f 67       	ori	r25, 0x7F	; 127
    2f08:	80 e8       	ldi	r24, 0x80	; 128
    2f0a:	70 e0       	ldi	r23, 0x00	; 0
    2f0c:	60 e0       	ldi	r22, 0x00	; 0
    2f0e:	08 95       	ret

00002f10 <__fp_nan>:
    2f10:	9f ef       	ldi	r25, 0xFF	; 255
    2f12:	80 ec       	ldi	r24, 0xC0	; 192
    2f14:	08 95       	ret

00002f16 <__fp_negdi>:
    2f16:	90 95       	com	r25
    2f18:	80 95       	com	r24
    2f1a:	70 95       	com	r23
    2f1c:	60 95       	com	r22
    2f1e:	50 95       	com	r21
    2f20:	40 95       	com	r20
    2f22:	30 95       	com	r19
    2f24:	21 95       	neg	r18
    2f26:	3f 4f       	sbci	r19, 0xFF	; 255
    2f28:	4f 4f       	sbci	r20, 0xFF	; 255
    2f2a:	5f 4f       	sbci	r21, 0xFF	; 255
    2f2c:	6f 4f       	sbci	r22, 0xFF	; 255
    2f2e:	7f 4f       	sbci	r23, 0xFF	; 255
    2f30:	8f 4f       	sbci	r24, 0xFF	; 255
    2f32:	9f 4f       	sbci	r25, 0xFF	; 255
    2f34:	08 95       	ret

00002f36 <__fp_pscA>:
    2f36:	00 24       	eor	r0, r0
    2f38:	0a 94       	dec	r0
    2f3a:	16 16       	cp	r1, r22
    2f3c:	17 06       	cpc	r1, r23
    2f3e:	18 06       	cpc	r1, r24
    2f40:	09 06       	cpc	r0, r25
    2f42:	08 95       	ret

00002f44 <__fp_pscB>:
    2f44:	00 24       	eor	r0, r0
    2f46:	0a 94       	dec	r0
    2f48:	12 16       	cp	r1, r18
    2f4a:	13 06       	cpc	r1, r19
    2f4c:	14 06       	cpc	r1, r20
    2f4e:	05 06       	cpc	r0, r21
    2f50:	08 95       	ret

00002f52 <__fp_round>:
    2f52:	09 2e       	mov	r0, r25
    2f54:	03 94       	inc	r0
    2f56:	00 0c       	add	r0, r0
    2f58:	11 f4       	brne	.+4      	; 0x2f5e <__fp_round+0xc>
    2f5a:	88 23       	and	r24, r24
    2f5c:	52 f0       	brmi	.+20     	; 0x2f72 <__fp_round+0x20>
    2f5e:	bb 0f       	add	r27, r27
    2f60:	40 f4       	brcc	.+16     	; 0x2f72 <__fp_round+0x20>
    2f62:	bf 2b       	or	r27, r31
    2f64:	11 f4       	brne	.+4      	; 0x2f6a <__fp_round+0x18>
    2f66:	60 ff       	sbrs	r22, 0
    2f68:	04 c0       	rjmp	.+8      	; 0x2f72 <__fp_round+0x20>
    2f6a:	6f 5f       	subi	r22, 0xFF	; 255
    2f6c:	7f 4f       	sbci	r23, 0xFF	; 255
    2f6e:	8f 4f       	sbci	r24, 0xFF	; 255
    2f70:	9f 4f       	sbci	r25, 0xFF	; 255
    2f72:	08 95       	ret

00002f74 <__fp_split3>:
    2f74:	57 fd       	sbrc	r21, 7
    2f76:	90 58       	subi	r25, 0x80	; 128
    2f78:	44 0f       	add	r20, r20
    2f7a:	55 1f       	adc	r21, r21
    2f7c:	59 f0       	breq	.+22     	; 0x2f94 <__fp_splitA+0x10>
    2f7e:	5f 3f       	cpi	r21, 0xFF	; 255
    2f80:	71 f0       	breq	.+28     	; 0x2f9e <__fp_splitA+0x1a>
    2f82:	47 95       	ror	r20

00002f84 <__fp_splitA>:
    2f84:	88 0f       	add	r24, r24
    2f86:	97 fb       	bst	r25, 7
    2f88:	99 1f       	adc	r25, r25
    2f8a:	61 f0       	breq	.+24     	; 0x2fa4 <__fp_splitA+0x20>
    2f8c:	9f 3f       	cpi	r25, 0xFF	; 255
    2f8e:	79 f0       	breq	.+30     	; 0x2fae <__fp_splitA+0x2a>
    2f90:	87 95       	ror	r24
    2f92:	08 95       	ret
    2f94:	12 16       	cp	r1, r18
    2f96:	13 06       	cpc	r1, r19
    2f98:	14 06       	cpc	r1, r20
    2f9a:	55 1f       	adc	r21, r21
    2f9c:	f2 cf       	rjmp	.-28     	; 0x2f82 <__fp_split3+0xe>
    2f9e:	46 95       	lsr	r20
    2fa0:	f1 df       	rcall	.-30     	; 0x2f84 <__fp_splitA>
    2fa2:	08 c0       	rjmp	.+16     	; 0x2fb4 <__fp_splitA+0x30>
    2fa4:	16 16       	cp	r1, r22
    2fa6:	17 06       	cpc	r1, r23
    2fa8:	18 06       	cpc	r1, r24
    2faa:	99 1f       	adc	r25, r25
    2fac:	f1 cf       	rjmp	.-30     	; 0x2f90 <__fp_splitA+0xc>
    2fae:	86 95       	lsr	r24
    2fb0:	71 05       	cpc	r23, r1
    2fb2:	61 05       	cpc	r22, r1
    2fb4:	08 94       	sec
    2fb6:	08 95       	ret

00002fb8 <__fp_zero>:
    2fb8:	e8 94       	clt

00002fba <__fp_szero>:
    2fba:	bb 27       	eor	r27, r27
    2fbc:	66 27       	eor	r22, r22
    2fbe:	77 27       	eor	r23, r23
    2fc0:	cb 01       	movw	r24, r22
    2fc2:	97 f9       	bld	r25, 7
    2fc4:	08 95       	ret

00002fc6 <__udivmodsi4>:
    2fc6:	a1 e2       	ldi	r26, 0x21	; 33
    2fc8:	1a 2e       	mov	r1, r26
    2fca:	aa 1b       	sub	r26, r26
    2fcc:	bb 1b       	sub	r27, r27
    2fce:	fd 01       	movw	r30, r26
    2fd0:	0d c0       	rjmp	.+26     	; 0x2fec <__udivmodsi4_ep>

00002fd2 <__udivmodsi4_loop>:
    2fd2:	aa 1f       	adc	r26, r26
    2fd4:	bb 1f       	adc	r27, r27
    2fd6:	ee 1f       	adc	r30, r30
    2fd8:	ff 1f       	adc	r31, r31
    2fda:	a2 17       	cp	r26, r18
    2fdc:	b3 07       	cpc	r27, r19
    2fde:	e4 07       	cpc	r30, r20
    2fe0:	f5 07       	cpc	r31, r21
    2fe2:	20 f0       	brcs	.+8      	; 0x2fec <__udivmodsi4_ep>
    2fe4:	a2 1b       	sub	r26, r18
    2fe6:	b3 0b       	sbc	r27, r19
    2fe8:	e4 0b       	sbc	r30, r20
    2fea:	f5 0b       	sbc	r31, r21

00002fec <__udivmodsi4_ep>:
    2fec:	66 1f       	adc	r22, r22
    2fee:	77 1f       	adc	r23, r23
    2ff0:	88 1f       	adc	r24, r24
    2ff2:	99 1f       	adc	r25, r25
    2ff4:	1a 94       	dec	r1
    2ff6:	69 f7       	brne	.-38     	; 0x2fd2 <__udivmodsi4_loop>
    2ff8:	60 95       	com	r22
    2ffa:	70 95       	com	r23
    2ffc:	80 95       	com	r24
    2ffe:	90 95       	com	r25
    3000:	9b 01       	movw	r18, r22
    3002:	ac 01       	movw	r20, r24
    3004:	bd 01       	movw	r22, r26
    3006:	cf 01       	movw	r24, r30
    3008:	08 95       	ret

0000300a <__divmodsi4>:
    300a:	05 2e       	mov	r0, r21
    300c:	97 fb       	bst	r25, 7
    300e:	1e f4       	brtc	.+6      	; 0x3016 <__divmodsi4+0xc>
    3010:	00 94       	com	r0
    3012:	0e 94 1c 18 	call	0x3038	; 0x3038 <__negsi2>
    3016:	57 fd       	sbrc	r21, 7
    3018:	07 d0       	rcall	.+14     	; 0x3028 <__divmodsi4_neg2>
    301a:	0e 94 e3 17 	call	0x2fc6	; 0x2fc6 <__udivmodsi4>
    301e:	07 fc       	sbrc	r0, 7
    3020:	03 d0       	rcall	.+6      	; 0x3028 <__divmodsi4_neg2>
    3022:	4e f4       	brtc	.+18     	; 0x3036 <__divmodsi4_exit>
    3024:	0c 94 1c 18 	jmp	0x3038	; 0x3038 <__negsi2>

00003028 <__divmodsi4_neg2>:
    3028:	50 95       	com	r21
    302a:	40 95       	com	r20
    302c:	30 95       	com	r19
    302e:	21 95       	neg	r18
    3030:	3f 4f       	sbci	r19, 0xFF	; 255
    3032:	4f 4f       	sbci	r20, 0xFF	; 255
    3034:	5f 4f       	sbci	r21, 0xFF	; 255

00003036 <__divmodsi4_exit>:
    3036:	08 95       	ret

00003038 <__negsi2>:
    3038:	90 95       	com	r25
    303a:	80 95       	com	r24
    303c:	70 95       	com	r23
    303e:	61 95       	neg	r22
    3040:	7f 4f       	sbci	r23, 0xFF	; 255
    3042:	8f 4f       	sbci	r24, 0xFF	; 255
    3044:	9f 4f       	sbci	r25, 0xFF	; 255
    3046:	08 95       	ret

00003048 <__muluhisi3>:
    3048:	0e 94 92 19 	call	0x3324	; 0x3324 <__umulhisi3>
    304c:	a5 9f       	mul	r26, r21
    304e:	90 0d       	add	r25, r0
    3050:	b4 9f       	mul	r27, r20
    3052:	90 0d       	add	r25, r0
    3054:	a4 9f       	mul	r26, r20
    3056:	80 0d       	add	r24, r0
    3058:	91 1d       	adc	r25, r1
    305a:	11 24       	eor	r1, r1
    305c:	08 95       	ret

0000305e <__muldi3>:
    305e:	df 93       	push	r29
    3060:	cf 93       	push	r28
    3062:	1f 93       	push	r17
    3064:	0f 93       	push	r16
    3066:	9a 9d       	mul	r25, r10
    3068:	f0 2d       	mov	r31, r0
    306a:	21 9f       	mul	r18, r17
    306c:	f0 0d       	add	r31, r0
    306e:	8b 9d       	mul	r24, r11
    3070:	f0 0d       	add	r31, r0
    3072:	8a 9d       	mul	r24, r10
    3074:	e0 2d       	mov	r30, r0
    3076:	f1 0d       	add	r31, r1
    3078:	03 9f       	mul	r16, r19
    307a:	f0 0d       	add	r31, r0
    307c:	02 9f       	mul	r16, r18
    307e:	e0 0d       	add	r30, r0
    3080:	f1 1d       	adc	r31, r1
    3082:	4e 9d       	mul	r20, r14
    3084:	e0 0d       	add	r30, r0
    3086:	f1 1d       	adc	r31, r1
    3088:	5e 9d       	mul	r21, r14
    308a:	f0 0d       	add	r31, r0
    308c:	4f 9d       	mul	r20, r15
    308e:	f0 0d       	add	r31, r0
    3090:	7f 93       	push	r23
    3092:	6f 93       	push	r22
    3094:	bf 92       	push	r11
    3096:	af 92       	push	r10
    3098:	5f 93       	push	r21
    309a:	4f 93       	push	r20
    309c:	d5 01       	movw	r26, r10
    309e:	0e 94 92 19 	call	0x3324	; 0x3324 <__umulhisi3>
    30a2:	8b 01       	movw	r16, r22
    30a4:	ac 01       	movw	r20, r24
    30a6:	d7 01       	movw	r26, r14
    30a8:	0e 94 92 19 	call	0x3324	; 0x3324 <__umulhisi3>
    30ac:	eb 01       	movw	r28, r22
    30ae:	e8 0f       	add	r30, r24
    30b0:	f9 1f       	adc	r31, r25
    30b2:	d6 01       	movw	r26, r12
    30b4:	0e 94 7f 18 	call	0x30fe	; 0x30fe <__muldi3_6>
    30b8:	2f 91       	pop	r18
    30ba:	3f 91       	pop	r19
    30bc:	d6 01       	movw	r26, r12
    30be:	0e 94 92 19 	call	0x3324	; 0x3324 <__umulhisi3>
    30c2:	c6 0f       	add	r28, r22
    30c4:	d7 1f       	adc	r29, r23
    30c6:	e8 1f       	adc	r30, r24
    30c8:	f9 1f       	adc	r31, r25
    30ca:	af 91       	pop	r26
    30cc:	bf 91       	pop	r27
    30ce:	0e 94 7f 18 	call	0x30fe	; 0x30fe <__muldi3_6>
    30d2:	2f 91       	pop	r18
    30d4:	3f 91       	pop	r19
    30d6:	0e 94 92 19 	call	0x3324	; 0x3324 <__umulhisi3>
    30da:	c6 0f       	add	r28, r22
    30dc:	d7 1f       	adc	r29, r23
    30de:	e8 1f       	adc	r30, r24
    30e0:	f9 1f       	adc	r31, r25
    30e2:	d6 01       	movw	r26, r12
    30e4:	0e 94 92 19 	call	0x3324	; 0x3324 <__umulhisi3>
    30e8:	e6 0f       	add	r30, r22
    30ea:	f7 1f       	adc	r31, r23
    30ec:	98 01       	movw	r18, r16
    30ee:	be 01       	movw	r22, r28
    30f0:	cf 01       	movw	r24, r30
    30f2:	11 24       	eor	r1, r1
    30f4:	0f 91       	pop	r16
    30f6:	1f 91       	pop	r17
    30f8:	cf 91       	pop	r28
    30fa:	df 91       	pop	r29
    30fc:	08 95       	ret

000030fe <__muldi3_6>:
    30fe:	0e 94 92 19 	call	0x3324	; 0x3324 <__umulhisi3>
    3102:	46 0f       	add	r20, r22
    3104:	57 1f       	adc	r21, r23
    3106:	c8 1f       	adc	r28, r24
    3108:	d9 1f       	adc	r29, r25
    310a:	08 f4       	brcc	.+2      	; 0x310e <__muldi3_6+0x10>
    310c:	31 96       	adiw	r30, 0x01	; 1
    310e:	08 95       	ret

00003110 <__moddi3>:
    3110:	68 94       	set
    3112:	01 c0       	rjmp	.+2      	; 0x3116 <__divdi3_moddi3>

00003114 <__divdi3>:
    3114:	e8 94       	clt

00003116 <__divdi3_moddi3>:
    3116:	f9 2f       	mov	r31, r25
    3118:	f1 2b       	or	r31, r17
    311a:	12 f0       	brmi	.+4      	; 0x3120 <__divdi3_moddi3+0xa>
    311c:	0c 94 bc 18 	jmp	0x3178	; 0x3178 <__udivdi3_umoddi3>
    3120:	a0 e0       	ldi	r26, 0x00	; 0
    3122:	b0 e0       	ldi	r27, 0x00	; 0
    3124:	e6 e9       	ldi	r30, 0x96	; 150
    3126:	f8 e1       	ldi	r31, 0x18	; 24
    3128:	0c 94 2e 19 	jmp	0x325c	; 0x325c <__prologue_saves__+0xc>
    312c:	09 2e       	mov	r0, r25
    312e:	05 94       	asr	r0
    3130:	22 f4       	brpl	.+8      	; 0x313a <__divdi3_moddi3+0x24>
    3132:	0e 94 18 19 	call	0x3230	; 0x3230 <__negdi2>
    3136:	11 23       	and	r17, r17
    3138:	92 f4       	brpl	.+36     	; 0x315e <__divdi3_moddi3+0x48>
    313a:	f0 e8       	ldi	r31, 0x80	; 128
    313c:	0f 26       	eor	r0, r31
    313e:	ff ef       	ldi	r31, 0xFF	; 255
    3140:	e0 94       	com	r14
    3142:	f0 94       	com	r15
    3144:	00 95       	com	r16
    3146:	10 95       	com	r17
    3148:	b0 94       	com	r11
    314a:	c0 94       	com	r12
    314c:	d0 94       	com	r13
    314e:	a1 94       	neg	r10
    3150:	bf 0a       	sbc	r11, r31
    3152:	cf 0a       	sbc	r12, r31
    3154:	df 0a       	sbc	r13, r31
    3156:	ef 0a       	sbc	r14, r31
    3158:	ff 0a       	sbc	r15, r31
    315a:	0f 0b       	sbc	r16, r31
    315c:	1f 0b       	sbc	r17, r31
    315e:	0e 94 c7 18 	call	0x318e	; 0x318e <__udivmod64>
    3162:	07 fc       	sbrc	r0, 7
    3164:	0e 94 18 19 	call	0x3230	; 0x3230 <__negdi2>
    3168:	cd b7       	in	r28, 0x3d	; 61
    316a:	de b7       	in	r29, 0x3e	; 62
    316c:	ec e0       	ldi	r30, 0x0C	; 12
    316e:	0c 94 4a 19 	jmp	0x3294	; 0x3294 <__epilogue_restores__+0xc>

00003172 <__umoddi3>:
    3172:	68 94       	set
    3174:	01 c0       	rjmp	.+2      	; 0x3178 <__udivdi3_umoddi3>

00003176 <__udivdi3>:
    3176:	e8 94       	clt

00003178 <__udivdi3_umoddi3>:
    3178:	8f 92       	push	r8
    317a:	9f 92       	push	r9
    317c:	cf 93       	push	r28
    317e:	df 93       	push	r29
    3180:	0e 94 c7 18 	call	0x318e	; 0x318e <__udivmod64>
    3184:	df 91       	pop	r29
    3186:	cf 91       	pop	r28
    3188:	9f 90       	pop	r9
    318a:	8f 90       	pop	r8
    318c:	08 95       	ret

0000318e <__udivmod64>:
    318e:	88 24       	eor	r8, r8
    3190:	99 24       	eor	r9, r9
    3192:	f4 01       	movw	r30, r8
    3194:	e4 01       	movw	r28, r8
    3196:	b0 e4       	ldi	r27, 0x40	; 64
    3198:	9f 93       	push	r25
    319a:	aa 27       	eor	r26, r26
    319c:	9a 15       	cp	r25, r10
    319e:	8b 04       	cpc	r8, r11
    31a0:	9c 04       	cpc	r9, r12
    31a2:	ed 05       	cpc	r30, r13
    31a4:	fe 05       	cpc	r31, r14
    31a6:	cf 05       	cpc	r28, r15
    31a8:	d0 07       	cpc	r29, r16
    31aa:	a1 07       	cpc	r26, r17
    31ac:	98 f4       	brcc	.+38     	; 0x31d4 <__udivmod64+0x46>
    31ae:	ad 2f       	mov	r26, r29
    31b0:	dc 2f       	mov	r29, r28
    31b2:	cf 2f       	mov	r28, r31
    31b4:	fe 2f       	mov	r31, r30
    31b6:	e9 2d       	mov	r30, r9
    31b8:	98 2c       	mov	r9, r8
    31ba:	89 2e       	mov	r8, r25
    31bc:	98 2f       	mov	r25, r24
    31be:	87 2f       	mov	r24, r23
    31c0:	76 2f       	mov	r23, r22
    31c2:	65 2f       	mov	r22, r21
    31c4:	54 2f       	mov	r21, r20
    31c6:	43 2f       	mov	r20, r19
    31c8:	32 2f       	mov	r19, r18
    31ca:	22 27       	eor	r18, r18
    31cc:	b8 50       	subi	r27, 0x08	; 8
    31ce:	31 f7       	brne	.-52     	; 0x319c <__udivmod64+0xe>
    31d0:	bf 91       	pop	r27
    31d2:	27 c0       	rjmp	.+78     	; 0x3222 <__udivmod64+0x94>
    31d4:	1b 2e       	mov	r1, r27
    31d6:	bf 91       	pop	r27
    31d8:	bb 27       	eor	r27, r27
    31da:	22 0f       	add	r18, r18
    31dc:	33 1f       	adc	r19, r19
    31de:	44 1f       	adc	r20, r20
    31e0:	55 1f       	adc	r21, r21
    31e2:	66 1f       	adc	r22, r22
    31e4:	77 1f       	adc	r23, r23
    31e6:	88 1f       	adc	r24, r24
    31e8:	99 1f       	adc	r25, r25
    31ea:	88 1c       	adc	r8, r8
    31ec:	99 1c       	adc	r9, r9
    31ee:	ee 1f       	adc	r30, r30
    31f0:	ff 1f       	adc	r31, r31
    31f2:	cc 1f       	adc	r28, r28
    31f4:	dd 1f       	adc	r29, r29
    31f6:	aa 1f       	adc	r26, r26
    31f8:	bb 1f       	adc	r27, r27
    31fa:	8a 14       	cp	r8, r10
    31fc:	9b 04       	cpc	r9, r11
    31fe:	ec 05       	cpc	r30, r12
    3200:	fd 05       	cpc	r31, r13
    3202:	ce 05       	cpc	r28, r14
    3204:	df 05       	cpc	r29, r15
    3206:	a0 07       	cpc	r26, r16
    3208:	b1 07       	cpc	r27, r17
    320a:	48 f0       	brcs	.+18     	; 0x321e <__udivmod64+0x90>
    320c:	8a 18       	sub	r8, r10
    320e:	9b 08       	sbc	r9, r11
    3210:	ec 09       	sbc	r30, r12
    3212:	fd 09       	sbc	r31, r13
    3214:	ce 09       	sbc	r28, r14
    3216:	df 09       	sbc	r29, r15
    3218:	a0 0b       	sbc	r26, r16
    321a:	b1 0b       	sbc	r27, r17
    321c:	21 60       	ori	r18, 0x01	; 1
    321e:	1a 94       	dec	r1
    3220:	e1 f6       	brne	.-72     	; 0x31da <__udivmod64+0x4c>
    3222:	2e f4       	brtc	.+10     	; 0x322e <__udivmod64+0xa0>
    3224:	94 01       	movw	r18, r8
    3226:	af 01       	movw	r20, r30
    3228:	be 01       	movw	r22, r28
    322a:	cd 01       	movw	r24, r26
    322c:	00 0c       	add	r0, r0
    322e:	08 95       	ret

00003230 <__negdi2>:
    3230:	60 95       	com	r22
    3232:	70 95       	com	r23
    3234:	80 95       	com	r24
    3236:	90 95       	com	r25
    3238:	30 95       	com	r19
    323a:	40 95       	com	r20
    323c:	50 95       	com	r21
    323e:	21 95       	neg	r18
    3240:	3f 4f       	sbci	r19, 0xFF	; 255
    3242:	4f 4f       	sbci	r20, 0xFF	; 255
    3244:	5f 4f       	sbci	r21, 0xFF	; 255
    3246:	6f 4f       	sbci	r22, 0xFF	; 255
    3248:	7f 4f       	sbci	r23, 0xFF	; 255
    324a:	8f 4f       	sbci	r24, 0xFF	; 255
    324c:	9f 4f       	sbci	r25, 0xFF	; 255
    324e:	08 95       	ret

00003250 <__prologue_saves__>:
    3250:	2f 92       	push	r2
    3252:	3f 92       	push	r3
    3254:	4f 92       	push	r4
    3256:	5f 92       	push	r5
    3258:	6f 92       	push	r6
    325a:	7f 92       	push	r7
    325c:	8f 92       	push	r8
    325e:	9f 92       	push	r9
    3260:	af 92       	push	r10
    3262:	bf 92       	push	r11
    3264:	cf 92       	push	r12
    3266:	df 92       	push	r13
    3268:	ef 92       	push	r14
    326a:	ff 92       	push	r15
    326c:	0f 93       	push	r16
    326e:	1f 93       	push	r17
    3270:	cf 93       	push	r28
    3272:	df 93       	push	r29
    3274:	cd b7       	in	r28, 0x3d	; 61
    3276:	de b7       	in	r29, 0x3e	; 62
    3278:	ca 1b       	sub	r28, r26
    327a:	db 0b       	sbc	r29, r27
    327c:	0f b6       	in	r0, 0x3f	; 63
    327e:	f8 94       	cli
    3280:	de bf       	out	0x3e, r29	; 62
    3282:	0f be       	out	0x3f, r0	; 63
    3284:	cd bf       	out	0x3d, r28	; 61
    3286:	19 94       	eijmp

00003288 <__epilogue_restores__>:
    3288:	2a 88       	ldd	r2, Y+18	; 0x12
    328a:	39 88       	ldd	r3, Y+17	; 0x11
    328c:	48 88       	ldd	r4, Y+16	; 0x10
    328e:	5f 84       	ldd	r5, Y+15	; 0x0f
    3290:	6e 84       	ldd	r6, Y+14	; 0x0e
    3292:	7d 84       	ldd	r7, Y+13	; 0x0d
    3294:	8c 84       	ldd	r8, Y+12	; 0x0c
    3296:	9b 84       	ldd	r9, Y+11	; 0x0b
    3298:	aa 84       	ldd	r10, Y+10	; 0x0a
    329a:	b9 84       	ldd	r11, Y+9	; 0x09
    329c:	c8 84       	ldd	r12, Y+8	; 0x08
    329e:	df 80       	ldd	r13, Y+7	; 0x07
    32a0:	ee 80       	ldd	r14, Y+6	; 0x06
    32a2:	fd 80       	ldd	r15, Y+5	; 0x05
    32a4:	0c 81       	ldd	r16, Y+4	; 0x04
    32a6:	1b 81       	ldd	r17, Y+3	; 0x03
    32a8:	aa 81       	ldd	r26, Y+2	; 0x02
    32aa:	b9 81       	ldd	r27, Y+1	; 0x01
    32ac:	ce 0f       	add	r28, r30
    32ae:	d1 1d       	adc	r29, r1
    32b0:	0f b6       	in	r0, 0x3f	; 63
    32b2:	f8 94       	cli
    32b4:	de bf       	out	0x3e, r29	; 62
    32b6:	0f be       	out	0x3f, r0	; 63
    32b8:	cd bf       	out	0x3d, r28	; 61
    32ba:	ed 01       	movw	r28, r26
    32bc:	08 95       	ret

000032be <__adddi3>:
    32be:	2a 0d       	add	r18, r10
    32c0:	3b 1d       	adc	r19, r11
    32c2:	4c 1d       	adc	r20, r12
    32c4:	5d 1d       	adc	r21, r13
    32c6:	6e 1d       	adc	r22, r14
    32c8:	7f 1d       	adc	r23, r15
    32ca:	80 1f       	adc	r24, r16
    32cc:	91 1f       	adc	r25, r17
    32ce:	08 95       	ret

000032d0 <__adddi3_s8>:
    32d0:	00 24       	eor	r0, r0
    32d2:	a7 fd       	sbrc	r26, 7
    32d4:	00 94       	com	r0
    32d6:	2a 0f       	add	r18, r26
    32d8:	30 1d       	adc	r19, r0
    32da:	40 1d       	adc	r20, r0
    32dc:	50 1d       	adc	r21, r0
    32de:	60 1d       	adc	r22, r0
    32e0:	70 1d       	adc	r23, r0
    32e2:	80 1d       	adc	r24, r0
    32e4:	90 1d       	adc	r25, r0
    32e6:	08 95       	ret

000032e8 <__subdi3>:
    32e8:	2a 19       	sub	r18, r10
    32ea:	3b 09       	sbc	r19, r11
    32ec:	4c 09       	sbc	r20, r12
    32ee:	5d 09       	sbc	r21, r13
    32f0:	6e 09       	sbc	r22, r14
    32f2:	7f 09       	sbc	r23, r15
    32f4:	80 0b       	sbc	r24, r16
    32f6:	91 0b       	sbc	r25, r17
    32f8:	08 95       	ret

000032fa <__cmpdi2>:
    32fa:	2a 15       	cp	r18, r10
    32fc:	3b 05       	cpc	r19, r11
    32fe:	4c 05       	cpc	r20, r12
    3300:	5d 05       	cpc	r21, r13
    3302:	6e 05       	cpc	r22, r14
    3304:	7f 05       	cpc	r23, r15
    3306:	80 07       	cpc	r24, r16
    3308:	91 07       	cpc	r25, r17
    330a:	08 95       	ret

0000330c <__cmpdi2_s8>:
    330c:	00 24       	eor	r0, r0
    330e:	a7 fd       	sbrc	r26, 7
    3310:	00 94       	com	r0
    3312:	2a 17       	cp	r18, r26
    3314:	30 05       	cpc	r19, r0
    3316:	40 05       	cpc	r20, r0
    3318:	50 05       	cpc	r21, r0
    331a:	60 05       	cpc	r22, r0
    331c:	70 05       	cpc	r23, r0
    331e:	80 05       	cpc	r24, r0
    3320:	90 05       	cpc	r25, r0
    3322:	08 95       	ret

00003324 <__umulhisi3>:
    3324:	a2 9f       	mul	r26, r18
    3326:	b0 01       	movw	r22, r0
    3328:	b3 9f       	mul	r27, r19
    332a:	c0 01       	movw	r24, r0
    332c:	a3 9f       	mul	r26, r19
    332e:	70 0d       	add	r23, r0
    3330:	81 1d       	adc	r24, r1
    3332:	11 24       	eor	r1, r1
    3334:	91 1d       	adc	r25, r1
    3336:	b2 9f       	mul	r27, r18
    3338:	70 0d       	add	r23, r0
    333a:	81 1d       	adc	r24, r1
    333c:	11 24       	eor	r1, r1
    333e:	91 1d       	adc	r25, r1
    3340:	08 95       	ret

Disassembly of section .bss:

008007a1 <__seqcounter>:
	...

008007a3 <systime_frequency>:
  8007a3:	00 00       	nop
	...

008007a7 <__jiffies>:
	...

008007af <__current_schedee>:
	...

008007b1 <__brkval>:
	...

008007b3 <__flp>:
	...

008007b5 <_ZN4crow21user_incoming_handlerE>:
	...

008007b7 <irqtable>:
	...

00800907 <trace_level>:
	...

00800908 <vfs_fslist>:
	...

0080090a <uartgate>:
	...

0080096f <uart0>:
	...

00800978 <null_device>:
	...

0080098f <zero_device>:
	...

008009a6 <debug_device>:
	...

008009bd <crow_gateways>:
  8009bd:	00 00       	nop
	...

008009c1 <_ZN4crow5nodesE>:
  8009c1:	00 00       	nop
	...

008009c5 <current_diag_priv>:
	...

008009c7 <_ZL4save>:
	...

008009c8 <_ZL5count>:
	...

008009ca <__interrupt_context>:
	...

008009cb <_ZL7runlist.lto_priv.115>:
	...

Disassembly of section .comment:

00000000 <.comment>:
   0:	47 43       	sbci	r20, 0x37	; 55
   2:	43 3a       	cpi	r20, 0xA3	; 163
   4:	20 28       	or	r2, r0
   6:	47 4e       	sbci	r20, 0xE7	; 231
   8:	55 29       	or	r21, r5
   a:	20 35       	cpi	r18, 0x50	; 80
   c:	2e 34       	cpi	r18, 0x4E	; 78
   e:	2e 30       	cpi	r18, 0x0E	; 14
	...
